   1               		.file	"command.c"
   2               		.arch atmega16
   3               	__SREG__ = 0x3f
   4               	__SP_H__ = 0x3e
   5               	__SP_L__ = 0x3d
   6               	__tmp_reg__ = 0
   7               	__zero_reg__ = 1
   8               		.global __do_copy_data
   9               		.global __do_clear_bss
  17               	.Ltext0:
  18               	.global	ptext
  19               		.data
  22               	ptext:
  23 0000 0000      		.word	text
  24               	.global	command
  25               	.global	command
  26               		.section .bss
  29               	command:
  30 0000 00        		.skip 1,0
  31               	.global	Str_CR
  32               		.section	.progmem.data,"a",@progbits
  35               	Str_CR:
  36 0000 0D0A 00   		.string	"\r\n"
  37               	.global	Str_BOT
  40               	Str_BOT:
  41 0003 424F 543A 		.string	"BOT:\\>"
  41      5C3E 00
  42               		.data
  43               	.LC0:
  44 0002 3F00      		.string	"?"
  45               	.LC1:
  46 0004 6865 6C70 		.string	"help"
  46      00
  47               	.LC2:
  48 0009 7374 6174 		.string	"status"
  48      7573 00
  49               	.LC3:
  50 0010 636C 7300 		.string	"cls"
  51               	.LC4:
  52 0014 6D6F 7665 		.string	"move"
  52      00
  53               	.LC5:
  54 0019 6465 6D6F 		.string	"demo"
  54      00
  55               	.LC6:
  56 001e 6465 6275 		.string	"debug"
  56      6700 
  57               	.LC7:
  58 0024 6465 6275 		.string	"debug cmd"
  58      6720 636D 
  58      6400 
  59               	.LC8:
  60 002e 6465 6275 		.string	"debug enc"
  60      6720 656E 
  60      6300 
  61               	.LC9:
  62 0038 6465 6275 		.string	"debug reg"
  62      6720 7265 
  62      6700 
  63               		.text
  64               	.global	command_put
  66               	command_put:
  67               	.LFB2:
  68               	.LM1:
  69               	/* prologue: frame size=1 */
  70 0000 CF93      		push r28
  71 0002 DF93      		push r29
  72 0004 CDB7      		in r28,__SP_L__
  73 0006 DEB7      		in r29,__SP_H__
  74 0008 2197      		sbiw r28,1
  75 000a 0FB6      		in __tmp_reg__,__SREG__
  76 000c F894      		cli
  77 000e DEBF      		out __SP_H__,r29
  78 0010 0FBE      		out __SREG__,__tmp_reg__
  79 0012 CDBF      		out __SP_L__,r28
  80               	/* prologue end (size=10) */
  81 0014 8983      		std Y+1,r24
  82               	.LM2:
  83 0016 8981      		ldd r24,Y+1
  84 0018 8F3F      		cpi r24,lo8(-1)
  85 001a 09F4      		brne .+2
  86 001c DEC0      		rjmp .L2
  87               	.LM3:
  88 001e 8981      		ldd r24,Y+1
  89 0020 8D30      		cpi r24,lo8(13)
  90 0022 09F0      		breq .+2
  91 0024 8AC0      		rjmp .L3
  92               	.LM4:
  93 0026 A0E0      		ldi r26,lo8(ptext)
  94 0028 B0E0      		ldi r27,hi8(ptext)
  95 002a 8D91      		ld r24,X+
  96 002c 9C91      		ld r25,X
  97 002e 1197      		sbiw r26,1
  98 0030 FC01      		movw r30,r24
  99 0032 1082      		st Z,__zero_reg__
 100 0034 0196      		adiw r24,1
 101 0036 8D93      		st X+,r24
 102 0038 9C93      		st X,r25
 103               	.LM5:
 104 003a 80E0      		ldi r24,lo8(text)
 105 003c 90E0      		ldi r25,hi8(text)
 106 003e 9093 0000 		sts (ptext)+1,r25
 107 0042 8093 0000 		sts ptext,r24
 108               	.LM6:
 109 0046 1092 0000 		sts nText,__zero_reg__
 110               	.LM7:
 111 004a 60E0      		ldi r22,lo8(.LC0)
 112 004c 70E0      		ldi r23,hi8(.LC0)
 113 004e 80E0      		ldi r24,lo8(text)
 114 0050 90E0      		ldi r25,hi8(text)
 115 0052 0E94 0000 		call strcmp
 116 0056 0097      		sbiw r24,0
 117 0058 41F0      		breq .L5
 118 005a 60E0      		ldi r22,lo8(.LC1)
 119 005c 70E0      		ldi r23,hi8(.LC1)
 120 005e 80E0      		ldi r24,lo8(text)
 121 0060 90E0      		ldi r25,hi8(text)
 122 0062 0E94 0000 		call strcmp
 123 0066 0097      		sbiw r24,0
 124 0068 21F4      		brne .L4
 125               	.L5:
 126               	.LM8:
 127 006a 84E0      		ldi r24,lo8(4)
 128 006c 8093 0000 		sts command,r24
 129               	.LM9:
 130 0070 B6C0      		rjmp .L1
 131               	.L4:
 132               	.LM10:
 133 0072 60E0      		ldi r22,lo8(.LC2)
 134 0074 70E0      		ldi r23,hi8(.LC2)
 135 0076 80E0      		ldi r24,lo8(text)
 136 0078 90E0      		ldi r25,hi8(text)
 137 007a 0E94 0000 		call strcmp
 138 007e 0097      		sbiw r24,0
 139 0080 21F4      		brne .L7
 140               	.LM11:
 141 0082 83E0      		ldi r24,lo8(3)
 142 0084 8093 0000 		sts command,r24
 143               	.LM12:
 144 0088 AAC0      		rjmp .L1
 145               	.L7:
 146               	.LM13:
 147 008a 60E0      		ldi r22,lo8(.LC3)
 148 008c 70E0      		ldi r23,hi8(.LC3)
 149 008e 80E0      		ldi r24,lo8(text)
 150 0090 90E0      		ldi r25,hi8(text)
 151 0092 0E94 0000 		call strcmp
 152 0096 0097      		sbiw r24,0
 153 0098 21F4      		brne .L9
 154               	.LM14:
 155 009a 82E0      		ldi r24,lo8(2)
 156 009c 8093 0000 		sts command,r24
 157               	.LM15:
 158 00a0 9EC0      		rjmp .L1
 159               	.L9:
 160               	.LM16:
 161 00a2 60E0      		ldi r22,lo8(.LC4)
 162 00a4 70E0      		ldi r23,hi8(.LC4)
 163 00a6 80E0      		ldi r24,lo8(text)
 164 00a8 90E0      		ldi r25,hi8(text)
 165 00aa 0E94 0000 		call strcmp
 166 00ae 0097      		sbiw r24,0
 167 00b0 21F4      		brne .L11
 168               	.LM17:
 169 00b2 85E0      		ldi r24,lo8(5)
 170 00b4 8093 0000 		sts command,r24
 171               	.LM18:
 172 00b8 92C0      		rjmp .L1
 173               	.L11:
 174               	.LM19:
 175 00ba 60E0      		ldi r22,lo8(.LC5)
 176 00bc 70E0      		ldi r23,hi8(.LC5)
 177 00be 80E0      		ldi r24,lo8(text)
 178 00c0 90E0      		ldi r25,hi8(text)
 179 00c2 0E94 0000 		call strcmp
 180 00c6 0097      		sbiw r24,0
 181 00c8 21F4      		brne .L13
 182               	.LM20:
 183 00ca 86E0      		ldi r24,lo8(6)
 184 00cc 8093 0000 		sts command,r24
 185               	.LM21:
 186 00d0 86C0      		rjmp .L1
 187               	.L13:
 188               	.LM22:
 189 00d2 60E0      		ldi r22,lo8(.LC6)
 190 00d4 70E0      		ldi r23,hi8(.LC6)
 191 00d6 80E0      		ldi r24,lo8(text)
 192 00d8 90E0      		ldi r25,hi8(text)
 193 00da 0E94 0000 		call strcmp
 194 00de 0097      		sbiw r24,0
 195 00e0 21F4      		brne .L15
 196               	.LM23:
 197 00e2 8AE0      		ldi r24,lo8(10)
 198 00e4 8093 0000 		sts command,r24
 199               	.LM24:
 200 00e8 7AC0      		rjmp .L1
 201               	.L15:
 202               	.LM25:
 203 00ea 60E0      		ldi r22,lo8(.LC7)
 204 00ec 70E0      		ldi r23,hi8(.LC7)
 205 00ee 80E0      		ldi r24,lo8(text)
 206 00f0 90E0      		ldi r25,hi8(text)
 207 00f2 0E94 0000 		call strcmp
 208 00f6 0097      		sbiw r24,0
 209 00f8 21F4      		brne .L17
 210               	.LM26:
 211 00fa 8BE0      		ldi r24,lo8(11)
 212 00fc 8093 0000 		sts command,r24
 213               	.LM27:
 214 0100 6EC0      		rjmp .L1
 215               	.L17:
 216               	.LM28:
 217 0102 60E0      		ldi r22,lo8(.LC8)
 218 0104 70E0      		ldi r23,hi8(.LC8)
 219 0106 80E0      		ldi r24,lo8(text)
 220 0108 90E0      		ldi r25,hi8(text)
 221 010a 0E94 0000 		call strcmp
 222 010e 0097      		sbiw r24,0
 223 0110 21F4      		brne .L19
 224               	.LM29:
 225 0112 8CE0      		ldi r24,lo8(12)
 226 0114 8093 0000 		sts command,r24
 227               	.LM30:
 228 0118 62C0      		rjmp .L1
 229               	.L19:
 230               	.LM31:
 231 011a 60E0      		ldi r22,lo8(.LC9)
 232 011c 70E0      		ldi r23,hi8(.LC9)
 233 011e 80E0      		ldi r24,lo8(text)
 234 0120 90E0      		ldi r25,hi8(text)
 235 0122 0E94 0000 		call strcmp
 236 0126 0097      		sbiw r24,0
 237 0128 21F4      		brne .L21
 238               	.LM32:
 239 012a 8DE0      		ldi r24,lo8(13)
 240 012c 8093 0000 		sts command,r24
 241               	.LM33:
 242 0130 56C0      		rjmp .L1
 243               	.L21:
 244               	.LM34:
 245 0132 81E0      		ldi r24,lo8(1)
 246 0134 8093 0000 		sts command,r24
 247               	.LM35:
 248 0138 52C0      		rjmp .L1
 249               	.L3:
 250               	.LM36:
 251 013a 8981      		ldd r24,Y+1
 252 013c 8B31      		cpi r24,lo8(27)
 253 013e 49F5      		brne .L24
 254               	.LM37:
 255 0140 0E94 0000 		call uart_getc
 256 0144 8983      		std Y+1,r24
 257               	.LM38:
 258 0146 8981      		ldd r24,Y+1
 259 0148 8B35      		cpi r24,lo8(91)
 260 014a F9F4      		brne .L25
 261               	.LM39:
 262 014c 0E94 0000 		call uart_getc
 263 0150 8983      		std Y+1,r24
 264               	.LM40:
 265 0152 8981      		ldd r24,Y+1
 266 0154 8134      		cpi r24,lo8(65)
 267 0156 21F4      		brne .L26
 268               	.LM41:
 269 0158 81E4      		ldi r24,lo8(65)
 270 015a 8093 0000 		sts command,r24
 271               	.LM42:
 272 015e 3FC0      		rjmp .L1
 273               	.L26:
 274               	.LM43:
 275 0160 8981      		ldd r24,Y+1
 276 0162 8234      		cpi r24,lo8(66)
 277 0164 21F4      		brne .L28
 278               	.LM44:
 279 0166 82E4      		ldi r24,lo8(66)
 280 0168 8093 0000 		sts command,r24
 281               	.LM45:
 282 016c 38C0      		rjmp .L1
 283               	.L28:
 284               	.LM46:
 285 016e 8981      		ldd r24,Y+1
 286 0170 8334      		cpi r24,lo8(67)
 287 0172 21F4      		brne .L30
 288               	.LM47:
 289 0174 85E4      		ldi r24,lo8(69)
 290 0176 8093 0000 		sts command,r24
 291               	.LM48:
 292 017a 31C0      		rjmp .L1
 293               	.L30:
 294               	.LM49:
 295 017c 8981      		ldd r24,Y+1
 296 017e 8434      		cpi r24,lo8(68)
 297 0180 61F5      		brne .L2
 298               	.LM50:
 299 0182 84E4      		ldi r24,lo8(68)
 300 0184 8093 0000 		sts command,r24
 301               	.LM51:
 302 0188 2AC0      		rjmp .L1
 303               	.L25:
 304               	.LM52:
 305 018a 8BE1      		ldi r24,lo8(27)
 306 018c 8093 0000 		sts command,r24
 307               	.LM53:
 308 0190 26C0      		rjmp .L1
 309               	.L24:
 310               	.LM54:
 311 0192 8981      		ldd r24,Y+1
 312 0194 8A30      		cpi r24,lo8(10)
 313 0196 41F0      		breq .L36
 314 0198 8981      		ldd r24,Y+1
 315 019a 8830      		cpi r24,lo8(8)
 316 019c 29F0      		breq .L36
 317 019e 8091 0000 		lds r24,nText
 318 01a2 8036      		cpi r24,lo8(96)
 319 01a4 09F0      		breq .L36
 320 01a6 03C0      		rjmp .L35
 321               	.L36:
 322               	.LM55:
 323 01a8 1092 0000 		sts command,__zero_reg__
 324               	.LM56:
 325 01ac 18C0      		rjmp .L1
 326               	.L35:
 327               	.LM57:
 328 01ae A0E0      		ldi r26,lo8(ptext)
 329 01b0 B0E0      		ldi r27,hi8(ptext)
 330 01b2 8D91      		ld r24,X+
 331 01b4 9C91      		ld r25,X
 332 01b6 1197      		sbiw r26,1
 333 01b8 FC01      		movw r30,r24
 334 01ba 2981      		ldd r18,Y+1
 335 01bc 2083      		st Z,r18
 336 01be 0196      		adiw r24,1
 337 01c0 8D93      		st X+,r24
 338 01c2 9C93      		st X,r25
 339               	.LM58:
 340 01c4 8981      		ldd r24,Y+1
 341 01c6 0E94 0000 		call uart_putc
 342               	.LM59:
 343 01ca 8091 0000 		lds r24,nText
 344 01ce 8F5F      		subi r24,lo8(-(1))
 345 01d0 8093 0000 		sts nText,r24
 346               	.LM60:
 347 01d4 1092 0000 		sts command,__zero_reg__
 348               	.LM61:
 349 01d8 02C0      		rjmp .L1
 350               	.L2:
 351               	.LM62:
 352 01da 1092 0000 		sts command,__zero_reg__
 353               	.L1:
 354               	/* epilogue: frame size=1 */
 355 01de 2196      		adiw r28,1
 356 01e0 0FB6      		in __tmp_reg__,__SREG__
 357 01e2 F894      		cli
 358 01e4 DEBF      		out __SP_H__,r29
 359 01e6 0FBE      		out __SREG__,__tmp_reg__
 360 01e8 CDBF      		out __SP_L__,r28
 361 01ea DF91      		pop r29
 362 01ec CF91      		pop r28
 363 01ee 0895      		ret
 364               	/* epilogue end (size=9) */
 365               	/* function command_put size 248 (229) */
 366               	.LFE2:
 368               	.global	command_get
 370               	command_get:
 371               	.LFB3:
 372               	.LM63:
 373               	/* prologue: frame size=0 */
 374 01f0 CF93      		push r28
 375 01f2 DF93      		push r29
 376 01f4 CDB7      		in r28,__SP_L__
 377 01f6 DEB7      		in r29,__SP_H__
 378               	/* prologue end (size=4) */
 379               	.LM64:
 380 01f8 8091 0000 		lds r24,command
 381 01fc 9927      		clr r25
 382               	/* epilogue: frame size=0 */
 383 01fe DF91      		pop r29
 384 0200 CF91      		pop r28
 385 0202 0895      		ret
 386               	/* epilogue end (size=3) */
 387               	/* function command_get size 10 (3) */
 388               	.LFE3:
 390               	.global	command_text
 392               	command_text:
 393               	.LFB4:
 394               	.LM65:
 395               	/* prologue: frame size=0 */
 396 0204 CF93      		push r28
 397 0206 DF93      		push r29
 398 0208 CDB7      		in r28,__SP_L__
 399 020a DEB7      		in r29,__SP_H__
 400               	/* prologue end (size=4) */
 401               	.LM66:
 402 020c 80E0      		ldi r24,lo8(text)
 403 020e 90E0      		ldi r25,hi8(text)
 404               	/* epilogue: frame size=0 */
 405 0210 DF91      		pop r29
 406 0212 CF91      		pop r28
 407 0214 0895      		ret
 408               	/* epilogue end (size=3) */
 409               	/* function command_text size 9 (2) */
 410               	.LFE4:
 412               		.section	.progmem.data
 415               	__c.0:
 416 000a 0D0A 2044 		.string	"\r\n Diesen Befehl kenne ich nicht.\r\n"
 416      6965 7365 
 416      6E20 4265 
 416      6665 686C 
 416      206B 656E 
 419               	__c.1:
 420 002e 2044 7520 		.string	" Du hast \""
 420      6861 7374 
 420      2022 00
 423               	__c.2:
 424 0039 2220 6569 		.string	"\" eingegeben. "
 424      6E67 6567 
 424      6562 656E 
 424      2E20 00
 427               	__c.3:
 428 0048 0C20 2A2A 		.string	"\f *** Hallo! ***"
 428      2A20 4861 
 428      6C6C 6F21 
 428      202A 2A2A 
 428      00
 431               	__c.4:
 432 0059 2049 6368 		.string	" Ich bin ein kleiner Roboter. Was moechtest du mit mir machen?"
 432      2062 696E 
 432      2065 696E 
 432      206B 6C65 
 432      696E 6572 
 435               	__c.5:
 436 0098 204D 6974 		.string	" Mit dem Befehl:"
 436      2064 656D 
 436      2042 6566 
 436      6568 6C3A 
 436      00
 439               	__c.6:
 440 00a9 202D 203F 		.string	" - ?       Zeige ich die alle Befehle die ich verstehe."
 440      2020 2020 
 440      2020 205A 
 440      6569 6765 
 440      2069 6368 
 443               	__c.7:
 444 00e1 202D 2073 		.string	" - status  kannst du sehen, wie ich mich fuehle."
 444      7461 7475 
 444      7320 206B 
 444      616E 6E73 
 444      7420 6475 
 447               	__c.8:
 448 0112 202D 2063 		.string	" - cls     loescht du den Bildschirm."
 448      6C73 2020 
 448      2020 206C 
 448      6F65 7363 
 448      6874 2064 
 451               	__c.9:
 452 0138 202D 206D 		.string	" - move    kannst du mich fahren lassen."
 452      6F76 6520 
 452      2020 206B 
 452      616E 6E73 
 452      7420 6475 
 455               	__c.10:
 456 0161 202D 2064 		.string	" - demo    fahre ich ein wenig hin und her."
 456      656D 6F20 
 456      2020 2066 
 456      6168 7265 
 456      2069 6368 
 459               	__c.11:
 460 018d 202D 2064 		.string	" - debug   Zeige ich dir Aktuelle Statusmeldungen."
 460      6562 7567 
 460      2020 205A 
 460      6569 6765 
 460      2069 6368 
 463               	__c.12:
 464 01c0 0C20 2A2A 		.string	"\f *** Hi! ***\r\n"
 464      2A20 4869 
 464      2120 2A2A 
 464      2A0D 0A00 
 467               	__c.13:
 468 01d0 2049 6368 		.string	" Ich bin heute schon seit "
 468      2062 696E 
 468      2068 6575 
 468      7465 2073 
 468      6368 6F6E 
 471               	__c.14:
 472 01eb 2075 6E74 		.string	" unterwegs.\r\n"
 472      6572 7765 
 472      6773 2E0D 
 472      0A00 
 475               	__c.15:
 476 01f9 2049 6368 		.string	" Ich fuehle mich gut und meine Akkuspannung betraegt noch:"
 476      2066 7565 
 476      686C 6520 
 476      6D69 6368 
 476      2067 7574 
 479               	__c.16:
 480 0234 2031 3256 		.string	" 12V\r\n"
 480      0D0A 00
 483               	__c.17:
 484 023b 0C20 2A2A 		.string	"\f *** Gib Gas! ***\r\n"
 484      2A20 4769 
 484      6220 4761 
 484      7321 202A 
 484      2A2A 0D0A 
 487               	__c.18:
 488 0250 204D 6974 		.string	" Mit den Pfeiltasten kannst du mich nun steuern.\r\n"
 488      2064 656E 
 488      2050 6665 
 488      696C 7461 
 488      7374 656E 
 491               	__c.19:
 492 0283 204D 6974 		.string	" Mit Esc beendest du die Fahrt."
 492      2045 7363 
 492      2062 6565 
 492      6E64 6573 
 492      7420 6475 
 495               	__c.20:
 496 02a3 0C20 2A2A 		.string	"\f *** DEMO *** \r\n"
 496      2A20 4445 
 496      4D4F 202A 
 496      2A2A 200D 
 496      0A00 
 499               	__c.21:
 500 02b5 2049 6368 		.string	" Ich fahre ein wenig hin und her.\r\n"
 500      2066 6168 
 500      7265 2065 
 500      696E 2077 
 500      656E 6967 
 503               	__c.22:
 504 02d9 204D 6974 		.string	" Mit Esc beendest du die Fahrt."
 504      2045 7363 
 504      2062 6565 
 504      6E64 6573 
 504      7420 6475 
 507               	__c.23:
 508 02f9 0C20 2A2A 		.string	"\f *** DEBUG *** \r\n"
 508      2A20 4445 
 508      4255 4720 
 508      2A2A 2A20 
 508      0D0A 00
 511               	__c.24:
 512 030c 2049 6368 		.string	" Ich kann dir verschiedene DEBUGinfomationen ausgeben:\r\n"
 512      206B 616E 
 512      6E20 6469 
 512      7220 7665 
 512      7273 6368 
 515               	__c.25:
 516 0345 204D 6974 		.string	" Mit dem Befehl:\r\n"
 516      2064 656D 
 516      2042 6566 
 516      6568 6C3A 
 516      0D0A 00
 519               	__c.26:
 520 0358 202D 2064 		.string	" - debug cmd      gebe ich dir alle gesendete Zeichen aus.\r\n"
 520      6562 7567 
 520      2063 6D64 
 520      2020 2020 
 520      2020 6765 
 523               	__c.27:
 524 0395 202D 2064 		.string	" - debug enc      gebe ich die die aktuellen Encoderwerte aus.\r\n"
 524      6562 7567 
 524      2065 6E63 
 524      2020 2020 
 524      2020 6765 
 527               	__c.28:
 528 03d6 202D 2064 		.string	" - debug reg      gebe ich dir aktuelle Reglerwerte aus.\r\n"
 528      6562 7567 
 528      2072 6567 
 528      2020 2020 
 528      2020 6765 
 531               	__c.29:
 532 0411 202D 2044 		.string	" - Die Anzeige beendest du mit escape.\r\n"
 532      6965 2041 
 532      6E7A 6569 
 532      6765 2062 
 532      6565 6E64 
 535               	__c.30:
 536 043a 0C00      		.string	"\f"
 539               	__c.31:
 540 043c 0C20 4665 		.string	"\f Fehler in der Commandline!!\r\n"
 540      686C 6572 
 540      2069 6E20 
 540      6465 7220 
 540      436F 6D6D 
 541               		.text
 542               	.global	command_prompt
 544               	command_prompt:
 545               	.LFB5:
 546               	.LM67:
 547               	/* prologue: frame size=3 */
 548 0216 CF93      		push r28
 549 0218 DF93      		push r29
 550 021a CDB7      		in r28,__SP_L__
 551 021c DEB7      		in r29,__SP_H__
 552 021e 2397      		sbiw r28,3
 553 0220 0FB6      		in __tmp_reg__,__SREG__
 554 0222 F894      		cli
 555 0224 DEBF      		out __SP_H__,r29
 556 0226 0FBE      		out __SREG__,__tmp_reg__
 557 0228 CDBF      		out __SP_L__,r28
 558               	/* prologue end (size=10) */
 559 022a 8983      		std Y+1,r24
 560               	.LM68:
 561 022c 8981      		ldd r24,Y+1
 562 022e 282F      		mov r18,r24
 563 0230 3327      		clr r19
 564 0232 3B83      		std Y+3,r19
 565 0234 2A83      		std Y+2,r18
 566 0236 8A81      		ldd r24,Y+2
 567 0238 9B81      		ldd r25,Y+3
 568 023a 8A30      		cpi r24,10
 569 023c 9105      		cpc r25,__zero_reg__
 570 023e 09F4      		brne .+2
 571 0240 F8C0      		rjmp .L47
 572               	.LM69:
 573 0242 2A81      		ldd r18,Y+2
 574 0244 3B81      		ldd r19,Y+3
 575 0246 2B30      		cpi r18,11
 576 0248 3105      		cpc r19,__zero_reg__
 577 024a 84F5      		brge .L58
 578 024c 8A81      		ldd r24,Y+2
 579 024e 9B81      		ldd r25,Y+3
 580 0250 8330      		cpi r24,3
 581 0252 9105      		cpc r25,__zero_reg__
 582 0254 09F4      		brne .+2
 583 0256 B8C0      		rjmp .L44
 584 0258 2A81      		ldd r18,Y+2
 585 025a 3B81      		ldd r19,Y+3
 586 025c 2430      		cpi r18,4
 587 025e 3105      		cpc r19,__zero_reg__
 588 0260 94F4      		brge .L59
 589 0262 8A81      		ldd r24,Y+2
 590 0264 9B81      		ldd r25,Y+3
 591 0266 8130      		cpi r24,1
 592 0268 9105      		cpc r25,__zero_reg__
 593 026a 09F4      		brne .+2
 594 026c 40C0      		rjmp .L42
 595 026e 2A81      		ldd r18,Y+2
 596 0270 3B81      		ldd r19,Y+3
 597 0272 2230      		cpi r18,2
 598 0274 3105      		cpc r19,__zero_reg__
 599 0276 0CF0      		brlt .+2
 600 0278 FDC0      		rjmp .L48
 601 027a 8A81      		ldd r24,Y+2
 602 027c 9B81      		ldd r25,Y+3
 603 027e 0097      		sbiw r24,0
 604 0280 09F4      		brne .+2
 605 0282 0EC1      		rjmp .L39
 606 0284 09C1      		rjmp .L57
 607               	.L59:
 608 0286 2A81      		ldd r18,Y+2
 609 0288 3B81      		ldd r19,Y+3
 610 028a 2530      		cpi r18,5
 611 028c 3105      		cpc r19,__zero_reg__
 612 028e 09F4      		brne .+2
 613 0290 B6C0      		rjmp .L45
 614 0292 8A81      		ldd r24,Y+2
 615 0294 9B81      		ldd r25,Y+3
 616 0296 8530      		cpi r24,5
 617 0298 9105      		cpc r25,__zero_reg__
 618 029a 0CF4      		brge .+2
 619 029c 48C0      		rjmp .L43
 620 029e 2A81      		ldd r18,Y+2
 621 02a0 3B81      		ldd r19,Y+3
 622 02a2 2630      		cpi r18,6
 623 02a4 3105      		cpc r19,__zero_reg__
 624 02a6 09F4      		brne .+2
 625 02a8 B7C0      		rjmp .L46
 626 02aa F6C0      		rjmp .L57
 627               	.L58:
 628 02ac 8A81      		ldd r24,Y+2
 629 02ae 9B81      		ldd r25,Y+3
 630 02b0 8334      		cpi r24,67
 631 02b2 9105      		cpc r25,__zero_reg__
 632 02b4 9CF4      		brge .L60
 633 02b6 2A81      		ldd r18,Y+2
 634 02b8 3B81      		ldd r19,Y+3
 635 02ba 2134      		cpi r18,65
 636 02bc 3105      		cpc r19,__zero_reg__
 637 02be 0CF0      		brlt .+2
 638 02c0 EFC0      		rjmp .L39
 639 02c2 8A81      		ldd r24,Y+2
 640 02c4 9B81      		ldd r25,Y+3
 641 02c6 8E30      		cpi r24,14
 642 02c8 9105      		cpc r25,__zero_reg__
 643 02ca 0CF4      		brge .+2
 644 02cc E9C0      		rjmp .L39
 645 02ce 2A81      		ldd r18,Y+2
 646 02d0 3B81      		ldd r19,Y+3
 647 02d2 2B31      		cpi r18,27
 648 02d4 3105      		cpc r19,__zero_reg__
 649 02d6 09F4      		brne .+2
 650 02d8 D6C0      		rjmp .L49
 651 02da DEC0      		rjmp .L57
 652               	.L60:
 653 02dc 8A81      		ldd r24,Y+2
 654 02de 9B81      		ldd r25,Y+3
 655 02e0 8454      		subi r24,lo8(-(-68))
 656 02e2 9040      		sbci r25,hi8(-(-68))
 657 02e4 8230      		cpi r24,2
 658 02e6 9105      		cpc r25,__zero_reg__
 659 02e8 08F0      		brlo .+2
 660 02ea D6C0      		rjmp .L57
 661 02ec D9C0      		rjmp .L39
 662               	.L42:
 663               	.LM70:
 664 02ee 80E0      		ldi r24,lo8(__c.0)
 665 02f0 90E0      		ldi r25,hi8(__c.0)
 666 02f2 0E94 0000 		call uart_puts_p
 667               	.LM71:
 668 02f6 80E0      		ldi r24,lo8(__c.1)
 669 02f8 90E0      		ldi r25,hi8(__c.1)
 670 02fa 0E94 0000 		call uart_puts_p
 671               	.LM72:
 672 02fe 0E94 0000 		call command_text
 673 0302 0E94 0000 		call uart_puts
 674               	.LM73:
 675 0306 80E0      		ldi r24,lo8(__c.2)
 676 0308 90E0      		ldi r25,hi8(__c.2)
 677 030a 0E94 0000 		call uart_puts_p
 678               	.LM74:
 679 030e 0E94 0000 		call command_text
 680 0312 FC01      		movw r30,r24
 681 0314 8081      		ld r24,Z
 682 0316 9927      		clr r25
 683 0318 0E94 0000 		call uart_puti
 684               	.LM75:
 685 031c 80E0      		ldi r24,lo8(Str_CR)
 686 031e 90E0      		ldi r25,hi8(Str_CR)
 687 0320 0E94 0000 		call uart_puts_p
 688               	.LM76:
 689 0324 80E0      		ldi r24,lo8(Str_BOT)
 690 0326 90E0      		ldi r25,hi8(Str_BOT)
 691 0328 0E94 0000 		call uart_puts_p
 692               	.LM77:
 693 032c B9C0      		rjmp .L39
 694               	.L43:
 695               	.LM78:
 696 032e 80E0      		ldi r24,lo8(__c.3)
 697 0330 90E0      		ldi r25,hi8(__c.3)
 698 0332 0E94 0000 		call uart_puts_p
 699               	.LM79:
 700 0336 80E0      		ldi r24,lo8(Str_CR)
 701 0338 90E0      		ldi r25,hi8(Str_CR)
 702 033a 0E94 0000 		call uart_puts_p
 703               	.LM80:
 704 033e 80E0      		ldi r24,lo8(__c.4)
 705 0340 90E0      		ldi r25,hi8(__c.4)
 706 0342 0E94 0000 		call uart_puts_p
 707               	.LM81:
 708 0346 80E0      		ldi r24,lo8(Str_CR)
 709 0348 90E0      		ldi r25,hi8(Str_CR)
 710 034a 0E94 0000 		call uart_puts_p
 711               	.LM82:
 712 034e 80E0      		ldi r24,lo8(__c.5)
 713 0350 90E0      		ldi r25,hi8(__c.5)
 714 0352 0E94 0000 		call uart_puts_p
 715               	.LM83:
 716 0356 80E0      		ldi r24,lo8(Str_CR)
 717 0358 90E0      		ldi r25,hi8(Str_CR)
 718 035a 0E94 0000 		call uart_puts_p
 719               	.LM84:
 720 035e 80E0      		ldi r24,lo8(__c.6)
 721 0360 90E0      		ldi r25,hi8(__c.6)
 722 0362 0E94 0000 		call uart_puts_p
 723               	.LM85:
 724 0366 80E0      		ldi r24,lo8(Str_CR)
 725 0368 90E0      		ldi r25,hi8(Str_CR)
 726 036a 0E94 0000 		call uart_puts_p
 727               	.LM86:
 728 036e 80E0      		ldi r24,lo8(__c.7)
 729 0370 90E0      		ldi r25,hi8(__c.7)
 730 0372 0E94 0000 		call uart_puts_p
 731               	.LM87:
 732 0376 80E0      		ldi r24,lo8(Str_CR)
 733 0378 90E0      		ldi r25,hi8(Str_CR)
 734 037a 0E94 0000 		call uart_puts_p
 735               	.LM88:
 736 037e 80E0      		ldi r24,lo8(__c.8)
 737 0380 90E0      		ldi r25,hi8(__c.8)
 738 0382 0E94 0000 		call uart_puts_p
 739               	.LM89:
 740 0386 80E0      		ldi r24,lo8(Str_CR)
 741 0388 90E0      		ldi r25,hi8(Str_CR)
 742 038a 0E94 0000 		call uart_puts_p
 743               	.LM90:
 744 038e 80E0      		ldi r24,lo8(__c.9)
 745 0390 90E0      		ldi r25,hi8(__c.9)
 746 0392 0E94 0000 		call uart_puts_p
 747               	.LM91:
 748 0396 80E0      		ldi r24,lo8(Str_CR)
 749 0398 90E0      		ldi r25,hi8(Str_CR)
 750 039a 0E94 0000 		call uart_puts_p
 751               	.LM92:
 752 039e 80E0      		ldi r24,lo8(__c.10)
 753 03a0 90E0      		ldi r25,hi8(__c.10)
 754 03a2 0E94 0000 		call uart_puts_p
 755               	.LM93:
 756 03a6 80E0      		ldi r24,lo8(Str_CR)
 757 03a8 90E0      		ldi r25,hi8(Str_CR)
 758 03aa 0E94 0000 		call uart_puts_p
 759               	.LM94:
 760 03ae 80E0      		ldi r24,lo8(__c.11)
 761 03b0 90E0      		ldi r25,hi8(__c.11)
 762 03b2 0E94 0000 		call uart_puts_p
 763               	.LM95:
 764 03b6 80E0      		ldi r24,lo8(Str_CR)
 765 03b8 90E0      		ldi r25,hi8(Str_CR)
 766 03ba 0E94 0000 		call uart_puts_p
 767               	.LM96:
 768 03be 80E0      		ldi r24,lo8(Str_BOT)
 769 03c0 90E0      		ldi r25,hi8(Str_BOT)
 770 03c2 0E94 0000 		call uart_puts_p
 771               	.LM97:
 772 03c6 6CC0      		rjmp .L39
 773               	.L44:
 774               	.LM98:
 775 03c8 80E0      		ldi r24,lo8(__c.12)
 776 03ca 90E0      		ldi r25,hi8(__c.12)
 777 03cc 0E94 0000 		call uart_puts_p
 778               	.LM99:
 779 03d0 80E0      		ldi r24,lo8(__c.13)
 780 03d2 90E0      		ldi r25,hi8(__c.13)
 781 03d4 0E94 0000 		call uart_puts_p
 782               	.LM100:
 783 03d8 0E94 0000 		call uart_printtime
 784               	.LM101:
 785 03dc 80E0      		ldi r24,lo8(__c.14)
 786 03de 90E0      		ldi r25,hi8(__c.14)
 787 03e0 0E94 0000 		call uart_puts_p
 788               	.LM102:
 789 03e4 80E0      		ldi r24,lo8(__c.15)
 790 03e6 90E0      		ldi r25,hi8(__c.15)
 791 03e8 0E94 0000 		call uart_puts_p
 792               	.LM103:
 793 03ec 80E0      		ldi r24,lo8(__c.16)
 794 03ee 90E0      		ldi r25,hi8(__c.16)
 795 03f0 0E94 0000 		call uart_puts_p
 796               	.LM104:
 797 03f4 80E0      		ldi r24,lo8(Str_BOT)
 798 03f6 90E0      		ldi r25,hi8(Str_BOT)
 799 03f8 0E94 0000 		call uart_puts_p
 800               	.LM105:
 801 03fc 51C0      		rjmp .L39
 802               	.L45:
 803               	.LM106:
 804 03fe 80E0      		ldi r24,lo8(__c.17)
 805 0400 90E0      		ldi r25,hi8(__c.17)
 806 0402 0E94 0000 		call uart_puts_p
 807               	.LM107:
 808 0406 80E0      		ldi r24,lo8(__c.18)
 809 0408 90E0      		ldi r25,hi8(__c.18)
 810 040a 0E94 0000 		call uart_puts_p
 811               	.LM108:
 812 040e 80E0      		ldi r24,lo8(__c.19)
 813 0410 90E0      		ldi r25,hi8(__c.19)
 814 0412 0E94 0000 		call uart_puts_p
 815               	.LM109:
 816 0416 44C0      		rjmp .L39
 817               	.L46:
 818               	.LM110:
 819 0418 80E0      		ldi r24,lo8(__c.20)
 820 041a 90E0      		ldi r25,hi8(__c.20)
 821 041c 0E94 0000 		call uart_puts_p
 822               	.LM111:
 823 0420 80E0      		ldi r24,lo8(__c.21)
 824 0422 90E0      		ldi r25,hi8(__c.21)
 825 0424 0E94 0000 		call uart_puts_p
 826               	.LM112:
 827 0428 80E0      		ldi r24,lo8(__c.22)
 828 042a 90E0      		ldi r25,hi8(__c.22)
 829 042c 0E94 0000 		call uart_puts_p
 830               	.LM113:
 831 0430 37C0      		rjmp .L39
 832               	.L47:
 833               	.LM114:
 834 0432 80E0      		ldi r24,lo8(__c.23)
 835 0434 90E0      		ldi r25,hi8(__c.23)
 836 0436 0E94 0000 		call uart_puts_p
 837               	.LM115:
 838 043a 80E0      		ldi r24,lo8(__c.24)
 839 043c 90E0      		ldi r25,hi8(__c.24)
 840 043e 0E94 0000 		call uart_puts_p
 841               	.LM116:
 842 0442 80E0      		ldi r24,lo8(__c.25)
 843 0444 90E0      		ldi r25,hi8(__c.25)
 844 0446 0E94 0000 		call uart_puts_p
 845               	.LM117:
 846 044a 80E0      		ldi r24,lo8(__c.26)
 847 044c 90E0      		ldi r25,hi8(__c.26)
 848 044e 0E94 0000 		call uart_puts_p
 849               	.LM118:
 850 0452 80E0      		ldi r24,lo8(__c.27)
 851 0454 90E0      		ldi r25,hi8(__c.27)
 852 0456 0E94 0000 		call uart_puts_p
 853               	.LM119:
 854 045a 80E0      		ldi r24,lo8(__c.28)
 855 045c 90E0      		ldi r25,hi8(__c.28)
 856 045e 0E94 0000 		call uart_puts_p
 857               	.LM120:
 858 0462 80E0      		ldi r24,lo8(__c.29)
 859 0464 90E0      		ldi r25,hi8(__c.29)
 860 0466 0E94 0000 		call uart_puts_p
 861               	.LM121:
 862 046a 80E0      		ldi r24,lo8(Str_BOT)
 863 046c 90E0      		ldi r25,hi8(Str_BOT)
 864 046e 0E94 0000 		call uart_puts_p
 865 0472 16C0      		rjmp .L39
 866               	.L48:
 867               	.LM122:
 868 0474 80E0      		ldi r24,lo8(__c.30)
 869 0476 90E0      		ldi r25,hi8(__c.30)
 870 0478 0E94 0000 		call uart_puts_p
 871               	.LM123:
 872 047c 80E0      		ldi r24,lo8(Str_BOT)
 873 047e 90E0      		ldi r25,hi8(Str_BOT)
 874 0480 0E94 0000 		call uart_puts_p
 875               	.LM124:
 876 0484 0DC0      		rjmp .L39
 877               	.L49:
 878               	.LM125:
 879 0486 80E0      		ldi r24,lo8(Str_CR)
 880 0488 90E0      		ldi r25,hi8(Str_CR)
 881 048a 0E94 0000 		call uart_puts_p
 882               	.LM126:
 883 048e 80E0      		ldi r24,lo8(Str_BOT)
 884 0490 90E0      		ldi r25,hi8(Str_BOT)
 885 0492 0E94 0000 		call uart_puts_p
 886               	.LM127:
 887 0496 04C0      		rjmp .L39
 888               	.L57:
 889               	.LM128:
 890 0498 80E0      		ldi r24,lo8(__c.31)
 891 049a 90E0      		ldi r25,hi8(__c.31)
 892 049c 0E94 0000 		call uart_puts_p
 893               	.L39:
 894               	/* epilogue: frame size=3 */
 895 04a0 2396      		adiw r28,3
 896 04a2 0FB6      		in __tmp_reg__,__SREG__
 897 04a4 F894      		cli
 898 04a6 DEBF      		out __SP_H__,r29
 899 04a8 0FBE      		out __SREG__,__tmp_reg__
 900 04aa CDBF      		out __SP_L__,r28
 901 04ac DF91      		pop r29
 902 04ae CF91      		pop r28
 903 04b0 0895      		ret
 904               	/* epilogue end (size=9) */
 905               	/* function command_prompt size 334 (315) */
 906               	.LFE5:
 908               		.comm text,100,1
 909               		.comm nText,1,1
 910               	.Letext0:
DEFINED SYMBOLS
                            *ABS*:00000000 command.c
C:\DOKUME~1\Olaf\LOKALE~1\Temp/ccwTaaaa.s:3      *ABS*:0000003f __SREG__
C:\DOKUME~1\Olaf\LOKALE~1\Temp/ccwTaaaa.s:4      *ABS*:0000003e __SP_H__
C:\DOKUME~1\Olaf\LOKALE~1\Temp/ccwTaaaa.s:5      *ABS*:0000003d __SP_L__
C:\DOKUME~1\Olaf\LOKALE~1\Temp/ccwTaaaa.s:6      *ABS*:00000000 __tmp_reg__
C:\DOKUME~1\Olaf\LOKALE~1\Temp/ccwTaaaa.s:7      *ABS*:00000001 __zero_reg__
C:\DOKUME~1\Olaf\LOKALE~1\Temp/ccwTaaaa.s:22     .data:00000000 ptext
                            *COM*:00000064 text
C:\DOKUME~1\Olaf\LOKALE~1\Temp/ccwTaaaa.s:29     .bss:00000000 command
C:\DOKUME~1\Olaf\LOKALE~1\Temp/ccwTaaaa.s:35     .progmem.data:00000000 Str_CR
C:\DOKUME~1\Olaf\LOKALE~1\Temp/ccwTaaaa.s:40     .progmem.data:00000003 Str_BOT
C:\DOKUME~1\Olaf\LOKALE~1\Temp/ccwTaaaa.s:66     .text:00000000 command_put
                            *COM*:00000001 nText
C:\DOKUME~1\Olaf\LOKALE~1\Temp/ccwTaaaa.s:370    .text:000001f0 command_get
C:\DOKUME~1\Olaf\LOKALE~1\Temp/ccwTaaaa.s:392    .text:00000204 command_text
C:\DOKUME~1\Olaf\LOKALE~1\Temp/ccwTaaaa.s:415    .progmem.data:0000000a __c.0
C:\DOKUME~1\Olaf\LOKALE~1\Temp/ccwTaaaa.s:419    .progmem.data:0000002e __c.1
C:\DOKUME~1\Olaf\LOKALE~1\Temp/ccwTaaaa.s:423    .progmem.data:00000039 __c.2
C:\DOKUME~1\Olaf\LOKALE~1\Temp/ccwTaaaa.s:427    .progmem.data:00000048 __c.3
C:\DOKUME~1\Olaf\LOKALE~1\Temp/ccwTaaaa.s:431    .progmem.data:00000059 __c.4
C:\DOKUME~1\Olaf\LOKALE~1\Temp/ccwTaaaa.s:435    .progmem.data:00000098 __c.5
C:\DOKUME~1\Olaf\LOKALE~1\Temp/ccwTaaaa.s:439    .progmem.data:000000a9 __c.6
C:\DOKUME~1\Olaf\LOKALE~1\Temp/ccwTaaaa.s:443    .progmem.data:000000e1 __c.7
C:\DOKUME~1\Olaf\LOKALE~1\Temp/ccwTaaaa.s:447    .progmem.data:00000112 __c.8
C:\DOKUME~1\Olaf\LOKALE~1\Temp/ccwTaaaa.s:451    .progmem.data:00000138 __c.9
C:\DOKUME~1\Olaf\LOKALE~1\Temp/ccwTaaaa.s:455    .progmem.data:00000161 __c.10
C:\DOKUME~1\Olaf\LOKALE~1\Temp/ccwTaaaa.s:459    .progmem.data:0000018d __c.11
C:\DOKUME~1\Olaf\LOKALE~1\Temp/ccwTaaaa.s:463    .progmem.data:000001c0 __c.12
C:\DOKUME~1\Olaf\LOKALE~1\Temp/ccwTaaaa.s:467    .progmem.data:000001d0 __c.13
C:\DOKUME~1\Olaf\LOKALE~1\Temp/ccwTaaaa.s:471    .progmem.data:000001eb __c.14
C:\DOKUME~1\Olaf\LOKALE~1\Temp/ccwTaaaa.s:475    .progmem.data:000001f9 __c.15
C:\DOKUME~1\Olaf\LOKALE~1\Temp/ccwTaaaa.s:479    .progmem.data:00000234 __c.16
C:\DOKUME~1\Olaf\LOKALE~1\Temp/ccwTaaaa.s:483    .progmem.data:0000023b __c.17
C:\DOKUME~1\Olaf\LOKALE~1\Temp/ccwTaaaa.s:487    .progmem.data:00000250 __c.18
C:\DOKUME~1\Olaf\LOKALE~1\Temp/ccwTaaaa.s:491    .progmem.data:00000283 __c.19
C:\DOKUME~1\Olaf\LOKALE~1\Temp/ccwTaaaa.s:495    .progmem.data:000002a3 __c.20
C:\DOKUME~1\Olaf\LOKALE~1\Temp/ccwTaaaa.s:499    .progmem.data:000002b5 __c.21
C:\DOKUME~1\Olaf\LOKALE~1\Temp/ccwTaaaa.s:503    .progmem.data:000002d9 __c.22
C:\DOKUME~1\Olaf\LOKALE~1\Temp/ccwTaaaa.s:507    .progmem.data:000002f9 __c.23
C:\DOKUME~1\Olaf\LOKALE~1\Temp/ccwTaaaa.s:511    .progmem.data:0000030c __c.24
C:\DOKUME~1\Olaf\LOKALE~1\Temp/ccwTaaaa.s:515    .progmem.data:00000345 __c.25
C:\DOKUME~1\Olaf\LOKALE~1\Temp/ccwTaaaa.s:519    .progmem.data:00000358 __c.26
C:\DOKUME~1\Olaf\LOKALE~1\Temp/ccwTaaaa.s:523    .progmem.data:00000395 __c.27
C:\DOKUME~1\Olaf\LOKALE~1\Temp/ccwTaaaa.s:527    .progmem.data:000003d6 __c.28
C:\DOKUME~1\Olaf\LOKALE~1\Temp/ccwTaaaa.s:531    .progmem.data:00000411 __c.29
C:\DOKUME~1\Olaf\LOKALE~1\Temp/ccwTaaaa.s:535    .progmem.data:0000043a __c.30
C:\DOKUME~1\Olaf\LOKALE~1\Temp/ccwTaaaa.s:539    .progmem.data:0000043c __c.31
C:\DOKUME~1\Olaf\LOKALE~1\Temp/ccwTaaaa.s:544    .text:00000216 command_prompt

UNDEFINED SYMBOLS
__do_copy_data
__do_clear_bss
strcmp
uart_getc
uart_putc
uart_puts_p
uart_puts
uart_puti
uart_printtime
