   1               		.file	"lcd.c"
   2               		.arch atmega644
   3               	__SREG__ = 0x3f
   4               	__SP_H__ = 0x3e
   5               	__SP_L__ = 0x3d
   6               	__tmp_reg__ = 0
   7               	__zero_reg__ = 1
   8               		.global __do_copy_data
   9               		.global __do_clear_bss
  17               	.Ltext0:
  19               	toggle_e:
  20               	.LFB3:
  21               	.LM1:
  22               	/* prologue: frame size=0 */
  23               	/* prologue end (size=0) */
  24               	.LM2:
  25 0000 88B1      		in r24,40-0x20
  26 0002 21E0      		ldi r18,lo8(1)
  27 0004 30E0      		ldi r19,hi8(1)
  28 0006 0090 0000 		lds r0,active_e
  29 000a 00C0      		rjmp 2f
  30 000c 220F      	1:	lsl r18
  31 000e 331F      		rol r19
  32 0010 0A94      	2:	dec r0
  33 0012 02F4      		brpl 1b
  34 0014 822B      		or r24,r18
  35 0016 88B9      		out 40-0x20,r24
  36               	.LM3:
  37               	/* #APP */
  38 0018 00C0      		rjmp 1f
  39               	 1:
  40               	.LM4:
  41               	/* #NOAPP */
  42 001a 88B1      		in r24,40-0x20
  43 001c 2095      		com r18
  44 001e 8223      		and r24,r18
  45 0020 88B9      		out 40-0x20,r24
  46               	/* epilogue: frame size=0 */
  47 0022 0895      		ret
  48               	/* epilogue end (size=1) */
  49               	/* function toggle_e size 21 (20) */
  50               	.LFE3:
  53               	lcd_write:
  54               	.LFB4:
  55               	.LM5:
  56               	/* prologue: frame size=0 */
  57 0024 1F93      		push r17
  58               	/* prologue end (size=1) */
  59               	.LVL0:
  60 0026 182F      		mov r17,r24
  61               	.LM6:
  62 0028 6623      		tst r22
  63 002a 01F0      		breq .L4
  64               	.LVL1:
  65               	.LM7:
  66 002c 409A      		sbi 40-0x20,0
  67 002e 00C0      		rjmp .L6
  68               	.L4:
  69               	.LM8:
  70 0030 4098      		cbi 40-0x20,0
  71               	.L6:
  72               	.LM9:
  73 0032 4198      		cbi 40-0x20,1
  74               	.LM10:
  75 0034 87B1      		in r24,39-0x20
  76 0036 806F      		ori r24,lo8(-16)
  77 0038 87B9      		out 39-0x20,r24
  78               	.LM11:
  79 003a 88B1      		in r24,40-0x20
  80 003c 8F70      		andi r24,lo8(15)
  81 003e 912F      		mov r25,r17
  82 0040 907F      		andi r25,lo8(-16)
  83 0042 892B      		or r24,r25
  84 0044 88B9      		out 40-0x20,r24
  85               	.LM12:
  86 0046 0E94 0000 		call toggle_e
  87               	.LVL2:
  88               	.LM13:
  89 004a 88B1      		in r24,40-0x20
  90 004c 8F70      		andi r24,lo8(15)
  91 004e 1295      		swap r17
  92 0050 107F      		andi r17,0xf0
  93 0052 812B      		or r24,r17
  94 0054 88B9      		out 40-0x20,r24
  95               	.LM14:
  96 0056 0E94 0000 		call toggle_e
  97               	.LM15:
  98 005a 88B1      		in r24,40-0x20
  99 005c 8F70      		andi r24,lo8(15)
 100 005e 806F      		ori r24,lo8(-16)
 101 0060 88B9      		out 40-0x20,r24
 102               	/* epilogue: frame size=0 */
 103 0062 1F91      		pop r17
 104 0064 0895      		ret
 105               	/* epilogue end (size=2) */
 106               	/* function lcd_write size 33 (30) */
 107               	.LFE4:
 110               	lcd_read:
 111               	.LFB5:
 112               	.LM16:
 113               	/* prologue: frame size=0 */
 114               	/* prologue end (size=0) */
 115               	.LVL3:
 116               	.LM17:
 117 0066 8823      		tst r24
 118 0068 01F0      		breq .L9
 119               	.LM18:
 120 006a 409A      		sbi 40-0x20,0
 121 006c 00C0      		rjmp .L11
 122               	.L9:
 123               	.LM19:
 124 006e 4098      		cbi 40-0x20,0
 125               	.L11:
 126               	.LM20:
 127 0070 419A      		sbi 40-0x20,1
 128               	.LM21:
 129 0072 87B1      		in r24,39-0x20
 130               	.LVL4:
 131 0074 8F70      		andi r24,lo8(15)
 132 0076 87B9      		out 39-0x20,r24
 133               	.LM22:
 134 0078 88B1      		in r24,40-0x20
 135 007a 21E0      		ldi r18,lo8(1)
 136 007c 30E0      		ldi r19,hi8(1)
 137 007e 0090 0000 		lds r0,active_e
 138 0082 00C0      		rjmp 2f
 139 0084 220F      	1:	lsl r18
 140 0086 331F      		rol r19
 141 0088 0A94      	2:	dec r0
 142 008a 02F4      		brpl 1b
 143 008c 822B      		or r24,r18
 144 008e 88B9      		out 40-0x20,r24
 145               	.LM23:
 146               	/* #APP */
 147 0090 00C0      		rjmp 1f
 148               	 1:
 149               	.LM24:
 150               	/* #NOAPP */
 151 0092 86B1      		in r24,38-0x20
 152               	.LM25:
 153 0094 98B1      		in r25,40-0x20
 154 0096 422F      		mov r20,r18
 155 0098 4095      		com r20
 156 009a 9423      		and r25,r20
 157 009c 98B9      		out 40-0x20,r25
 158               	.LM26:
 159               	/* #APP */
 160 009e 00C0      		rjmp 1f
 161               	 1:
 162               	.LM27:
 163               	/* #NOAPP */
 164 00a0 98B1      		in r25,40-0x20
 165 00a2 922B      		or r25,r18
 166 00a4 98B9      		out 40-0x20,r25
 167               	.LM28:
 168               	/* #APP */
 169 00a6 00C0      		rjmp 1f
 170               	 1:
 171               	.LM29:
 172               	/* #NOAPP */
 173 00a8 26B1      		in r18,38-0x20
 174               	.LM30:
 175 00aa 98B1      		in r25,40-0x20
 176 00ac 9423      		and r25,r20
 177 00ae 98B9      		out 40-0x20,r25
 178 00b0 807F      		andi r24,lo8(-16)
 179 00b2 2295      		swap r18
 180 00b4 2F70      		andi r18,0x0f
 181 00b6 822B      		or r24,r18
 182               	.LM31:
 183 00b8 9927      		clr r25
 184               	/* epilogue: frame size=0 */
 185 00ba 0895      		ret
 186               	/* epilogue end (size=1) */
 187               	/* function lcd_read size 52 (51) */
 188               	.LFE5:
 191               	lcd_waitbusy:
 192               	.LFB6:
 193               	.LM32:
 194               	/* prologue: frame size=0 */
 195               	/* prologue end (size=0) */
 196               	.L15:
 197               	.LM33:
 198 00bc 80E0      		ldi r24,lo8(0)
 199 00be 0E94 0000 		call lcd_read
 200 00c2 87FD      		sbrc r24,7
 201 00c4 00C0      		rjmp .L15
 202               	.LBB12:
 203               	.LBB13:
 204               	.LM34:
 205               	/* #APP */
 206 00c6 00C0      		rjmp 1f
 207               	 1:
 208               	/* #NOAPP */
 209               	.LBE13:
 210               	.LBE12:
 211               	.LM35:
 212 00c8 80E0      		ldi r24,lo8(0)
 213 00ca 0E94 0000 		call lcd_read
 214               	.LM36:
 215 00ce 9927      		clr r25
 216               	/* epilogue: frame size=0 */
 217 00d0 0895      		ret
 218               	/* epilogue end (size=1) */
 219               	/* function lcd_waitbusy size 14 (13) */
 220               	.LFE6:
 222               	.global	lcd_command
 224               	lcd_command:
 225               	.LFB8:
 226               	.LM37:
 227               	/* prologue: frame size=0 */
 228 00d2 1F93      		push r17
 229               	/* prologue end (size=1) */
 230               	.LVL5:
 231 00d4 182F      		mov r17,r24
 232               	.LM38:
 233 00d6 0E94 0000 		call lcd_waitbusy
 234               	.LVL6:
 235               	.LM39:
 236 00da 60E0      		ldi r22,lo8(0)
 237 00dc 812F      		mov r24,r17
 238 00de 0E94 0000 		call lcd_write
 239               	/* epilogue: frame size=0 */
 240 00e2 1F91      		pop r17
 241 00e4 0895      		ret
 242               	/* epilogue end (size=2) */
 243               	/* function lcd_command size 10 (7) */
 244               	.LFE8:
 246               	.global	lcd_gotoxy
 248               	lcd_gotoxy:
 249               	.LFB9:
 250               	.LM40:
 251               	/* prologue: frame size=0 */
 252               	/* prologue end (size=0) */
 253               	.LVL7:
 254 00e6 982F      		mov r25,r24
 255               	.LM41:
 256 00e8 6230      		cpi r22,lo8(2)
 257 00ea 00F0      		brlo .L23
 258               	.LVL8:
 259               	.LM42:
 260 00ec 83E0      		ldi r24,lo8(3)
 261 00ee 8093 0000 		sts active_e,r24
 262               	.LM43:
 263 00f2 6250      		subi r22,lo8(-(-2))
 264 00f4 00C0      		rjmp .L25
 265               	.LVL9:
 266               	.L23:
 267               	.LM44:
 268 00f6 82E0      		ldi r24,lo8(2)
 269 00f8 8093 0000 		sts active_e,r24
 270               	.L25:
 271               	.LM45:
 272 00fc 6295      		swap r22
 273 00fe 660F      		lsl r22
 274 0100 660F      		lsl r22
 275 0102 607C      		andi r22,0xc0
 276 0104 9058      		subi r25,lo8(-(-128))
 277 0106 862F      		mov r24,r22
 278 0108 890F      		add r24,r25
 279 010a 0E94 0000 		call lcd_command
 280               	.LVL10:
 281               	/* epilogue: frame size=0 */
 282 010e 0895      		ret
 283               	/* epilogue end (size=1) */
 284               	/* function lcd_gotoxy size 21 (20) */
 285               	.LFE9:
 287               	.global	lcd_putc
 289               	lcd_putc:
 290               	.LFB10:
 291               	.LM46:
 292               	/* prologue: frame size=0 */
 293 0110 1F93      		push r17
 294               	/* prologue end (size=1) */
 295               	.LVL11:
 296 0112 182F      		mov r17,r24
 297               	.LM47:
 298 0114 0E94 0000 		call lcd_waitbusy
 299               	.LVL12:
 300               	.LM48:
 301 0118 1A30      		cpi r17,lo8(10)
 302 011a 01F4      		brne .L28
 303               	.LVL13:
 304               	.LBB16:
 305               	.LBB17:
 306               	.LM49:
 307 011c 8B31      		cpi r24,lo8(27)
 308 011e 00F4      		brsh .L30
 309 0120 80E4      		ldi r24,lo8(64)
 310               	.LVL14:
 311 0122 00C0      		rjmp .L32
 312               	.LVL15:
 313               	.L30:
 314               	.LM50:
 315 0124 8091 0000 		lds r24,active_e
 316               	.LVL16:
 317 0128 8330      		cpi r24,lo8(3)
 318 012a 01F4      		brne .L33
 319               	.LM51:
 320 012c 82E0      		ldi r24,lo8(2)
 321 012e 00C0      		rjmp .L44
 322               	.L33:
 323               	.LM52:
 324 0130 83E0      		ldi r24,lo8(3)
 325               	.L44:
 326 0132 8093 0000 		sts active_e,r24
 327 0136 80E0      		ldi r24,lo8(0)
 328               	.LVL17:
 329               	.L32:
 330               	.LM53:
 331 0138 8058      		subi r24,lo8(-(-128))
 332               	.LVL18:
 333 013a 0E94 0000 		call lcd_command
 334 013e 00C0      		rjmp .L43
 335               	.L28:
 336               	.LVL19:
 337               	.LBE17:
 338               	.LBE16:
 339               	.LM54:
 340 0140 8B31      		cpi r24,lo8(27)
 341 0142 01F4      		brne .L36
 342               	.LM55:
 343 0144 60E0      		ldi r22,lo8(0)
 344 0146 80EC      		ldi r24,lo8(-64)
 345               	.LVL20:
 346 0148 00C0      		rjmp .L46
 347               	.LVL21:
 348               	.L36:
 349               	.LM56:
 350 014a 8B35      		cpi r24,lo8(91)
 351 014c 01F4      		brne .L38
 352               	.LM57:
 353 014e 8091 0000 		lds r24,active_e
 354               	.LVL22:
 355 0152 8330      		cpi r24,lo8(3)
 356 0154 01F4      		brne .L40
 357               	.LM58:
 358 0156 82E0      		ldi r24,lo8(2)
 359 0158 00C0      		rjmp .L45
 360               	.L40:
 361               	.LM59:
 362 015a 83E0      		ldi r24,lo8(3)
 363               	.L45:
 364 015c 8093 0000 		sts active_e,r24
 365               	.LM60:
 366 0160 60E0      		ldi r22,lo8(0)
 367 0162 80E8      		ldi r24,lo8(-128)
 368               	.L46:
 369 0164 0E94 0000 		call lcd_write
 370               	.LVL23:
 371               	.L38:
 372               	.LM61:
 373 0168 0E94 0000 		call lcd_waitbusy
 374               	.LVL24:
 375               	.LM62:
 376 016c 61E0      		ldi r22,lo8(1)
 377 016e 812F      		mov r24,r17
 378 0170 0E94 0000 		call lcd_write
 379               	.L43:
 380               	/* epilogue: frame size=0 */
 381 0174 1F91      		pop r17
 382 0176 0895      		ret
 383               	/* epilogue end (size=2) */
 384               	/* function lcd_putc size 52 (49) */
 385               	.LFE10:
 387               	.global	lcd_puts
 389               	lcd_puts:
 390               	.LFB11:
 391               	.LM63:
 392               	/* prologue: frame size=0 */
 393 0178 CF93      		push r28
 394 017a DF93      		push r29
 395               	/* prologue end (size=2) */
 396               	.LVL25:
 397 017c EC01      		movw r28,r24
 398 017e 00C0      		rjmp .L48
 399               	.LVL26:
 400               	.L49:
 401               	.LM64:
 402 0180 0E94 0000 		call lcd_putc
 403               	.LVL27:
 404               	.L48:
 405               	.LM65:
 406 0184 8991      		ld r24,Y+
 407               	.LVL28:
 408 0186 8823      		tst r24
 409 0188 01F4      		brne .L49
 410               	/* epilogue: frame size=0 */
 411 018a DF91      		pop r29
 412 018c CF91      		pop r28
 413 018e 0895      		ret
 414               	/* epilogue end (size=3) */
 415               	/* function lcd_puts size 12 (7) */
 416               	.LFE11:
 418               	.global	lcd_puts_P
 420               	lcd_puts_P:
 421               	.LFB12:
 422               	.LM66:
 423               	/* prologue: frame size=0 */
 424 0190 CF93      		push r28
 425 0192 DF93      		push r29
 426               	/* prologue end (size=2) */
 427               	.LVL29:
 428 0194 EC01      		movw r28,r24
 429 0196 00C0      		rjmp .L53
 430               	.LVL30:
 431               	.L54:
 432               	.LM67:
 433 0198 0E94 0000 		call lcd_putc
 434               	.LVL31:
 435               	.L53:
 436 019c FE01      		movw r30,r28
 437               	.LVL32:
 438               	.LBB18:
 439               	.LM68:
 440 019e 2196      		adiw r28,1
 441               	/* #APP */
 442 01a0 8491      		lpm r24, Z
 443               		
 444               	.LVL33:
 445               	/* #NOAPP */
 446               	.LBE18:
 447 01a2 8823      		tst r24
 448 01a4 01F4      		brne .L54
 449               	/* epilogue: frame size=0 */
 450 01a6 DF91      		pop r29
 451 01a8 CF91      		pop r28
 452 01aa 0895      		ret
 453               	/* epilogue end (size=3) */
 454               	/* function lcd_puts_P size 17 (12) */
 455               	.LFE12:
 457               	.global	lcd_clrscr
 459               	lcd_clrscr:
 460               	.LFB13:
 461               	.LM69:
 462               	/* prologue: frame size=0 */
 463               	/* prologue end (size=0) */
 464               	.LM70:
 465 01ac 82E0      		ldi r24,lo8(2)
 466 01ae 8093 0000 		sts active_e,r24
 467               	.LM71:
 468 01b2 81E0      		ldi r24,lo8(1)
 469 01b4 0E94 0000 		call lcd_command
 470               	.LM72:
 471 01b8 83E0      		ldi r24,lo8(3)
 472 01ba 8093 0000 		sts active_e,r24
 473               	.LM73:
 474 01be 81E0      		ldi r24,lo8(1)
 475 01c0 0E94 0000 		call lcd_command
 476               	/* epilogue: frame size=0 */
 477 01c4 0895      		ret
 478               	/* epilogue end (size=1) */
 479               	/* function lcd_clrscr size 13 (12) */
 480               	.LFE13:
 482               	.global	init_controller
 484               	init_controller:
 485               	.LFB14:
 486               	.LM74:
 487               	/* prologue: frame size=0 */
 488 01c6 FF92      		push r15
 489 01c8 0F93      		push r16
 490 01ca 1F93      		push r17
 491               	/* prologue end (size=3) */
 492               	.LVL34:
 493 01cc F82E      		mov r15,r24
 494               	.LM75:
 495 01ce 88B1      		in r24,40-0x20
 496               	.LVL35:
 497 01d0 8F70      		andi r24,lo8(15)
 498 01d2 8063      		ori r24,lo8(48)
 499 01d4 88B9      		out 40-0x20,r24
 500               	.LM76:
 501 01d6 0E94 0000 		call toggle_e
 502               	.LBB19:
 503               	.LBB20:
 504               	.LM77:
 505 01da 80EE      		ldi r24,lo8(1248)
 506 01dc 94E0      		ldi r25,hi8(1248)
 507               	.LVL36:
 508               	/* #APP */
 509 01de 0197      		1: sbiw r24,1
 510 01e0 01F4      		brne 1b
 511               	/* #NOAPP */
 512               	.LBE20:
 513               	.LBE19:
 514               	.LM78:
 515 01e2 0E94 0000 		call toggle_e
 516               	.LVL37:
 517               	.LBB21:
 518               	.LBB22:
 519               	.LM79:
 520 01e6 00E1      		ldi r16,lo8(16)
 521 01e8 10E0      		ldi r17,hi8(16)
 522 01ea C801      		movw r24,r16
 523               	.LVL38:
 524               	/* #APP */
 525 01ec 0197      		1: sbiw r24,1
 526 01ee 01F4      		brne 1b
 527               	/* #NOAPP */
 528               	.LBE22:
 529               	.LBE21:
 530               	.LM80:
 531 01f0 0E94 0000 		call toggle_e
 532               	.LVL39:
 533               	.LBB23:
 534               	.LBB24:
 535               	.LM81:
 536 01f4 C801      		movw r24,r16
 537               	.LVL40:
 538               	/* #APP */
 539 01f6 0197      		1: sbiw r24,1
 540 01f8 01F4      		brne 1b
 541               	/* #NOAPP */
 542               	.LBE24:
 543               	.LBE23:
 544               	.LM82:
 545 01fa 88B1      		in r24,40-0x20
 546               	.LVL41:
 547 01fc 8F70      		andi r24,lo8(15)
 548 01fe 8062      		ori r24,lo8(32)
 549 0200 88B9      		out 40-0x20,r24
 550               	.LM83:
 551 0202 0E94 0000 		call toggle_e
 552               	.LBB25:
 553               	.LBB26:
 554               	.LM84:
 555 0206 C801      		movw r24,r16
 556               	/* #APP */
 557 0208 0197      		1: sbiw r24,1
 558 020a 01F4      		brne 1b
 559               	/* #NOAPP */
 560               	.LBE26:
 561               	.LBE25:
 562               	.LM85:
 563 020c 88E2      		ldi r24,lo8(40)
 564 020e 0E94 0000 		call lcd_command
 565               	.LM86:
 566 0212 88E0      		ldi r24,lo8(8)
 567 0214 0E94 0000 		call lcd_command
 568               	.LM87:
 569 0218 81E0      		ldi r24,lo8(1)
 570 021a 0E94 0000 		call lcd_command
 571               	.LM88:
 572 021e 86E0      		ldi r24,lo8(6)
 573 0220 0E94 0000 		call lcd_command
 574               	.LM89:
 575 0224 8F2D      		mov r24,r15
 576 0226 0E94 0000 		call lcd_command
 577               	/* epilogue: frame size=0 */
 578 022a 1F91      		pop r17
 579 022c 0F91      		pop r16
 580 022e FF90      		pop r15
 581 0230 0895      		ret
 582               	/* epilogue end (size=4) */
 583               	/* function init_controller size 62 (55) */
 584               	.LFE14:
 586               	.global	lcd_init
 588               	lcd_init:
 589               	.LFB15:
 590               	.LM90:
 591               	/* prologue: frame size=0 */
 592 0232 1F93      		push r17
 593               	/* prologue end (size=1) */
 594               	.LVL42:
 595 0234 182F      		mov r17,r24
 596               	.LM91:
 597 0236 87B1      		in r24,39-0x20
 598               	.LVL43:
 599 0238 806F      		ori r24,lo8(-16)
 600 023a 87B9      		out 39-0x20,r24
 601               	.LM92:
 602 023c 389A      		sbi 39-0x20,0
 603               	.LM93:
 604 023e 399A      		sbi 39-0x20,1
 605               	.LM94:
 606 0240 3B9A      		sbi 39-0x20,3
 607               	.LM95:
 608 0242 3A9A      		sbi 39-0x20,2
 609               	.LBB29:
 610               	.LBB30:
 611               	.LM96:
 612 0244 80EA      		ldi r24,lo8(4000)
 613 0246 9FE0      		ldi r25,hi8(4000)
 614               	.LVL44:
 615               	/* #APP */
 616 0248 0197      		1: sbiw r24,1
 617 024a 01F4      		brne 1b
 618               	/* #NOAPP */
 619               	.LBE30:
 620               	.LBE29:
 621               	.LM97:
 622 024c 83E0      		ldi r24,lo8(3)
 623               	.LVL45:
 624 024e 8093 0000 		sts active_e,r24
 625               	.LM98:
 626 0252 812F      		mov r24,r17
 627 0254 0E94 0000 		call init_controller
 628               	.LM99:
 629 0258 82E0      		ldi r24,lo8(2)
 630 025a 8093 0000 		sts active_e,r24
 631               	.LM100:
 632 025e 812F      		mov r24,r17
 633 0260 0E94 0000 		call init_controller
 634               	/* epilogue: frame size=0 */
 635 0264 1F91      		pop r17
 636 0266 0895      		ret
 637               	/* epilogue end (size=2) */
 638               	/* function lcd_init size 29 (26) */
 639               	.LFE15:
 641               		.comm active_e,1,1
 754               	.Letext0:
DEFINED SYMBOLS
                            *ABS*:00000000 lcd.c
C:\DOKUME~1\Olaf\LOKALE~1\Temp/ccXByoIS.s:3      *ABS*:0000003f __SREG__
C:\DOKUME~1\Olaf\LOKALE~1\Temp/ccXByoIS.s:4      *ABS*:0000003e __SP_H__
C:\DOKUME~1\Olaf\LOKALE~1\Temp/ccXByoIS.s:5      *ABS*:0000003d __SP_L__
C:\DOKUME~1\Olaf\LOKALE~1\Temp/ccXByoIS.s:6      *ABS*:00000000 __tmp_reg__
C:\DOKUME~1\Olaf\LOKALE~1\Temp/ccXByoIS.s:7      *ABS*:00000001 __zero_reg__
C:\DOKUME~1\Olaf\LOKALE~1\Temp/ccXByoIS.s:19     .text:00000000 toggle_e
                            *COM*:00000001 active_e
C:\DOKUME~1\Olaf\LOKALE~1\Temp/ccXByoIS.s:53     .text:00000024 lcd_write
C:\DOKUME~1\Olaf\LOKALE~1\Temp/ccXByoIS.s:110    .text:00000066 lcd_read
C:\DOKUME~1\Olaf\LOKALE~1\Temp/ccXByoIS.s:191    .text:000000bc lcd_waitbusy
C:\DOKUME~1\Olaf\LOKALE~1\Temp/ccXByoIS.s:224    .text:000000d2 lcd_command
C:\DOKUME~1\Olaf\LOKALE~1\Temp/ccXByoIS.s:248    .text:000000e6 lcd_gotoxy
C:\DOKUME~1\Olaf\LOKALE~1\Temp/ccXByoIS.s:289    .text:00000110 lcd_putc
C:\DOKUME~1\Olaf\LOKALE~1\Temp/ccXByoIS.s:389    .text:00000178 lcd_puts
C:\DOKUME~1\Olaf\LOKALE~1\Temp/ccXByoIS.s:420    .text:00000190 lcd_puts_P
C:\DOKUME~1\Olaf\LOKALE~1\Temp/ccXByoIS.s:459    .text:000001ac lcd_clrscr
C:\DOKUME~1\Olaf\LOKALE~1\Temp/ccXByoIS.s:484    .text:000001c6 init_controller
C:\DOKUME~1\Olaf\LOKALE~1\Temp/ccXByoIS.s:588    .text:00000232 lcd_init

UNDEFINED SYMBOLS
__do_copy_data
__do_clear_bss
