   1               		.file	"pcc.c"
   2               	__SREG__ = 0x3f
   3               	__SP_H__ = 0x3e
   4               	__SP_L__ = 0x3d
   5               	__tmp_reg__ = 0
   6               	__zero_reg__ = 1
   7               		.global __do_copy_data
   8               		.global __do_clear_bss
  16               	.Ltext0:
  17               	.global	pcc_reset
  19               	pcc_reset:
  20               	.LFB7:
  21               	.LM1:
  22               	/* prologue: frame size=0 */
  23               	/* prologue end (size=0) */
  24               	.LM2:
  25 0000 1092 0000 		sts header,__zero_reg__
  26               	.LM3:
  27 0004 1092 0000 		sts receivedMessage,__zero_reg__
  28               	.LM4:
  29 0008 1092 0000 		sts transmitMessage,__zero_reg__
  30               	.LBB4:
  31               	.LM5:
  32 000c 1092 0000 		sts receivedMessage+1,__zero_reg__
  33               	.LM6:
  34 0010 1092 0000 		sts transmitMessage+1,__zero_reg__
  35               	.LM7:
  36 0014 1092 0000 		sts receivedMessage+2,__zero_reg__
  37               	.LM8:
  38 0018 1092 0000 		sts transmitMessage+2,__zero_reg__
  39               	.LM9:
  40 001c 1092 0000 		sts receivedMessage+3,__zero_reg__
  41               	.LM10:
  42 0020 1092 0000 		sts transmitMessage+3,__zero_reg__
  43               	.LM11:
  44 0024 1092 0000 		sts receivedMessage+4,__zero_reg__
  45               	.LM12:
  46 0028 1092 0000 		sts transmitMessage+4,__zero_reg__
  47               	.LM13:
  48 002c 1092 0000 		sts receivedMessage+5,__zero_reg__
  49               	.LM14:
  50 0030 1092 0000 		sts transmitMessage+5,__zero_reg__
  51               	.LM15:
  52 0034 1092 0000 		sts receivedMessage+6,__zero_reg__
  53               	.LM16:
  54 0038 1092 0000 		sts transmitMessage+6,__zero_reg__
  55               	.LM17:
  56 003c 1092 0000 		sts receivedMessage+7,__zero_reg__
  57               	.LM18:
  58 0040 1092 0000 		sts transmitMessage+7,__zero_reg__
  59               	.LM19:
  60 0044 1092 0000 		sts receivedMessage+8,__zero_reg__
  61               	.LM20:
  62 0048 1092 0000 		sts transmitMessage+8,__zero_reg__
  63               	.LBE4:
  64               	.LM21:
  65 004c 1092 0000 		sts empfangeneBytes,__zero_reg__
  66               	/* epilogue: frame size=0 */
  67 0050 0895      		ret
  68               	/* epilogue end (size=1) */
  69               	/* function pcc_reset size 41 (40) */
  70               	.LFE7:
  72               	.global	pcc_rx
  74               	pcc_rx:
  75               	.LFB8:
  76               	.LM22:
  77               	/* prologue: frame size=0 */
  78               	/* prologue end (size=0) */
  79               	.LVL0:
  80 0052 682F      		mov r22,r24
  81               	.LM23:
  82 0054 8091 0000 		lds r24,sm_rx
  83               	.LVL1:
  84 0058 8150      		subi r24,lo8(-(-1))
  85 005a 8230      		cpi r24,lo8(2)
  86 005c 00F0      		brlo .L14
  87               	.LM24:
  88 005e 83E0      		ldi r24,lo8(3)
  89 0060 8093 0000 		sts sm_rx,r24
  90 0064 9091 0000 		lds r25,empfangeneBytes
  91 0068 00C0      		rjmp .L10
  92               	.L14:
  93               	.LM25:
  94 006a 82E0      		ldi r24,lo8(2)
  95 006c 8093 0000 		sts sm_rx,r24
  96               	.LM26:
  97 0070 9091 0000 		lds r25,empfangeneBytes
  98 0074 9923      		tst r25
  99 0076 01F0      		breq .L15
 100               	.LM27:
 101 0078 8091 0000 		lds r24,receivedMessage
 102 007c 8770      		andi r24,lo8(7)
 103 007e 282F      		mov r18,r24
 104 0080 30E0      		ldi r19,lo8(0)
 105 0082 492F      		mov r20,r25
 106 0084 50E0      		ldi r21,lo8(0)
 107 0086 2417      		cp r18,r20
 108 0088 3507      		cpc r19,r21
 109 008a 04F0      		brlt .L8
 110               	.LM28:
 111 008c FA01      		movw r30,r20
 112 008e E050      		subi r30,lo8(-(receivedMessage))
 113 0090 F040      		sbci r31,hi8(-(receivedMessage))
 114 0092 6083      		st Z,r22
 115               	.L8:
 116               	.LM29:
 117 0094 2417      		cp r18,r20
 118 0096 3507      		cpc r19,r21
 119 0098 01F4      		brne .L10
 120               	.LM30:
 121 009a 84E0      		ldi r24,lo8(4)
 122 009c 8093 0000 		sts sm_rx,r24
 123 00a0 00C0      		rjmp .L10
 124               	.L15:
 125               	.LM31:
 126 00a2 6093 0000 		sts receivedMessage,r22
 127 00a6 6770      		andi r22,lo8(7)
 128 00a8 262F      		mov r18,r22
 129 00aa 30E0      		ldi r19,lo8(0)
 130 00ac 40E0      		ldi r20,lo8(0)
 131 00ae 50E0      		ldi r21,hi8(0)
 132 00b0 00C0      		rjmp .L8
 133               	.L10:
 134               	.LM32:
 135 00b2 9F5F      		subi r25,lo8(-(1))
 136 00b4 9093 0000 		sts empfangeneBytes,r25
 137               	/* epilogue: frame size=0 */
 138 00b8 0895      		ret
 139               	/* epilogue end (size=1) */
 140               	/* function pcc_rx size 52 (51) */
 141               	.LFE8:
 143               		.data
 144               	.LC0:
 145 0000 7465 7374 		.string	"test"
 145      00
 146               		.text
 147               	.global	pcc_send
 149               	pcc_send:
 150               	.LFB10:
 151               	.LM33:
 152               	/* prologue: frame size=5 */
 153 00ba CF92      		push r12
 154 00bc DF92      		push r13
 155 00be EF92      		push r14
 156 00c0 FF92      		push r15
 157 00c2 1F93      		push r17
 158 00c4 CF93      		push r28
 159 00c6 DF93      		push r29
 160 00c8 CDB7      		in r28,__SP_L__
 161 00ca DEB7      		in r29,__SP_H__
 162 00cc 2597      		sbiw r28,5
 163 00ce 0FB6      		in __tmp_reg__,__SREG__
 164 00d0 F894      		cli
 165 00d2 DEBF      		out __SP_H__,r29
 166 00d4 0FBE      		out __SREG__,__tmp_reg__
 167 00d6 CDBF      		out __SP_L__,r28
 168               	/* prologue end (size=15) */
 169               	.LVL2:
 170 00d8 7C01      		movw r14,r24
 171               	.LM34:
 172 00da 6E01      		movw r12,r28
 173 00dc 0894      		sec
 174 00de C11C      		adc r12,__zero_reg__
 175 00e0 D11C      		adc r13,__zero_reg__
 176 00e2 D601      		movw r26,r12
 177 00e4 E0E0      		ldi r30,lo8(.LC0)
 178 00e6 F0E0      		ldi r31,hi8(.LC0)
 179 00e8 85E0      		ldi r24,lo8(5)
 180               	.LVL3:
 181               	.L17:
 182               	.LM35:
 183 00ea 0190      		ld r0,Z+
 184 00ec 0D92      		st X+,r0
 185 00ee 8150      		subi r24,lo8(-(-1))
 186 00f0 01F4      		brne .L17
 187 00f2 10E0      		ldi r17,lo8(0)
 188               	.LVL4:
 189               	.L18:
 190               	.LM36:
 191 00f4 65E0      		ldi r22,lo8(5)
 192 00f6 C601      		movw r24,r12
 193 00f8 0E94 0000 		call rf12_txdata
 194               	.LM37:
 195 00fc 1F5F      		subi r17,lo8(-(1))
 196               	.LM38:
 197 00fe 212F      		mov r18,r17
 198 0100 30E0      		ldi r19,lo8(0)
 199               	.LVL5:
 200 0102 F701      		movw r30,r14
 201 0104 8081      		ld r24,Z
 202 0106 8770      		andi r24,lo8(7)
 203 0108 90E0      		ldi r25,lo8(0)
 204 010a 0196      		adiw r24,1
 205 010c 2817      		cp r18,r24
 206 010e 3907      		cpc r19,r25
 207 0110 04F0      		brlt .L18
 208               	/* epilogue: frame size=5 */
 209 0112 2596      		adiw r28,5
 210 0114 0FB6      		in __tmp_reg__,__SREG__
 211 0116 F894      		cli
 212 0118 DEBF      		out __SP_H__,r29
 213 011a 0FBE      		out __SREG__,__tmp_reg__
 214 011c CDBF      		out __SP_L__,r28
 215 011e DF91      		pop r29
 216 0120 CF91      		pop r28
 217 0122 1F91      		pop r17
 218 0124 FF90      		pop r15
 219 0126 EF90      		pop r14
 220 0128 DF90      		pop r13
 221 012a CF90      		pop r12
 222 012c 0895      		ret
 223               	/* epilogue end (size=14) */
 224               	/* function pcc_send size 59 (30) */
 225               	.LFE10:
 227               	.global	pcc_init
 229               	pcc_init:
 230               	.LFB6:
 231               	.LM39:
 232               	/* prologue: frame size=0 */
 233               	/* prologue end (size=0) */
 234               	.LVL6:
 235               	.LM40:
 236 012e 9093 0000 		sts (ppcc)+1,r25
 237 0132 8093 0000 		sts ppcc,r24
 238               	.LM41:
 239 0136 81E0      		ldi r24,lo8(1)
 240               	.LVL7:
 241 0138 8093 0000 		sts sm_rx,r24
 242               	.LBB8:
 243               	.LBB9:
 244               	.LM42:
 245 013c 1092 0000 		sts header,__zero_reg__
 246               	.LM43:
 247 0140 1092 0000 		sts receivedMessage,__zero_reg__
 248               	.LM44:
 249 0144 1092 0000 		sts transmitMessage,__zero_reg__
 250               	.LBB10:
 251               	.LM45:
 252 0148 1092 0000 		sts receivedMessage+1,__zero_reg__
 253               	.LM46:
 254 014c 1092 0000 		sts transmitMessage+1,__zero_reg__
 255               	.LM47:
 256 0150 1092 0000 		sts receivedMessage+2,__zero_reg__
 257               	.LM48:
 258 0154 1092 0000 		sts transmitMessage+2,__zero_reg__
 259               	.LM49:
 260 0158 1092 0000 		sts receivedMessage+3,__zero_reg__
 261               	.LM50:
 262 015c 1092 0000 		sts transmitMessage+3,__zero_reg__
 263               	.LM51:
 264 0160 1092 0000 		sts receivedMessage+4,__zero_reg__
 265               	.LM52:
 266 0164 1092 0000 		sts transmitMessage+4,__zero_reg__
 267               	.LM53:
 268 0168 1092 0000 		sts receivedMessage+5,__zero_reg__
 269               	.LM54:
 270 016c 1092 0000 		sts transmitMessage+5,__zero_reg__
 271               	.LM55:
 272 0170 1092 0000 		sts receivedMessage+6,__zero_reg__
 273               	.LM56:
 274 0174 1092 0000 		sts transmitMessage+6,__zero_reg__
 275               	.LM57:
 276 0178 1092 0000 		sts receivedMessage+7,__zero_reg__
 277               	.LM58:
 278 017c 1092 0000 		sts transmitMessage+7,__zero_reg__
 279               	.LM59:
 280 0180 1092 0000 		sts receivedMessage+8,__zero_reg__
 281               	.LM60:
 282 0184 1092 0000 		sts transmitMessage+8,__zero_reg__
 283               	.LBE10:
 284               	.LM61:
 285 0188 1092 0000 		sts empfangeneBytes,__zero_reg__
 286               	.LBE9:
 287               	.LBE8:
 288               	/* epilogue: frame size=0 */
 289 018c 0895      		ret
 290               	/* epilogue end (size=1) */
 291               	/* function pcc_init size 48 (47) */
 292               	.LFE6:
 294               	.global	pcc_sendError
 296               	pcc_sendError:
 297               	.LFB11:
 298               	.LM62:
 299               	/* prologue: frame size=5 */
 300 018e EF92      		push r14
 301 0190 FF92      		push r15
 302 0192 1F93      		push r17
 303 0194 CF93      		push r28
 304 0196 DF93      		push r29
 305 0198 CDB7      		in r28,__SP_L__
 306 019a DEB7      		in r29,__SP_H__
 307 019c 2597      		sbiw r28,5
 308 019e 0FB6      		in __tmp_reg__,__SREG__
 309 01a0 F894      		cli
 310 01a2 DEBF      		out __SP_H__,r29
 311 01a4 0FBE      		out __SREG__,__tmp_reg__
 312 01a6 CDBF      		out __SP_L__,r28
 313               	/* prologue end (size=13) */
 314               	.LM63:
 315 01a8 1092 0000 		sts transmitMessage,__zero_reg__
 316               	.LBB13:
 317               	.LBB14:
 318               	.LM64:
 319 01ac 7E01      		movw r14,r28
 320 01ae 0894      		sec
 321 01b0 E11C      		adc r14,__zero_reg__
 322 01b2 F11C      		adc r15,__zero_reg__
 323 01b4 D701      		movw r26,r14
 324 01b6 E0E0      		ldi r30,lo8(.LC0)
 325 01b8 F0E0      		ldi r31,hi8(.LC0)
 326 01ba 85E0      		ldi r24,lo8(5)
 327               	.L28:
 328               	.LM65:
 329 01bc 0190      		ld r0,Z+
 330 01be 0D92      		st X+,r0
 331 01c0 8150      		subi r24,lo8(-(-1))
 332 01c2 01F4      		brne .L28
 333 01c4 10E0      		ldi r17,lo8(0)
 334               	.LVL8:
 335               	.L29:
 336               	.LM66:
 337 01c6 65E0      		ldi r22,lo8(5)
 338 01c8 C701      		movw r24,r14
 339 01ca 0E94 0000 		call rf12_txdata
 340               	.LM67:
 341 01ce 1F5F      		subi r17,lo8(-(1))
 342               	.LM68:
 343 01d0 212F      		mov r18,r17
 344 01d2 30E0      		ldi r19,lo8(0)
 345               	.LVL9:
 346 01d4 8091 0000 		lds r24,transmitMessage
 347 01d8 8770      		andi r24,lo8(7)
 348 01da 90E0      		ldi r25,lo8(0)
 349 01dc 0196      		adiw r24,1
 350 01de 2817      		cp r18,r24
 351 01e0 3907      		cpc r19,r25
 352 01e2 04F0      		brlt .L29
 353               	.LBE14:
 354               	.LBE13:
 355               	/* epilogue: frame size=5 */
 356 01e4 2596      		adiw r28,5
 357 01e6 0FB6      		in __tmp_reg__,__SREG__
 358 01e8 F894      		cli
 359 01ea DEBF      		out __SP_H__,r29
 360 01ec 0FBE      		out __SREG__,__tmp_reg__
 361 01ee CDBF      		out __SP_L__,r28
 362 01f0 DF91      		pop r29
 363 01f2 CF91      		pop r28
 364 01f4 1F91      		pop r17
 365 01f6 FF90      		pop r15
 366 01f8 EF90      		pop r14
 367 01fa 0895      		ret
 368               	/* epilogue end (size=12) */
 369               	/* function pcc_sendError size 56 (31) */
 370               	.LFE11:
 372               	.global	pcc
 374               	pcc:
 375               	.LFB9:
 376               	.LM69:
 377               	/* prologue: frame size=5 */
 378 01fc 1F93      		push r17
 379 01fe CF93      		push r28
 380 0200 DF93      		push r29
 381 0202 CDB7      		in r28,__SP_L__
 382 0204 DEB7      		in r29,__SP_H__
 383 0206 2597      		sbiw r28,5
 384 0208 0FB6      		in __tmp_reg__,__SREG__
 385 020a F894      		cli
 386 020c DEBF      		out __SP_H__,r29
 387 020e 0FBE      		out __SREG__,__tmp_reg__
 388 0210 CDBF      		out __SP_L__,r28
 389               	/* prologue end (size=11) */
 390               	.LM70:
 391 0212 8091 0000 		lds r24,sm_rx
 392 0216 8330      		cpi r24,lo8(3)
 393 0218 01F0      		breq .L38
 394               	.LM71:
 395 021a 8430      		cpi r24,lo8(4)
 396 021c 01F0      		breq .+2
 397 021e 00C0      		rjmp .L139
 398 0220 00C0      		rjmp .L222
 399               	.L38:
 400               	.LBB103:
 401               	.LBB104:
 402               	.LM72:
 403 0222 1092 0000 		sts transmitMessage,__zero_reg__
 404               	.LBB105:
 405               	.LBB106:
 406               	.LM73:
 407 0226 DE01      		movw r26,r28
 408 0228 1196      		adiw r26,1
 409 022a E0E0      		ldi r30,lo8(.LC0)
 410 022c F0E0      		ldi r31,hi8(.LC0)
 411 022e 85E0      		ldi r24,lo8(5)
 412               	.L40:
 413 0230 0190      		ld r0,Z+
 414 0232 0D92      		st X+,r0
 415 0234 8150      		subi r24,lo8(-(-1))
 416 0236 01F4      		brne .L40
 417 0238 10E0      		ldi r17,lo8(0)
 418               	.LVL10:
 419               	.L41:
 420               	.LM74:
 421 023a 65E0      		ldi r22,lo8(5)
 422 023c CE01      		movw r24,r28
 423 023e 0196      		adiw r24,1
 424 0240 0E94 0000 		call rf12_txdata
 425               	.LM75:
 426 0244 1F5F      		subi r17,lo8(-(1))
 427               	.LM76:
 428 0246 212F      		mov r18,r17
 429 0248 30E0      		ldi r19,lo8(0)
 430               	.LVL11:
 431 024a 8091 0000 		lds r24,transmitMessage
 432 024e 8770      		andi r24,lo8(7)
 433 0250 90E0      		ldi r25,lo8(0)
 434 0252 0196      		adiw r24,1
 435 0254 2817      		cp r18,r24
 436 0256 3907      		cpc r19,r25
 437 0258 04F0      		brlt .L41
 438               	.LVL12:
 439               	.L56:
 440               	.LBE106:
 441               	.LBE105:
 442               	.LBE104:
 443               	.LBE103:
 444               	.LBB107:
 445               	.LBB108:
 446               	.LM77:
 447 025a 1092 0000 		sts header,__zero_reg__
 448               	.LM78:
 449 025e 1092 0000 		sts receivedMessage,__zero_reg__
 450               	.LM79:
 451 0262 1092 0000 		sts transmitMessage,__zero_reg__
 452               	.LBB109:
 453               	.LM80:
 454 0266 1092 0000 		sts receivedMessage+1,__zero_reg__
 455               	.LM81:
 456 026a 1092 0000 		sts transmitMessage+1,__zero_reg__
 457               	.LM82:
 458 026e 1092 0000 		sts receivedMessage+2,__zero_reg__
 459               	.LM83:
 460 0272 1092 0000 		sts transmitMessage+2,__zero_reg__
 461               	.LM84:
 462 0276 1092 0000 		sts receivedMessage+3,__zero_reg__
 463               	.LM85:
 464 027a 1092 0000 		sts transmitMessage+3,__zero_reg__
 465               	.LM86:
 466 027e 1092 0000 		sts receivedMessage+4,__zero_reg__
 467               	.LM87:
 468 0282 1092 0000 		sts transmitMessage+4,__zero_reg__
 469               	.LM88:
 470 0286 1092 0000 		sts receivedMessage+5,__zero_reg__
 471               	.LM89:
 472 028a 1092 0000 		sts transmitMessage+5,__zero_reg__
 473               	.LM90:
 474 028e 1092 0000 		sts receivedMessage+6,__zero_reg__
 475               	.LM91:
 476 0292 1092 0000 		sts transmitMessage+6,__zero_reg__
 477               	.LM92:
 478 0296 1092 0000 		sts receivedMessage+7,__zero_reg__
 479               	.LM93:
 480 029a 1092 0000 		sts transmitMessage+7,__zero_reg__
 481               	.LM94:
 482 029e 1092 0000 		sts receivedMessage+8,__zero_reg__
 483               	.LM95:
 484 02a2 1092 0000 		sts transmitMessage+8,__zero_reg__
 485               	.LBE109:
 486               	.LM96:
 487 02a6 1092 0000 		sts empfangeneBytes,__zero_reg__
 488               	.LBE108:
 489               	.LBE107:
 490               	.LM97:
 491 02aa 81E0      		ldi r24,lo8(1)
 492 02ac 8093 0000 		sts sm_rx,r24
 493 02b0 00C0      		rjmp .L139
 494               	.LVL13:
 495               	.L222:
 496               	.LM98:
 497 02b2 9091 0000 		lds r25,receivedMessage
 498 02b6 892F      		mov r24,r25
 499 02b8 8695      		lsr r24
 500 02ba 8695      		lsr r24
 501 02bc 8695      		lsr r24
 502 02be E82F      		mov r30,r24
 503 02c0 F0E0      		ldi r31,lo8(0)
 504 02c2 E032      		cpi r30,32
 505 02c4 F105      		cpc r31,__zero_reg__
 506 02c6 00F0      		brlo .L217
 507               	.L43:
 508               	.LBB110:
 509               	.LBB111:
 510               	.LM99:
 511 02c8 1092 0000 		sts transmitMessage,__zero_reg__
 512               	.LBB112:
 513               	.LBB113:
 514               	.LM100:
 515 02cc DE01      		movw r26,r28
 516 02ce 1196      		adiw r26,1
 517 02d0 E0E0      		ldi r30,lo8(.LC0)
 518 02d2 F0E0      		ldi r31,hi8(.LC0)
 519 02d4 85E0      		ldi r24,lo8(5)
 520               	.L137:
 521 02d6 0190      		ld r0,Z+
 522 02d8 0D92      		st X+,r0
 523 02da 8150      		subi r24,lo8(-(-1))
 524 02dc 01F4      		brne .L137
 525 02de 10E0      		ldi r17,lo8(0)
 526               	.LVL14:
 527               	.L138:
 528               	.LM101:
 529 02e0 65E0      		ldi r22,lo8(5)
 530 02e2 CE01      		movw r24,r28
 531 02e4 0196      		adiw r24,1
 532 02e6 0E94 0000 		call rf12_txdata
 533               	.LM102:
 534 02ea 1F5F      		subi r17,lo8(-(1))
 535               	.LM103:
 536 02ec 212F      		mov r18,r17
 537 02ee 30E0      		ldi r19,lo8(0)
 538               	.LVL15:
 539 02f0 8091 0000 		lds r24,transmitMessage
 540 02f4 8770      		andi r24,lo8(7)
 541 02f6 90E0      		ldi r25,lo8(0)
 542 02f8 0196      		adiw r24,1
 543 02fa 2817      		cp r18,r24
 544 02fc 3907      		cpc r19,r25
 545 02fe 04F0      		brlt .L138
 546               	.LVL16:
 547 0300 00C0      		rjmp .L56
 548               	.LVL17:
 549               	.L217:
 550               	.LBE113:
 551               	.LBE112:
 552               	.LBE111:
 553               	.LBE110:
 554               	.LM104:
 555 0302 E050      		subi r30,lo8(-(gs(.L57)))
****  Warning:expression dangerous with linker stubs
 556 0304 F040      		sbci r31,hi8(-(gs(.L57)))
****  Warning:expression dangerous with linker stubs
 557 0306 EE0F      		lsl r30
 558 0308 FF1F      		rol r31
 559 030a 0590      		lpm __tmp_reg__,Z+
 560 030c F491      		lpm r31,Z
 561 030e E02D      		mov r30,__tmp_reg__
 562 0310 0994      		ijmp
 563               		.data
 564               		.section .progmem.gcc_sw_table, "a", @progbits
 565               		.p2align 1
 566               	.L57:
 567               		.data
 568               		.section .progmem.gcc_sw_table, "a", @progbits
 569               		.p2align 1
 570 0000 0000      		.word gs(.L44)
 571 0002 0000      		.word gs(.L45)
 572 0004 0000      		.word gs(.L46)
 573 0006 0000      		.word gs(.L47)
 574 0008 0000      		.word gs(.L48)
 575 000a 0000      		.word gs(.L48)
 576 000c 0000      		.word gs(.L49)
 577 000e 0000      		.word gs(.L43)
 578 0010 0000      		.word gs(.L43)
 579 0012 0000      		.word gs(.L43)
 580 0014 0000      		.word gs(.L50)
 581 0016 0000      		.word gs(.L51)
 582 0018 0000      		.word gs(.L51)
 583 001a 0000      		.word gs(.L52)
 584 001c 0000      		.word gs(.L53)
 585 001e 0000      		.word gs(.L43)
 586 0020 0000      		.word gs(.L53)
 587 0022 0000      		.word gs(.L54)
 588 0024 0000      		.word gs(.L54)
 589 0026 0000      		.word gs(.L55)
 590 0028 0000      		.word gs(.L56)
 591 002a 0000      		.word gs(.L56)
 592 002c 0000      		.word gs(.L56)
 593 002e 0000      		.word gs(.L56)
 594 0030 0000      		.word gs(.L56)
 595 0032 0000      		.word gs(.L43)
 596 0034 0000      		.word gs(.L43)
 597 0036 0000      		.word gs(.L43)
 598 0038 0000      		.word gs(.L43)
 599 003a 0000      		.word gs(.L43)
 600 003c 0000      		.word gs(.L56)
 601 003e 0000      		.word gs(.L56)
 602               		.text
 603               	.L55:
 604               	.LM105:
 605 0312 9770      		andi r25,lo8(7)
 606 0314 01F0      		breq .+2
 607 0316 00C0      		rjmp .L131
 608               	.LM106:
 609 0318 8AE6      		ldi r24,lo8(106)
 610 031a 8093 0000 		sts transmitMessage,r24
 611               	.LM107:
 612 031e A091 0000 		lds r26,ppcc
 613 0322 B091 0000 		lds r27,(ppcc)+1
 614 0326 FD01      		movw r30,r26
 615 0328 8085      		ldd r24,Z+8
 616 032a 9185      		ldd r25,Z+9
 617 032c FC01      		movw r30,r24
 618 032e 8081      		ld r24,Z
 619 0330 9181      		ldd r25,Z+1
 620 0332 892F      		mov r24,r25
 621 0334 990F      		lsl r25
 622 0336 990B      		sbc r25,r25
 623 0338 8093 0000 		sts transmitMessage+1,r24
 624               	.LM108:
 625 033c FD01      		movw r30,r26
 626 033e A085      		ldd r26,Z+8
 627 0340 B185      		ldd r27,Z+9
 628 0342 8C91      		ld r24,X
 629 0344 8093 0000 		sts transmitMessage+2,r24
 630               	.LBB114:
 631               	.LBB115:
 632               	.LM109:
 633 0348 DE01      		movw r26,r28
 634 034a 1196      		adiw r26,1
 635 034c E0E0      		ldi r30,lo8(.LC0)
 636 034e F0E0      		ldi r31,hi8(.LC0)
 637 0350 85E0      		ldi r24,lo8(5)
 638               	.L133:
 639 0352 0190      		ld r0,Z+
 640 0354 0D92      		st X+,r0
 641 0356 8150      		subi r24,lo8(-(-1))
 642 0358 01F4      		brne .L133
 643 035a 10E0      		ldi r17,lo8(0)
 644               	.LVL18:
 645               	.L134:
 646               	.LM110:
 647 035c 65E0      		ldi r22,lo8(5)
 648 035e CE01      		movw r24,r28
 649 0360 0196      		adiw r24,1
 650 0362 0E94 0000 		call rf12_txdata
 651               	.LM111:
 652 0366 1F5F      		subi r17,lo8(-(1))
 653               	.LM112:
 654 0368 212F      		mov r18,r17
 655 036a 30E0      		ldi r19,lo8(0)
 656               	.LVL19:
 657 036c 8091 0000 		lds r24,transmitMessage
 658 0370 8770      		andi r24,lo8(7)
 659 0372 90E0      		ldi r25,lo8(0)
 660 0374 0196      		adiw r24,1
 661 0376 2817      		cp r18,r24
 662 0378 3907      		cpc r19,r25
 663 037a 04F0      		brlt .L134
 664               	.LVL20:
 665 037c 00C0      		rjmp .L56
 666               	.LVL21:
 667               	.L53:
 668               	.LBE115:
 669               	.LBE114:
 670               	.LM113:
 671 037e 9770      		andi r25,lo8(7)
 672 0380 01F0      		breq .+2
 673 0382 00C0      		rjmp .L119
 674               	.LM114:
 675 0384 82E8      		ldi r24,lo8(-126)
 676 0386 8093 0000 		sts transmitMessage,r24
 677               	.LM115:
 678 038a A091 0000 		lds r26,ppcc
 679 038e B091 0000 		lds r27,(ppcc)+1
 680 0392 FD01      		movw r30,r26
 681 0394 8481      		ldd r24,Z+4
 682 0396 9581      		ldd r25,Z+5
 683 0398 FC01      		movw r30,r24
 684 039a 8081      		ld r24,Z
 685 039c 9181      		ldd r25,Z+1
 686 039e 892F      		mov r24,r25
 687 03a0 990F      		lsl r25
 688 03a2 990B      		sbc r25,r25
 689 03a4 8093 0000 		sts transmitMessage+1,r24
 690               	.LM116:
 691 03a8 FD01      		movw r30,r26
 692 03aa A481      		ldd r26,Z+4
 693 03ac B581      		ldd r27,Z+5
 694 03ae 8C91      		ld r24,X
 695 03b0 8093 0000 		sts transmitMessage+2,r24
 696               	.LBB116:
 697               	.LBB117:
 698               	.LM117:
 699 03b4 DE01      		movw r26,r28
 700 03b6 1196      		adiw r26,1
 701 03b8 E0E0      		ldi r30,lo8(.LC0)
 702 03ba F0E0      		ldi r31,hi8(.LC0)
 703 03bc 85E0      		ldi r24,lo8(5)
 704               	.L121:
 705 03be 0190      		ld r0,Z+
 706 03c0 0D92      		st X+,r0
 707 03c2 8150      		subi r24,lo8(-(-1))
 708 03c4 01F4      		brne .L121
 709 03c6 10E0      		ldi r17,lo8(0)
 710               	.LVL22:
 711               	.L122:
 712               	.LM118:
 713 03c8 65E0      		ldi r22,lo8(5)
 714 03ca CE01      		movw r24,r28
 715 03cc 0196      		adiw r24,1
 716 03ce 0E94 0000 		call rf12_txdata
 717               	.LM119:
 718 03d2 1F5F      		subi r17,lo8(-(1))
 719               	.LM120:
 720 03d4 212F      		mov r18,r17
 721 03d6 30E0      		ldi r19,lo8(0)
 722               	.LVL23:
 723 03d8 8091 0000 		lds r24,transmitMessage
 724 03dc 8770      		andi r24,lo8(7)
 725 03de 90E0      		ldi r25,lo8(0)
 726 03e0 0196      		adiw r24,1
 727 03e2 2817      		cp r18,r24
 728 03e4 3907      		cpc r19,r25
 729 03e6 04F0      		brlt .L122
 730               	.LVL24:
 731 03e8 00C0      		rjmp .L56
 732               	.LVL25:
 733               	.L52:
 734               	.LBE117:
 735               	.LBE116:
 736               	.LM121:
 737 03ea 9770      		andi r25,lo8(7)
 738 03ec 01F0      		breq .+2
 739 03ee 00C0      		rjmp .L113
 740               	.LM122:
 741 03f0 8AE6      		ldi r24,lo8(106)
 742 03f2 8093 0000 		sts transmitMessage,r24
 743               	.LM123:
 744 03f6 A091 0000 		lds r26,ppcc
 745 03fa B091 0000 		lds r27,(ppcc)+1
 746 03fe FD01      		movw r30,r26
 747 0400 8681      		ldd r24,Z+6
 748 0402 9781      		ldd r25,Z+7
 749 0404 FC01      		movw r30,r24
 750 0406 8081      		ld r24,Z
 751 0408 9181      		ldd r25,Z+1
 752 040a 892F      		mov r24,r25
 753 040c 990F      		lsl r25
 754 040e 990B      		sbc r25,r25
 755 0410 8093 0000 		sts transmitMessage+1,r24
 756               	.LM124:
 757 0414 FD01      		movw r30,r26
 758 0416 A681      		ldd r26,Z+6
 759 0418 B781      		ldd r27,Z+7
 760 041a 8C91      		ld r24,X
 761 041c 8093 0000 		sts transmitMessage+2,r24
 762               	.LBB118:
 763               	.LBB119:
 764               	.LM125:
 765 0420 DE01      		movw r26,r28
 766 0422 1196      		adiw r26,1
 767 0424 E0E0      		ldi r30,lo8(.LC0)
 768 0426 F0E0      		ldi r31,hi8(.LC0)
 769 0428 85E0      		ldi r24,lo8(5)
 770               	.L115:
 771 042a 0190      		ld r0,Z+
 772 042c 0D92      		st X+,r0
 773 042e 8150      		subi r24,lo8(-(-1))
 774 0430 01F4      		brne .L115
 775 0432 10E0      		ldi r17,lo8(0)
 776               	.LVL26:
 777               	.L116:
 778               	.LM126:
 779 0434 65E0      		ldi r22,lo8(5)
 780 0436 CE01      		movw r24,r28
 781 0438 0196      		adiw r24,1
 782 043a 0E94 0000 		call rf12_txdata
 783               	.LM127:
 784 043e 1F5F      		subi r17,lo8(-(1))
 785               	.LM128:
 786 0440 212F      		mov r18,r17
 787 0442 30E0      		ldi r19,lo8(0)
 788               	.LVL27:
 789 0444 8091 0000 		lds r24,transmitMessage
 790 0448 8770      		andi r24,lo8(7)
 791 044a 90E0      		ldi r25,lo8(0)
 792 044c 0196      		adiw r24,1
 793 044e 2817      		cp r18,r24
 794 0450 3907      		cpc r19,r25
 795 0452 04F0      		brlt .L116
 796               	.LVL28:
 797 0454 00C0      		rjmp .L56
 798               	.LVL29:
 799               	.L54:
 800               	.LBE119:
 801               	.LBE118:
 802               	.LM129:
 803 0456 9770      		andi r25,lo8(7)
 804 0458 01F0      		breq .+2
 805 045a 00C0      		rjmp .L125
 806               	.LM130:
 807 045c 82E6      		ldi r24,lo8(98)
 808 045e 8093 0000 		sts transmitMessage,r24
 809               	.LM131:
 810 0462 A091 0000 		lds r26,ppcc
 811 0466 B091 0000 		lds r27,(ppcc)+1
 812 046a FD01      		movw r30,r26
 813 046c 8485      		ldd r24,Z+12
 814 046e 9585      		ldd r25,Z+13
 815 0470 FC01      		movw r30,r24
 816 0472 8081      		ld r24,Z
 817 0474 9181      		ldd r25,Z+1
 818 0476 892F      		mov r24,r25
 819 0478 990F      		lsl r25
 820 047a 990B      		sbc r25,r25
 821 047c 8093 0000 		sts transmitMessage+1,r24
 822               	.LM132:
 823 0480 FD01      		movw r30,r26
 824 0482 A485      		ldd r26,Z+12
 825 0484 B585      		ldd r27,Z+13
 826 0486 8C91      		ld r24,X
 827 0488 8093 0000 		sts transmitMessage+2,r24
 828               	.LBB120:
 829               	.LBB121:
 830               	.LM133:
 831 048c DE01      		movw r26,r28
 832 048e 1196      		adiw r26,1
 833 0490 E0E0      		ldi r30,lo8(.LC0)
 834 0492 F0E0      		ldi r31,hi8(.LC0)
 835 0494 85E0      		ldi r24,lo8(5)
 836               	.L127:
 837 0496 0190      		ld r0,Z+
 838 0498 0D92      		st X+,r0
 839 049a 8150      		subi r24,lo8(-(-1))
 840 049c 01F4      		brne .L127
 841 049e 10E0      		ldi r17,lo8(0)
 842               	.LVL30:
 843               	.L128:
 844               	.LM134:
 845 04a0 65E0      		ldi r22,lo8(5)
 846 04a2 CE01      		movw r24,r28
 847 04a4 0196      		adiw r24,1
 848 04a6 0E94 0000 		call rf12_txdata
 849               	.LM135:
 850 04aa 1F5F      		subi r17,lo8(-(1))
 851               	.LM136:
 852 04ac 212F      		mov r18,r17
 853 04ae 30E0      		ldi r19,lo8(0)
 854               	.LVL31:
 855 04b0 8091 0000 		lds r24,transmitMessage
 856 04b4 8770      		andi r24,lo8(7)
 857 04b6 90E0      		ldi r25,lo8(0)
 858 04b8 0196      		adiw r24,1
 859 04ba 2817      		cp r18,r24
 860 04bc 3907      		cpc r19,r25
 861 04be 04F0      		brlt .L128
 862               	.LVL32:
 863 04c0 00C0      		rjmp .L56
 864               	.LVL33:
 865               	.L51:
 866               	.LBE121:
 867               	.LBE120:
 868               	.LM137:
 869 04c2 9770      		andi r25,lo8(7)
 870 04c4 01F0      		breq .+2
 871 04c6 00C0      		rjmp .L107
 872               	.LM138:
 873 04c8 82E6      		ldi r24,lo8(98)
 874 04ca 8093 0000 		sts transmitMessage,r24
 875               	.LM139:
 876 04ce A091 0000 		lds r26,ppcc
 877 04d2 B091 0000 		lds r27,(ppcc)+1
 878 04d6 FD01      		movw r30,r26
 879 04d8 8285      		ldd r24,Z+10
 880 04da 9385      		ldd r25,Z+11
 881 04dc FC01      		movw r30,r24
 882 04de 8081      		ld r24,Z
 883 04e0 9181      		ldd r25,Z+1
 884 04e2 892F      		mov r24,r25
 885 04e4 990F      		lsl r25
 886 04e6 990B      		sbc r25,r25
 887 04e8 8093 0000 		sts transmitMessage+1,r24
 888               	.LM140:
 889 04ec FD01      		movw r30,r26
 890 04ee A285      		ldd r26,Z+10
 891 04f0 B385      		ldd r27,Z+11
 892 04f2 8C91      		ld r24,X
 893 04f4 8093 0000 		sts transmitMessage+2,r24
 894               	.LBB122:
 895               	.LBB123:
 896               	.LM141:
 897 04f8 DE01      		movw r26,r28
 898 04fa 1196      		adiw r26,1
 899 04fc E0E0      		ldi r30,lo8(.LC0)
 900 04fe F0E0      		ldi r31,hi8(.LC0)
 901 0500 85E0      		ldi r24,lo8(5)
 902               	.L109:
 903 0502 0190      		ld r0,Z+
 904 0504 0D92      		st X+,r0
 905 0506 8150      		subi r24,lo8(-(-1))
 906 0508 01F4      		brne .L109
 907 050a 10E0      		ldi r17,lo8(0)
 908               	.LVL34:
 909               	.L110:
 910               	.LM142:
 911 050c 65E0      		ldi r22,lo8(5)
 912 050e CE01      		movw r24,r28
 913 0510 0196      		adiw r24,1
 914 0512 0E94 0000 		call rf12_txdata
 915               	.LM143:
 916 0516 1F5F      		subi r17,lo8(-(1))
 917               	.LM144:
 918 0518 212F      		mov r18,r17
 919 051a 30E0      		ldi r19,lo8(0)
 920               	.LVL35:
 921 051c 8091 0000 		lds r24,transmitMessage
 922 0520 8770      		andi r24,lo8(7)
 923 0522 90E0      		ldi r25,lo8(0)
 924 0524 0196      		adiw r24,1
 925 0526 2817      		cp r18,r24
 926 0528 3907      		cpc r19,r25
 927 052a 04F0      		brlt .L110
 928               	.LVL36:
 929 052c 00C0      		rjmp .L56
 930               	.LVL37:
 931               	.L50:
 932               	.LBE123:
 933               	.LBE122:
 934               	.LM145:
 935 052e 9770      		andi r25,lo8(7)
 936 0530 01F0      		breq .+2
 937 0532 00C0      		rjmp .L101
 938               	.LM146:
 939 0534 82E5      		ldi r24,lo8(82)
 940 0536 8093 0000 		sts transmitMessage,r24
 941               	.LM147:
 942 053a A091 0000 		lds r26,ppcc
 943 053e B091 0000 		lds r27,(ppcc)+1
 944 0542 FD01      		movw r30,r26
 945 0544 8281      		ldd r24,Z+2
 946 0546 9381      		ldd r25,Z+3
 947 0548 FC01      		movw r30,r24
 948 054a 8081      		ld r24,Z
 949 054c 9181      		ldd r25,Z+1
 950 054e 892F      		mov r24,r25
 951 0550 990F      		lsl r25
 952 0552 990B      		sbc r25,r25
 953 0554 8093 0000 		sts transmitMessage+1,r24
 954               	.LM148:
 955 0558 FD01      		movw r30,r26
 956 055a A281      		ldd r26,Z+2
 957 055c B381      		ldd r27,Z+3
 958 055e 8C91      		ld r24,X
 959 0560 8093 0000 		sts transmitMessage+2,r24
 960               	.LBB124:
 961               	.LBB125:
 962               	.LM149:
 963 0564 DE01      		movw r26,r28
 964 0566 1196      		adiw r26,1
 965 0568 E0E0      		ldi r30,lo8(.LC0)
 966 056a F0E0      		ldi r31,hi8(.LC0)
 967 056c 85E0      		ldi r24,lo8(5)
 968               	.L103:
 969 056e 0190      		ld r0,Z+
 970 0570 0D92      		st X+,r0
 971 0572 8150      		subi r24,lo8(-(-1))
 972 0574 01F4      		brne .L103
 973 0576 10E0      		ldi r17,lo8(0)
 974               	.LVL38:
 975               	.L104:
 976               	.LM150:
 977 0578 65E0      		ldi r22,lo8(5)
 978 057a CE01      		movw r24,r28
 979 057c 0196      		adiw r24,1
 980 057e 0E94 0000 		call rf12_txdata
 981               	.LM151:
 982 0582 1F5F      		subi r17,lo8(-(1))
 983               	.LM152:
 984 0584 212F      		mov r18,r17
 985 0586 30E0      		ldi r19,lo8(0)
 986               	.LVL39:
 987 0588 8091 0000 		lds r24,transmitMessage
 988 058c 8770      		andi r24,lo8(7)
 989 058e 90E0      		ldi r25,lo8(0)
 990 0590 0196      		adiw r24,1
 991 0592 2817      		cp r18,r24
 992 0594 3907      		cpc r19,r25
 993 0596 04F0      		brlt .L104
 994               	.LVL40:
 995 0598 00C0      		rjmp .L56
 996               	.LVL41:
 997               	.L47:
 998               	.LBE125:
 999               	.LBE124:
 1000               	.LM153:
 1001 059a 9770      		andi r25,lo8(7)
 1002 059c 01F0      		breq .+2
 1003 059e 00C0      		rjmp .L85
 1004               	.LM154:
 1005 05a0 8AE1      		ldi r24,lo8(26)
 1006 05a2 8093 0000 		sts transmitMessage,r24
 1007               	.LM155:
 1008 05a6 8091 0000 		lds r24,batteryVoltage
 1009 05aa 9091 0000 		lds r25,(batteryVoltage)+1
 1010 05ae 892F      		mov r24,r25
 1011 05b0 9927      		clr r25
 1012 05b2 8093 0000 		sts transmitMessage+1,r24
 1013               	.LM156:
 1014 05b6 8091 0000 		lds r24,batteryVoltage
 1015 05ba 8093 0000 		sts transmitMessage+2,r24
 1016               	.LBB126:
 1017               	.LBB127:
 1018               	.LM157:
 1019 05be DE01      		movw r26,r28
 1020 05c0 1196      		adiw r26,1
 1021 05c2 E0E0      		ldi r30,lo8(.LC0)
 1022 05c4 F0E0      		ldi r31,hi8(.LC0)
 1023 05c6 85E0      		ldi r24,lo8(5)
 1024               	.L87:
 1025 05c8 0190      		ld r0,Z+
 1026 05ca 0D92      		st X+,r0
 1027 05cc 8150      		subi r24,lo8(-(-1))
 1028 05ce 01F4      		brne .L87
 1029 05d0 10E0      		ldi r17,lo8(0)
 1030               	.LVL42:
 1031               	.L88:
 1032               	.LM158:
 1033 05d2 65E0      		ldi r22,lo8(5)
 1034 05d4 CE01      		movw r24,r28
 1035 05d6 0196      		adiw r24,1
 1036 05d8 0E94 0000 		call rf12_txdata
 1037               	.LM159:
 1038 05dc 1F5F      		subi r17,lo8(-(1))
 1039               	.LM160:
 1040 05de 212F      		mov r18,r17
 1041 05e0 30E0      		ldi r19,lo8(0)
 1042               	.LVL43:
 1043 05e2 8091 0000 		lds r24,transmitMessage
 1044 05e6 8770      		andi r24,lo8(7)
 1045 05e8 90E0      		ldi r25,lo8(0)
 1046 05ea 0196      		adiw r24,1
 1047 05ec 2817      		cp r18,r24
 1048 05ee 3907      		cpc r19,r25
 1049 05f0 04F0      		brlt .L88
 1050               	.LVL44:
 1051 05f2 00C0      		rjmp .L56
 1052               	.LVL45:
 1053               	.L46:
 1054               	.LBE127:
 1055               	.LBE126:
 1056               	.LM161:
 1057 05f4 9770      		andi r25,lo8(7)
 1058 05f6 9330      		cpi r25,lo8(3)
 1059 05f8 01F4      		brne .+2
 1060 05fa 00C0      		rjmp .L218
 1061               	.LBB128:
 1062               	.LBB129:
 1063               	.LM162:
 1064 05fc 1092 0000 		sts transmitMessage,__zero_reg__
 1065               	.LBB130:
 1066               	.LBB131:
 1067               	.LM163:
 1068 0600 DE01      		movw r26,r28
 1069 0602 1196      		adiw r26,1
 1070 0604 E0E0      		ldi r30,lo8(.LC0)
 1071 0606 F0E0      		ldi r31,hi8(.LC0)
 1072 0608 85E0      		ldi r24,lo8(5)
 1073               	.L83:
 1074 060a 0190      		ld r0,Z+
 1075 060c 0D92      		st X+,r0
 1076 060e 8150      		subi r24,lo8(-(-1))
 1077 0610 01F4      		brne .L83
 1078 0612 10E0      		ldi r17,lo8(0)
 1079               	.LVL46:
 1080               	.L84:
 1081               	.LM164:
 1082 0614 65E0      		ldi r22,lo8(5)
 1083 0616 CE01      		movw r24,r28
 1084 0618 0196      		adiw r24,1
 1085 061a 0E94 0000 		call rf12_txdata
 1086               	.LM165:
 1087 061e 1F5F      		subi r17,lo8(-(1))
 1088               	.LM166:
 1089 0620 212F      		mov r18,r17
 1090 0622 30E0      		ldi r19,lo8(0)
 1091               	.LVL47:
 1092 0624 8091 0000 		lds r24,transmitMessage
 1093 0628 8770      		andi r24,lo8(7)
 1094 062a 90E0      		ldi r25,lo8(0)
 1095 062c 0196      		adiw r24,1
 1096 062e 2817      		cp r18,r24
 1097 0630 3907      		cpc r19,r25
 1098 0632 04F0      		brlt .L84
 1099               	.LVL48:
 1100 0634 00C0      		rjmp .L56
 1101               	.LVL49:
 1102               	.L49:
 1103               	.LBE131:
 1104               	.LBE130:
 1105               	.LBE129:
 1106               	.LBE128:
 1107               	.LM167:
 1108 0636 9770      		andi r25,lo8(7)
 1109 0638 01F0      		breq .+2
 1110 063a 00C0      		rjmp .L56
 1111               	.LM168:
 1112 063c E091 0000 		lds r30,ppcc
 1113 0640 F091 0000 		lds r31,(ppcc)+1
 1114 0644 A685      		ldd r26,Z+14
 1115 0646 B785      		ldd r27,Z+15
 1116               	.LVL50:
 1117 0648 1097      		sbiw r26,0
 1118 064a 01F4      		brne .+2
 1119 064c 00C0      		rjmp .L56
 1120               	.LBB132:
 1121               	.LM169:
 1122 064e 87E3      		ldi r24,lo8(55)
 1123 0650 8093 0000 		sts transmitMessage,r24
 1124               	.LM170:
 1125 0654 FD01      		movw r30,r26
 1126 0656 8191      		ld r24,Z+
 1127 0658 9F01      		movw r18,r30
 1128               	.LVL51:
 1129 065a 8093 0000 		sts transmitMessage+1,r24
 1130 065e FD01      		movw r30,r26
 1131 0660 8181      		ldd r24,Z+1
 1132 0662 8093 0000 		sts transmitMessage+2,r24
 1133               	.LM171:
 1134 0666 D901      		movw r26,r18
 1135 0668 1196      		adiw r26,1
 1136               	.LVL52:
 1137               	.LM172:
 1138 066a F901      		movw r30,r18
 1139 066c 8181      		ldd r24,Z+1
 1140 066e 8093 0000 		sts transmitMessage+3,r24
 1141               	.LM173:
 1142 0672 9D01      		movw r18,r26
 1143 0674 2F5F      		subi r18,lo8(-(1))
 1144 0676 3F4F      		sbci r19,hi8(-(1))
 1145               	.LVL53:
 1146               	.LM174:
 1147 0678 FD01      		movw r30,r26
 1148 067a 8181      		ldd r24,Z+1
 1149 067c 8093 0000 		sts transmitMessage+4,r24
 1150               	.LM175:
 1151 0680 D901      		movw r26,r18
 1152 0682 1196      		adiw r26,1
 1153               	.LVL54:
 1154               	.LM176:
 1155 0684 F901      		movw r30,r18
 1156 0686 8181      		ldd r24,Z+1
 1157 0688 8093 0000 		sts transmitMessage+5,r24
 1158 068c FD01      		movw r30,r26
 1159 068e 8181      		ldd r24,Z+1
 1160 0690 8093 0000 		sts transmitMessage+6,r24
 1161 0694 8281      		ldd r24,Z+2
 1162 0696 8093 0000 		sts transmitMessage+7,r24
 1163               	.LBB133:
 1164               	.LBB134:
 1165               	.LM177:
 1166 069a DE01      		movw r26,r28
 1167               	.LVL55:
 1168 069c 1196      		adiw r26,1
 1169 069e E0E0      		ldi r30,lo8(.LC0)
 1170 06a0 F0E0      		ldi r31,hi8(.LC0)
 1171 06a2 85E0      		ldi r24,lo8(5)
 1172               	.L99:
 1173 06a4 0190      		ld r0,Z+
 1174 06a6 0D92      		st X+,r0
 1175 06a8 8150      		subi r24,lo8(-(-1))
 1176 06aa 01F4      		brne .L99
 1177 06ac 10E0      		ldi r17,lo8(0)
 1178               	.LVL56:
 1179               	.L100:
 1180               	.LM178:
 1181 06ae 65E0      		ldi r22,lo8(5)
 1182 06b0 CE01      		movw r24,r28
 1183 06b2 0196      		adiw r24,1
 1184 06b4 0E94 0000 		call rf12_txdata
 1185               	.LVL57:
 1186               	.LM179:
 1187 06b8 1F5F      		subi r17,lo8(-(1))
 1188               	.LM180:
 1189 06ba 212F      		mov r18,r17
 1190 06bc 30E0      		ldi r19,lo8(0)
 1191               	.LVL58:
 1192 06be 8091 0000 		lds r24,transmitMessage
 1193 06c2 8770      		andi r24,lo8(7)
 1194 06c4 90E0      		ldi r25,lo8(0)
 1195 06c6 0196      		adiw r24,1
 1196 06c8 2817      		cp r18,r24
 1197 06ca 3907      		cpc r19,r25
 1198 06cc 04F0      		brlt .L100
 1199               	.LVL59:
 1200 06ce 00C0      		rjmp .L56
 1201               	.LVL60:
 1202               	.L48:
 1203               	.LBE134:
 1204               	.LBE133:
 1205               	.LBE132:
 1206               	.LM181:
 1207 06d0 9770      		andi r25,lo8(7)
 1208 06d2 01F0      		breq .+2
 1209 06d4 00C0      		rjmp .L91
 1210               	.LM182:
 1211 06d6 8CE2      		ldi r24,lo8(44)
 1212 06d8 8093 0000 		sts transmitMessage,r24
 1213               	.LM183:
 1214 06dc 2091 0000 		lds r18,ppcc
 1215 06e0 3091 0000 		lds r19,(ppcc)+1
 1216 06e4 D901      		movw r26,r18
 1217 06e6 ED91      		ld r30,X+
 1218 06e8 FC91      		ld r31,X
 1219 06ea 8081      		ld r24,Z
 1220 06ec 9181      		ldd r25,Z+1
 1221 06ee A281      		ldd r26,Z+2
 1222 06f0 B381      		ldd r27,Z+3
 1223 06f2 8B2F      		mov r24,r27
 1224 06f4 9927      		clr r25
 1225 06f6 AA27      		clr r26
 1226 06f8 BB27      		clr r27
 1227 06fa 8093 0000 		sts transmitMessage+1,r24
 1228               	.LM184:
 1229 06fe D901      		movw r26,r18
 1230 0700 ED91      		ld r30,X+
 1231 0702 FC91      		ld r31,X
 1232 0704 8081      		ld r24,Z
 1233 0706 9181      		ldd r25,Z+1
 1234 0708 A281      		ldd r26,Z+2
 1235 070a B381      		ldd r27,Z+3
 1236 070c CD01      		movw r24,r26
 1237 070e AA27      		clr r26
 1238 0710 BB27      		clr r27
 1239 0712 8093 0000 		sts transmitMessage+2,r24
 1240               	.LM185:
 1241 0716 D901      		movw r26,r18
 1242 0718 ED91      		ld r30,X+
 1243 071a FC91      		ld r31,X
 1244 071c 8081      		ld r24,Z
 1245 071e 9181      		ldd r25,Z+1
 1246 0720 A281      		ldd r26,Z+2
 1247 0722 B381      		ldd r27,Z+3
 1248 0724 892F      		mov r24,r25
 1249 0726 9A2F      		mov r25,r26
 1250 0728 AB2F      		mov r26,r27
 1251 072a BB27      		clr r27
 1252 072c 8093 0000 		sts transmitMessage+3,r24
 1253               	.LM186:
 1254 0730 D901      		movw r26,r18
 1255 0732 ED91      		ld r30,X+
 1256 0734 FC91      		ld r31,X
 1257 0736 8081      		ld r24,Z
 1258 0738 8093 0000 		sts transmitMessage+4,r24
 1259               	.LBB135:
 1260               	.LBB136:
 1261               	.LM187:
 1262 073c DE01      		movw r26,r28
 1263 073e 1196      		adiw r26,1
 1264 0740 E0E0      		ldi r30,lo8(.LC0)
 1265 0742 F0E0      		ldi r31,hi8(.LC0)
 1266 0744 85E0      		ldi r24,lo8(5)
 1267               	.L93:
 1268 0746 0190      		ld r0,Z+
 1269 0748 0D92      		st X+,r0
 1270 074a 8150      		subi r24,lo8(-(-1))
 1271 074c 01F4      		brne .L93
 1272 074e 10E0      		ldi r17,lo8(0)
 1273               	.LVL61:
 1274               	.L94:
 1275               	.LM188:
 1276 0750 65E0      		ldi r22,lo8(5)
 1277 0752 CE01      		movw r24,r28
 1278 0754 0196      		adiw r24,1
 1279 0756 0E94 0000 		call rf12_txdata
 1280               	.LM189:
 1281 075a 1F5F      		subi r17,lo8(-(1))
 1282               	.LM190:
 1283 075c 212F      		mov r18,r17
 1284 075e 30E0      		ldi r19,lo8(0)
 1285               	.LVL62:
 1286 0760 8091 0000 		lds r24,transmitMessage
 1287 0764 8770      		andi r24,lo8(7)
 1288 0766 90E0      		ldi r25,lo8(0)
 1289 0768 0196      		adiw r24,1
 1290 076a 2817      		cp r18,r24
 1291 076c 3907      		cpc r19,r25
 1292 076e 04F0      		brlt .L94
 1293               	.LVL63:
 1294 0770 00C0      		rjmp .L56
 1295               	.LVL64:
 1296               	.L45:
 1297               	.LBE136:
 1298               	.LBE135:
 1299               	.LM191:
 1300 0772 9770      		andi r25,lo8(7)
 1301 0774 9130      		cpi r25,lo8(1)
 1302 0776 01F4      		brne .+2
 1303 0778 00C0      		rjmp .L219
 1304               	.LBB137:
 1305               	.LBB138:
 1306               	.LM192:
 1307 077a 1092 0000 		sts transmitMessage,__zero_reg__
 1308               	.LBB139:
 1309               	.LBB140:
 1310               	.LM193:
 1311 077e DE01      		movw r26,r28
 1312 0780 1196      		adiw r26,1
 1313 0782 E0E0      		ldi r30,lo8(.LC0)
 1314 0784 F0E0      		ldi r31,hi8(.LC0)
 1315 0786 85E0      		ldi r24,lo8(5)
 1316               	.L71:
 1317 0788 0190      		ld r0,Z+
 1318 078a 0D92      		st X+,r0
 1319 078c 8150      		subi r24,lo8(-(-1))
 1320 078e 01F4      		brne .L71
 1321 0790 10E0      		ldi r17,lo8(0)
 1322               	.LVL65:
 1323               	.L72:
 1324               	.LM194:
 1325 0792 65E0      		ldi r22,lo8(5)
 1326 0794 CE01      		movw r24,r28
 1327 0796 0196      		adiw r24,1
 1328 0798 0E94 0000 		call rf12_txdata
 1329               	.LM195:
 1330 079c 1F5F      		subi r17,lo8(-(1))
 1331               	.LM196:
 1332 079e 212F      		mov r18,r17
 1333 07a0 30E0      		ldi r19,lo8(0)
 1334               	.LVL66:
 1335 07a2 8091 0000 		lds r24,transmitMessage
 1336 07a6 8770      		andi r24,lo8(7)
 1337 07a8 90E0      		ldi r25,lo8(0)
 1338 07aa 0196      		adiw r24,1
 1339 07ac 2817      		cp r18,r24
 1340 07ae 3907      		cpc r19,r25
 1341 07b0 04F0      		brlt .L72
 1342               	.LVL67:
 1343 07b2 00C0      		rjmp .L56
 1344               	.LVL68:
 1345               	.L44:
 1346               	.LBE140:
 1347               	.LBE139:
 1348               	.LBE138:
 1349               	.LBE137:
 1350               	.LBB141:
 1351               	.LBB142:
 1352               	.LM197:
 1353 07b4 1092 0000 		sts header,__zero_reg__
 1354               	.LM198:
 1355 07b8 1092 0000 		sts receivedMessage,__zero_reg__
 1356               	.LM199:
 1357 07bc 1092 0000 		sts transmitMessage,__zero_reg__
 1358               	.LBB143:
 1359               	.LM200:
 1360 07c0 1092 0000 		sts receivedMessage+1,__zero_reg__
 1361               	.LM201:
 1362 07c4 1092 0000 		sts transmitMessage+1,__zero_reg__
 1363               	.LM202:
 1364 07c8 1092 0000 		sts receivedMessage+2,__zero_reg__
 1365               	.LM203:
 1366 07cc 1092 0000 		sts transmitMessage+2,__zero_reg__
 1367               	.LM204:
 1368 07d0 1092 0000 		sts receivedMessage+3,__zero_reg__
 1369               	.LM205:
 1370 07d4 1092 0000 		sts transmitMessage+3,__zero_reg__
 1371               	.LM206:
 1372 07d8 1092 0000 		sts receivedMessage+4,__zero_reg__
 1373               	.LM207:
 1374 07dc 1092 0000 		sts transmitMessage+4,__zero_reg__
 1375               	.LM208:
 1376 07e0 1092 0000 		sts receivedMessage+5,__zero_reg__
 1377               	.LM209:
 1378 07e4 1092 0000 		sts transmitMessage+5,__zero_reg__
 1379               	.LM210:
 1380 07e8 1092 0000 		sts receivedMessage+6,__zero_reg__
 1381               	.LM211:
 1382 07ec 1092 0000 		sts transmitMessage+6,__zero_reg__
 1383               	.LM212:
 1384 07f0 1092 0000 		sts receivedMessage+7,__zero_reg__
 1385               	.LM213:
 1386 07f4 1092 0000 		sts transmitMessage+7,__zero_reg__
 1387               	.LM214:
 1388 07f8 1092 0000 		sts receivedMessage+8,__zero_reg__
 1389               	.LM215:
 1390 07fc 1092 0000 		sts transmitMessage+8,__zero_reg__
 1391               	.LBE143:
 1392               	.LM216:
 1393 0800 1092 0000 		sts empfangeneBytes,__zero_reg__
 1394 0804 00C0      		rjmp .L56
 1395               	.L113:
 1396               	.LBE142:
 1397               	.LBE141:
 1398               	.LBB144:
 1399               	.LBB145:
 1400               	.LM217:
 1401 0806 1092 0000 		sts transmitMessage,__zero_reg__
 1402               	.LBB146:
 1403               	.LBB147:
 1404               	.LM218:
 1405 080a DE01      		movw r26,r28
 1406 080c 1196      		adiw r26,1
 1407 080e E0E0      		ldi r30,lo8(.LC0)
 1408 0810 F0E0      		ldi r31,hi8(.LC0)
 1409 0812 85E0      		ldi r24,lo8(5)
 1410               	.L117:
 1411 0814 0190      		ld r0,Z+
 1412 0816 0D92      		st X+,r0
 1413 0818 8150      		subi r24,lo8(-(-1))
 1414 081a 01F4      		brne .L117
 1415 081c 10E0      		ldi r17,lo8(0)
 1416               	.LVL69:
 1417               	.L118:
 1418               	.LM219:
 1419 081e 65E0      		ldi r22,lo8(5)
 1420 0820 CE01      		movw r24,r28
 1421 0822 0196      		adiw r24,1
 1422 0824 0E94 0000 		call rf12_txdata
 1423               	.LM220:
 1424 0828 1F5F      		subi r17,lo8(-(1))
 1425               	.LM221:
 1426 082a 212F      		mov r18,r17
 1427 082c 30E0      		ldi r19,lo8(0)
 1428               	.LVL70:
 1429 082e 8091 0000 		lds r24,transmitMessage
 1430 0832 8770      		andi r24,lo8(7)
 1431 0834 90E0      		ldi r25,lo8(0)
 1432 0836 0196      		adiw r24,1
 1433 0838 2817      		cp r18,r24
 1434 083a 3907      		cpc r19,r25
 1435 083c 04F0      		brlt .L118
 1436               	.LVL71:
 1437 083e 00C0      		rjmp .L56
 1438               	.LVL72:
 1439               	.L119:
 1440               	.LBE147:
 1441               	.LBE146:
 1442               	.LBE145:
 1443               	.LBE144:
 1444               	.LBB148:
 1445               	.LBB149:
 1446               	.LM222:
 1447 0840 1092 0000 		sts transmitMessage,__zero_reg__
 1448               	.LBB150:
 1449               	.LBB151:
 1450               	.LM223:
 1451 0844 DE01      		movw r26,r28
 1452 0846 1196      		adiw r26,1
 1453 0848 E0E0      		ldi r30,lo8(.LC0)
 1454 084a F0E0      		ldi r31,hi8(.LC0)
 1455 084c 85E0      		ldi r24,lo8(5)
 1456               	.L123:
 1457 084e 0190      		ld r0,Z+
 1458 0850 0D92      		st X+,r0
 1459 0852 8150      		subi r24,lo8(-(-1))
 1460 0854 01F4      		brne .L123
 1461 0856 10E0      		ldi r17,lo8(0)
 1462               	.LVL73:
 1463               	.L124:
 1464               	.LM224:
 1465 0858 65E0      		ldi r22,lo8(5)
 1466 085a CE01      		movw r24,r28
 1467 085c 0196      		adiw r24,1
 1468 085e 0E94 0000 		call rf12_txdata
 1469               	.LM225:
 1470 0862 1F5F      		subi r17,lo8(-(1))
 1471               	.LM226:
 1472 0864 212F      		mov r18,r17
 1473 0866 30E0      		ldi r19,lo8(0)
 1474               	.LVL74:
 1475 0868 8091 0000 		lds r24,transmitMessage
 1476 086c 8770      		andi r24,lo8(7)
 1477 086e 90E0      		ldi r25,lo8(0)
 1478 0870 0196      		adiw r24,1
 1479 0872 2817      		cp r18,r24
 1480 0874 3907      		cpc r19,r25
 1481 0876 04F0      		brlt .L124
 1482               	.LVL75:
 1483 0878 00C0      		rjmp .L56
 1484               	.LVL76:
 1485               	.L107:
 1486               	.LBE151:
 1487               	.LBE150:
 1488               	.LBE149:
 1489               	.LBE148:
 1490               	.LBB152:
 1491               	.LBB153:
 1492               	.LM227:
 1493 087a 1092 0000 		sts transmitMessage,__zero_reg__
 1494               	.LBB154:
 1495               	.LBB155:
 1496               	.LM228:
 1497 087e DE01      		movw r26,r28
 1498 0880 1196      		adiw r26,1
 1499 0882 E0E0      		ldi r30,lo8(.LC0)
 1500 0884 F0E0      		ldi r31,hi8(.LC0)
 1501 0886 85E0      		ldi r24,lo8(5)
 1502               	.L111:
 1503 0888 0190      		ld r0,Z+
 1504 088a 0D92      		st X+,r0
 1505 088c 8150      		subi r24,lo8(-(-1))
 1506 088e 01F4      		brne .L111
 1507 0890 10E0      		ldi r17,lo8(0)
 1508               	.LVL77:
 1509               	.L112:
 1510               	.LM229:
 1511 0892 65E0      		ldi r22,lo8(5)
 1512 0894 CE01      		movw r24,r28
 1513 0896 0196      		adiw r24,1
 1514 0898 0E94 0000 		call rf12_txdata
 1515               	.LM230:
 1516 089c 1F5F      		subi r17,lo8(-(1))
 1517               	.LM231:
 1518 089e 212F      		mov r18,r17
 1519 08a0 30E0      		ldi r19,lo8(0)
 1520               	.LVL78:
 1521 08a2 8091 0000 		lds r24,transmitMessage
 1522 08a6 8770      		andi r24,lo8(7)
 1523 08a8 90E0      		ldi r25,lo8(0)
 1524 08aa 0196      		adiw r24,1
 1525 08ac 2817      		cp r18,r24
 1526 08ae 3907      		cpc r19,r25
 1527 08b0 04F0      		brlt .L112
 1528               	.LVL79:
 1529 08b2 00C0      		rjmp .L56
 1530               	.LVL80:
 1531               	.L125:
 1532               	.LBE155:
 1533               	.LBE154:
 1534               	.LBE153:
 1535               	.LBE152:
 1536               	.LBB156:
 1537               	.LBB157:
 1538               	.LM232:
 1539 08b4 1092 0000 		sts transmitMessage,__zero_reg__
 1540               	.LBB158:
 1541               	.LBB159:
 1542               	.LM233:
 1543 08b8 DE01      		movw r26,r28
 1544 08ba 1196      		adiw r26,1
 1545 08bc E0E0      		ldi r30,lo8(.LC0)
 1546 08be F0E0      		ldi r31,hi8(.LC0)
 1547 08c0 85E0      		ldi r24,lo8(5)
 1548               	.L129:
 1549 08c2 0190      		ld r0,Z+
 1550 08c4 0D92      		st X+,r0
 1551 08c6 8150      		subi r24,lo8(-(-1))
 1552 08c8 01F4      		brne .L129
 1553 08ca 10E0      		ldi r17,lo8(0)
 1554               	.LVL81:
 1555               	.L130:
 1556               	.LM234:
 1557 08cc 65E0      		ldi r22,lo8(5)
 1558 08ce CE01      		movw r24,r28
 1559 08d0 0196      		adiw r24,1
 1560 08d2 0E94 0000 		call rf12_txdata
 1561               	.LM235:
 1562 08d6 1F5F      		subi r17,lo8(-(1))
 1563               	.LM236:
 1564 08d8 212F      		mov r18,r17
 1565 08da 30E0      		ldi r19,lo8(0)
 1566               	.LVL82:
 1567 08dc 8091 0000 		lds r24,transmitMessage
 1568 08e0 8770      		andi r24,lo8(7)
 1569 08e2 90E0      		ldi r25,lo8(0)
 1570 08e4 0196      		adiw r24,1
 1571 08e6 2817      		cp r18,r24
 1572 08e8 3907      		cpc r19,r25
 1573 08ea 04F0      		brlt .L130
 1574               	.LVL83:
 1575 08ec 00C0      		rjmp .L56
 1576               	.LVL84:
 1577               	.L85:
 1578               	.LBE159:
 1579               	.LBE158:
 1580               	.LBE157:
 1581               	.LBE156:
 1582               	.LBB160:
 1583               	.LBB161:
 1584               	.LM237:
 1585 08ee 1092 0000 		sts transmitMessage,__zero_reg__
 1586               	.LBB162:
 1587               	.LBB163:
 1588               	.LM238:
 1589 08f2 DE01      		movw r26,r28
 1590 08f4 1196      		adiw r26,1
 1591 08f6 E0E0      		ldi r30,lo8(.LC0)
 1592 08f8 F0E0      		ldi r31,hi8(.LC0)
 1593 08fa 85E0      		ldi r24,lo8(5)
 1594               	.L89:
 1595 08fc 0190      		ld r0,Z+
 1596 08fe 0D92      		st X+,r0
 1597 0900 8150      		subi r24,lo8(-(-1))
 1598 0902 01F4      		brne .L89
 1599 0904 10E0      		ldi r17,lo8(0)
 1600               	.LVL85:
 1601               	.L90:
 1602               	.LM239:
 1603 0906 65E0      		ldi r22,lo8(5)
 1604 0908 CE01      		movw r24,r28
 1605 090a 0196      		adiw r24,1
 1606 090c 0E94 0000 		call rf12_txdata
 1607               	.LM240:
 1608 0910 1F5F      		subi r17,lo8(-(1))
 1609               	.LM241:
 1610 0912 212F      		mov r18,r17
 1611 0914 30E0      		ldi r19,lo8(0)
 1612               	.LVL86:
 1613 0916 8091 0000 		lds r24,transmitMessage
 1614 091a 8770      		andi r24,lo8(7)
 1615 091c 90E0      		ldi r25,lo8(0)
 1616 091e 0196      		adiw r24,1
 1617 0920 2817      		cp r18,r24
 1618 0922 3907      		cpc r19,r25
 1619 0924 04F0      		brlt .L90
 1620               	.LVL87:
 1621 0926 00C0      		rjmp .L56
 1622               	.LVL88:
 1623               	.L101:
 1624               	.LBE163:
 1625               	.LBE162:
 1626               	.LBE161:
 1627               	.LBE160:
 1628               	.LBB164:
 1629               	.LBB165:
 1630               	.LM242:
 1631 0928 1092 0000 		sts transmitMessage,__zero_reg__
 1632               	.LBB166:
 1633               	.LBB167:
 1634               	.LM243:
 1635 092c DE01      		movw r26,r28
 1636 092e 1196      		adiw r26,1
 1637 0930 E0E0      		ldi r30,lo8(.LC0)
 1638 0932 F0E0      		ldi r31,hi8(.LC0)
 1639 0934 85E0      		ldi r24,lo8(5)
 1640               	.L105:
 1641 0936 0190      		ld r0,Z+
 1642 0938 0D92      		st X+,r0
 1643 093a 8150      		subi r24,lo8(-(-1))
 1644 093c 01F4      		brne .L105
 1645 093e 10E0      		ldi r17,lo8(0)
 1646               	.LVL89:
 1647               	.L106:
 1648               	.LM244:
 1649 0940 65E0      		ldi r22,lo8(5)
 1650 0942 CE01      		movw r24,r28
 1651 0944 0196      		adiw r24,1
 1652 0946 0E94 0000 		call rf12_txdata
 1653               	.LM245:
 1654 094a 1F5F      		subi r17,lo8(-(1))
 1655               	.LM246:
 1656 094c 212F      		mov r18,r17
 1657 094e 30E0      		ldi r19,lo8(0)
 1658               	.LVL90:
 1659 0950 8091 0000 		lds r24,transmitMessage
 1660 0954 8770      		andi r24,lo8(7)
 1661 0956 90E0      		ldi r25,lo8(0)
 1662 0958 0196      		adiw r24,1
 1663 095a 2817      		cp r18,r24
 1664 095c 3907      		cpc r19,r25
 1665 095e 04F0      		brlt .L106
 1666               	.LVL91:
 1667 0960 00C0      		rjmp .L56
 1668               	.LVL92:
 1669               	.L91:
 1670               	.LBE167:
 1671               	.LBE166:
 1672               	.LBE165:
 1673               	.LBE164:
 1674               	.LBB168:
 1675               	.LBB169:
 1676               	.LM247:
 1677 0962 1092 0000 		sts transmitMessage,__zero_reg__
 1678               	.LBB170:
 1679               	.LBB171:
 1680               	.LM248:
 1681 0966 DE01      		movw r26,r28
 1682 0968 1196      		adiw r26,1
 1683 096a E0E0      		ldi r30,lo8(.LC0)
 1684 096c F0E0      		ldi r31,hi8(.LC0)
 1685 096e 85E0      		ldi r24,lo8(5)
 1686               	.L95:
 1687 0970 0190      		ld r0,Z+
 1688 0972 0D92      		st X+,r0
 1689 0974 8150      		subi r24,lo8(-(-1))
 1690 0976 01F4      		brne .L95
 1691 0978 10E0      		ldi r17,lo8(0)
 1692               	.LVL93:
 1693               	.L96:
 1694               	.LM249:
 1695 097a 65E0      		ldi r22,lo8(5)
 1696 097c CE01      		movw r24,r28
 1697 097e 0196      		adiw r24,1
 1698 0980 0E94 0000 		call rf12_txdata
 1699               	.LM250:
 1700 0984 1F5F      		subi r17,lo8(-(1))
 1701               	.LM251:
 1702 0986 212F      		mov r18,r17
 1703 0988 30E0      		ldi r19,lo8(0)
 1704               	.LVL94:
 1705 098a 8091 0000 		lds r24,transmitMessage
 1706 098e 8770      		andi r24,lo8(7)
 1707 0990 90E0      		ldi r25,lo8(0)
 1708 0992 0196      		adiw r24,1
 1709 0994 2817      		cp r18,r24
 1710 0996 3907      		cpc r19,r25
 1711 0998 04F0      		brlt .L96
 1712               	.LVL95:
 1713 099a 00C0      		rjmp .L56
 1714               	.LVL96:
 1715               	.L131:
 1716               	.LBE171:
 1717               	.LBE170:
 1718               	.LBE169:
 1719               	.LBE168:
 1720               	.LBB172:
 1721               	.LBB173:
 1722               	.LM252:
 1723 099c 1092 0000 		sts transmitMessage,__zero_reg__
 1724               	.LBB174:
 1725               	.LBB175:
 1726               	.LM253:
 1727 09a0 DE01      		movw r26,r28
 1728 09a2 1196      		adiw r26,1
 1729 09a4 E0E0      		ldi r30,lo8(.LC0)
 1730 09a6 F0E0      		ldi r31,hi8(.LC0)
 1731 09a8 85E0      		ldi r24,lo8(5)
 1732               	.L135:
 1733 09aa 0190      		ld r0,Z+
 1734 09ac 0D92      		st X+,r0
 1735 09ae 8150      		subi r24,lo8(-(-1))
 1736 09b0 01F4      		brne .L135
 1737 09b2 10E0      		ldi r17,lo8(0)
 1738               	.LVL97:
 1739               	.L136:
 1740               	.LM254:
 1741 09b4 65E0      		ldi r22,lo8(5)
 1742 09b6 CE01      		movw r24,r28
 1743 09b8 0196      		adiw r24,1
 1744 09ba 0E94 0000 		call rf12_txdata
 1745               	.LM255:
 1746 09be 1F5F      		subi r17,lo8(-(1))
 1747               	.LM256:
 1748 09c0 212F      		mov r18,r17
 1749 09c2 30E0      		ldi r19,lo8(0)
 1750               	.LVL98:
 1751 09c4 8091 0000 		lds r24,transmitMessage
 1752 09c8 8770      		andi r24,lo8(7)
 1753 09ca 90E0      		ldi r25,lo8(0)
 1754 09cc 0196      		adiw r24,1
 1755 09ce 2817      		cp r18,r24
 1756 09d0 3907      		cpc r19,r25
 1757 09d2 04F0      		brlt .L136
 1758               	.LVL99:
 1759 09d4 00C0      		rjmp .L56
 1760               	.LVL100:
 1761               	.L219:
 1762               	.LBE175:
 1763               	.LBE174:
 1764               	.LBE173:
 1765               	.LBE172:
 1766               	.LM257:
 1767 09d6 8AE0      		ldi r24,lo8(10)
 1768 09d8 8093 0000 		sts transmitMessage,r24
 1769               	.LM258:
 1770 09dc 8091 0000 		lds r24,receivedMessage+1
 1771 09e0 8234      		cpi r24,lo8(66)
 1772 09e2 01F4      		brne .+2
 1773 09e4 00C0      		rjmp .L62
 1774 09e6 8334      		cpi r24,lo8(67)
 1775 09e8 00F0      		brlo .+2
 1776 09ea 00C0      		rjmp .L65
 1777 09ec 8134      		cpi r24,lo8(65)
 1778 09ee 01F4      		brne .+2
 1779 09f0 00C0      		rjmp .L220
 1780               	.L60:
 1781               	.LBB176:
 1782               	.LBB177:
 1783               	.LM259:
 1784 09f2 1092 0000 		sts transmitMessage,__zero_reg__
 1785               	.LBB178:
 1786               	.LBB179:
 1787               	.LM260:
 1788 09f6 FE01      		movw r30,r28
 1789 09f8 3196      		adiw r30,1
 1790 09fa A0E0      		ldi r26,lo8(.LC0)
 1791 09fc B0E0      		ldi r27,hi8(.LC0)
 1792 09fe 85E0      		ldi r24,lo8(5)
 1793               	.L67:
 1794 0a00 0D90      		ld r0,X+
 1795 0a02 0192      		st Z+,r0
 1796 0a04 8150      		subi r24,lo8(-(-1))
 1797 0a06 01F4      		brne .L67
 1798 0a08 10E0      		ldi r17,lo8(0)
 1799               	.LVL101:
 1800               	.L68:
 1801               	.LM261:
 1802 0a0a 65E0      		ldi r22,lo8(5)
 1803 0a0c CE01      		movw r24,r28
 1804 0a0e 0196      		adiw r24,1
 1805 0a10 0E94 0000 		call rf12_txdata
 1806               	.LM262:
 1807 0a14 1F5F      		subi r17,lo8(-(1))
 1808               	.LM263:
 1809 0a16 212F      		mov r18,r17
 1810 0a18 30E0      		ldi r19,lo8(0)
 1811               	.LVL102:
 1812 0a1a 8091 0000 		lds r24,transmitMessage
 1813 0a1e 8770      		andi r24,lo8(7)
 1814 0a20 90E0      		ldi r25,lo8(0)
 1815 0a22 0196      		adiw r24,1
 1816 0a24 2817      		cp r18,r24
 1817 0a26 3907      		cpc r19,r25
 1818 0a28 04F0      		brlt .L68
 1819               	.LVL103:
 1820               	.L66:
 1821               	.LBE179:
 1822               	.LBE178:
 1823               	.LBE177:
 1824               	.LBE176:
 1825               	.LBB180:
 1826               	.LBB181:
 1827               	.LM264:
 1828 0a2a DE01      		movw r26,r28
 1829 0a2c 1196      		adiw r26,1
 1830 0a2e E0E0      		ldi r30,lo8(.LC0)
 1831 0a30 F0E0      		ldi r31,hi8(.LC0)
 1832 0a32 85E0      		ldi r24,lo8(5)
 1833               	.L69:
 1834 0a34 0190      		ld r0,Z+
 1835 0a36 0D92      		st X+,r0
 1836 0a38 8150      		subi r24,lo8(-(-1))
 1837 0a3a 01F4      		brne .L69
 1838 0a3c 10E0      		ldi r17,lo8(0)
 1839               	.LVL104:
 1840               	.L70:
 1841               	.LM265:
 1842 0a3e 65E0      		ldi r22,lo8(5)
 1843 0a40 CE01      		movw r24,r28
 1844 0a42 0196      		adiw r24,1
 1845 0a44 0E94 0000 		call rf12_txdata
 1846               	.LVL105:
 1847               	.LM266:
 1848 0a48 1F5F      		subi r17,lo8(-(1))
 1849               	.LM267:
 1850 0a4a 212F      		mov r18,r17
 1851 0a4c 30E0      		ldi r19,lo8(0)
 1852               	.LVL106:
 1853 0a4e 8091 0000 		lds r24,transmitMessage
 1854 0a52 8770      		andi r24,lo8(7)
 1855 0a54 90E0      		ldi r25,lo8(0)
 1856 0a56 0196      		adiw r24,1
 1857 0a58 2817      		cp r18,r24
 1858 0a5a 3907      		cpc r19,r25
 1859 0a5c 04F0      		brlt .L70
 1860               	.LVL107:
 1861 0a5e 00C0      		rjmp .L56
 1862               	.LVL108:
 1863               	.L218:
 1864               	.LBE181:
 1865               	.LBE180:
 1866               	.LM268:
 1867 0a60 89E0      		ldi r24,lo8(9)
 1868 0a62 8093 0000 		sts transmitMessage,r24
 1869               	.LM269:
 1870 0a66 8091 0000 		lds r24,receivedMessage+1
 1871 0a6a 8234      		cpi r24,lo8(66)
 1872 0a6c 01F4      		brne .+2
 1873 0a6e 00C0      		rjmp .L77
 1874 0a70 8334      		cpi r24,lo8(67)
 1875 0a72 00F4      		brsh .L78
 1876 0a74 8134      		cpi r24,lo8(65)
 1877 0a76 01F0      		breq .L221
 1878               	.L75:
 1879               	.LBB182:
 1880               	.LBB183:
 1881               	.LM270:
 1882 0a78 1092 0000 		sts transmitMessage,__zero_reg__
 1883               	.LBB184:
 1884               	.LBB185:
 1885               	.LM271:
 1886 0a7c FE01      		movw r30,r28
 1887 0a7e 3196      		adiw r30,1
 1888 0a80 A0E0      		ldi r26,lo8(.LC0)
 1889 0a82 B0E0      		ldi r27,hi8(.LC0)
 1890 0a84 85E0      		ldi r24,lo8(5)
 1891               	.L81:
 1892 0a86 0D90      		ld r0,X+
 1893 0a88 0192      		st Z+,r0
 1894 0a8a 8150      		subi r24,lo8(-(-1))
 1895 0a8c 01F4      		brne .L81
 1896 0a8e 10E0      		ldi r17,lo8(0)
 1897               	.LVL109:
 1898               	.L82:
 1899               	.LM272:
 1900 0a90 65E0      		ldi r22,lo8(5)
 1901 0a92 CE01      		movw r24,r28
 1902 0a94 0196      		adiw r24,1
 1903 0a96 0E94 0000 		call rf12_txdata
 1904               	.LM273:
 1905 0a9a 1F5F      		subi r17,lo8(-(1))
 1906               	.LM274:
 1907 0a9c 212F      		mov r18,r17
 1908 0a9e 30E0      		ldi r19,lo8(0)
 1909               	.LVL110:
 1910 0aa0 8091 0000 		lds r24,transmitMessage
 1911 0aa4 8770      		andi r24,lo8(7)
 1912 0aa6 90E0      		ldi r25,lo8(0)
 1913 0aa8 0196      		adiw r24,1
 1914 0aaa 2817      		cp r18,r24
 1915 0aac 3907      		cpc r19,r25
 1916 0aae 04F0      		brlt .L82
 1917               	.LVL111:
 1918 0ab0 00C0      		rjmp .L56
 1919               	.LVL112:
 1920               	.L78:
 1921               	.LBE185:
 1922               	.LBE184:
 1923               	.LBE183:
 1924               	.LBE182:
 1925               	.LM275:
 1926 0ab2 8534      		cpi r24,lo8(69)
 1927 0ab4 00F4      		brsh .L75
 1928 0ab6 00C0      		rjmp .L56
 1929               	.L65:
 1930               	.LM276:
 1931 0ab8 8334      		cpi r24,lo8(67)
 1932 0aba 01F4      		brne .+2
 1933 0abc 00C0      		rjmp .L63
 1934 0abe 8434      		cpi r24,lo8(68)
 1935 0ac0 01F0      		breq .+2
 1936 0ac2 00C0      		rjmp .L60
 1937               	.LM277:
 1938 0ac4 81B3      		in r24,49-0x20
 1939 0ac6 8093 0000 		sts transmitMessage+1,r24
 1940               	.LM278:
 1941 0aca 80B3      		in r24,48-0x20
 1942 0acc 8093 0000 		sts transmitMessage+2,r24
 1943 0ad0 00C0      		rjmp .L66
 1944               	.L221:
 1945               	.LM279:
 1946 0ad2 9BB3      		in r25,59-0x20
 1947 0ad4 8AB3      		in r24,58-0x20
 1948 0ad6 2091 0000 		lds r18,receivedMessage+3
 1949 0ada 3091 0000 		lds r19,receivedMessage+2
 1950 0ade 8223      		and r24,r18
 1951 0ae0 8323      		and r24,r19
 1952 0ae2 892B      		or r24,r25
 1953 0ae4 8BBB      		out 59-0x20,r24
 1954               	.LM280:
 1955 0ae6 9BB3      		in r25,59-0x20
 1956 0ae8 8AB3      		in r24,58-0x20
 1957 0aea 8223      		and r24,r18
 1958 0aec 8095      		com r24
 1959 0aee 832B      		or r24,r19
 1960 0af0 8923      		and r24,r25
 1961 0af2 8BBB      		out 59-0x20,r24
 1962 0af4 00C0      		rjmp .L56
 1963               	.L77:
 1964               	.LM281:
 1965 0af6 98B3      		in r25,56-0x20
 1966 0af8 87B3      		in r24,55-0x20
 1967 0afa 3091 0000 		lds r19,receivedMessage+3
 1968 0afe 4091 0000 		lds r20,receivedMessage+2
 1969 0b02 8323      		and r24,r19
 1970 0b04 8423      		and r24,r20
 1971 0b06 892B      		or r24,r25
 1972 0b08 88BB      		out 56-0x20,r24
 1973               	.LM282:
 1974 0b0a 28B3      		in r18,56-0x20
 1975 0b0c 87B3      		in r24,55-0x20
 1976 0b0e 942F      		mov r25,r20
 1977 0b10 9095      		com r25
 1978 0b12 8323      		and r24,r19
 1979 0b14 8923      		and r24,r25
 1980 0b16 8095      		com r24
 1981 0b18 8223      		and r24,r18
 1982 0b1a 88BB      		out 56-0x20,r24
 1983               	.LM283:
 1984 0b1c 27B3      		in r18,55-0x20
 1985 0b1e 2323      		and r18,r19
 1986 0b20 2423      		and r18,r20
 1987               	.LM284:
 1988 0b22 87B3      		in r24,55-0x20
 1989 0b24 8323      		and r24,r19
 1990 0b26 9823      		and r25,r24
 1991 0b28 9095      		com r25
 1992 0b2a 9223      		and r25,r18
 1993 0b2c 9093 0000 		sts transmitMessage+1,r25
 1994               	.LBB186:
 1995               	.LBB187:
 1996               	.LM285:
 1997 0b30 FE01      		movw r30,r28
 1998 0b32 3196      		adiw r30,1
 1999 0b34 A0E0      		ldi r26,lo8(.LC0)
 2000 0b36 B0E0      		ldi r27,hi8(.LC0)
 2001 0b38 85E0      		ldi r24,lo8(5)
 2002               	.L79:
 2003 0b3a 0D90      		ld r0,X+
 2004 0b3c 0192      		st Z+,r0
 2005 0b3e 8150      		subi r24,lo8(-(-1))
 2006 0b40 01F4      		brne .L79
 2007 0b42 10E0      		ldi r17,lo8(0)
 2008               	.LVL113:
 2009               	.L80:
 2010               	.LM286:
 2011 0b44 65E0      		ldi r22,lo8(5)
 2012 0b46 CE01      		movw r24,r28
 2013 0b48 0196      		adiw r24,1
 2014 0b4a 0E94 0000 		call rf12_txdata
 2015               	.LM287:
 2016 0b4e 1F5F      		subi r17,lo8(-(1))
 2017               	.LM288:
 2018 0b50 212F      		mov r18,r17
 2019 0b52 30E0      		ldi r19,lo8(0)
 2020               	.LVL114:
 2021 0b54 8091 0000 		lds r24,transmitMessage
 2022 0b58 8770      		andi r24,lo8(7)
 2023 0b5a 90E0      		ldi r25,lo8(0)
 2024 0b5c 0196      		adiw r24,1
 2025 0b5e 2817      		cp r18,r24
 2026 0b60 3907      		cpc r19,r25
 2027 0b62 04F0      		brlt .L80
 2028               	.LVL115:
 2029 0b64 00C0      		rjmp .L56
 2030               	.LVL116:
 2031               	.L62:
 2032               	.LBE187:
 2033               	.LBE186:
 2034               	.LM289:
 2035 0b66 87B3      		in r24,55-0x20
 2036 0b68 8093 0000 		sts transmitMessage+1,r24
 2037               	.LM290:
 2038 0b6c 86B3      		in r24,54-0x20
 2039 0b6e 8093 0000 		sts transmitMessage+2,r24
 2040 0b72 00C0      		rjmp .L66
 2041               	.L220:
 2042               	.LM291:
 2043 0b74 8AB3      		in r24,58-0x20
 2044 0b76 8093 0000 		sts transmitMessage+1,r24
 2045               	.LM292:
 2046 0b7a 89B3      		in r24,57-0x20
 2047 0b7c 8093 0000 		sts transmitMessage+2,r24
 2048 0b80 00C0      		rjmp .L66
 2049               	.L63:
 2050               	.LM293:
 2051 0b82 84B3      		in r24,52-0x20
 2052 0b84 8093 0000 		sts transmitMessage+1,r24
 2053               	.LM294:
 2054 0b88 83B3      		in r24,51-0x20
 2055 0b8a 8093 0000 		sts transmitMessage+2,r24
 2056 0b8e 00C0      		rjmp .L66
 2057               	.LVL117:
 2058               	.L139:
 2059               	/* epilogue: frame size=5 */
 2060 0b90 2596      		adiw r28,5
 2061 0b92 0FB6      		in __tmp_reg__,__SREG__
 2062 0b94 F894      		cli
 2063 0b96 DEBF      		out __SP_H__,r29
 2064 0b98 0FBE      		out __SREG__,__tmp_reg__
 2065 0b9a CDBF      		out __SP_L__,r28
 2066 0b9c DF91      		pop r29
 2067 0b9e CF91      		pop r28
 2068 0ba0 1F91      		pop r17
 2069 0ba2 0895      		ret
 2070               	/* epilogue end (size=10) */
 2071               	/* function pcc size 1302 (1281) */
 2072               	.LFE9:
 2074               		.comm count36kHz,1,1
 2075               		.comm timebase,4,1
 2076               		.comm encoder,4,1
 2077               		.comm autoencode,2,1
 2078               		.comm batteryVoltage,2,1
 2079               		.comm ppcc,2,1
 2080               		.comm header,1,1
 2081               		.comm receivedMessage,9,1
 2082               		.comm transmitMessage,9,1
 2083               		.comm empfangeneBytes,1,1
 2084               		.comm versendeteBytes,1,1
 2085               		.comm sm_rx,1,1
 2150               	.Letext0:
DEFINED SYMBOLS
                            *ABS*:00000000 pcc.c
C:\DOKUME~1\Olaf\LOKALE~1\Temp/ccNpfQTy.s:2      *ABS*:0000003f __SREG__
C:\DOKUME~1\Olaf\LOKALE~1\Temp/ccNpfQTy.s:3      *ABS*:0000003e __SP_H__
C:\DOKUME~1\Olaf\LOKALE~1\Temp/ccNpfQTy.s:4      *ABS*:0000003d __SP_L__
C:\DOKUME~1\Olaf\LOKALE~1\Temp/ccNpfQTy.s:5      *ABS*:00000000 __tmp_reg__
C:\DOKUME~1\Olaf\LOKALE~1\Temp/ccNpfQTy.s:6      *ABS*:00000001 __zero_reg__
C:\DOKUME~1\Olaf\LOKALE~1\Temp/ccNpfQTy.s:19     .text:00000000 pcc_reset
                            *COM*:00000001 header
                            *COM*:00000009 receivedMessage
                            *COM*:00000009 transmitMessage
                            *COM*:00000001 empfangeneBytes
C:\DOKUME~1\Olaf\LOKALE~1\Temp/ccNpfQTy.s:74     .text:00000052 pcc_rx
                            *COM*:00000001 sm_rx
C:\DOKUME~1\Olaf\LOKALE~1\Temp/ccNpfQTy.s:149    .text:000000ba pcc_send
C:\DOKUME~1\Olaf\LOKALE~1\Temp/ccNpfQTy.s:229    .text:0000012e pcc_init
                            *COM*:00000002 ppcc
C:\DOKUME~1\Olaf\LOKALE~1\Temp/ccNpfQTy.s:296    .text:0000018e pcc_sendError
C:\DOKUME~1\Olaf\LOKALE~1\Temp/ccNpfQTy.s:374    .text:000001fc pcc
                            *COM*:00000002 batteryVoltage
                            *COM*:00000001 count36kHz
                            *COM*:00000004 timebase
                            *COM*:00000004 encoder
                            *COM*:00000002 autoencode
                            *COM*:00000001 versendeteBytes

UNDEFINED SYMBOLS
__do_copy_data
__do_clear_bss
rf12_txdata
