   1               		.file	"rf12.c"
   2               	__SREG__ = 0x3f
   3               	__SP_H__ = 0x3e
   4               	__SP_L__ = 0x3d
   5               	__tmp_reg__ = 0
   6               	__zero_reg__ = 1
   7               		.global __do_copy_data
   8               		.global __do_clear_bss
  16               	.Ltext0:
  17               	.global	crcUpdate
  19               	crcUpdate:
  20               	.LFB6:
  21               	.LM1:
  22               	/* prologue: frame size=0 */
  23               	/* prologue end (size=0) */
  24               	.LVL0:
  25 0000 9C01      		movw r18,r24
  26               	.LM2:
  27 0002 70E0      		ldi r23,lo8(0)
  28               	.LVL1:
  29 0004 762F      		mov r23,r22
  30 0006 6627      		clr r22
  31               	.LVL2:
  32               	.LM3:
  33 0008 CB01      		movw r24,r22
  34               	.LVL3:
  35 000a 8227      		eor r24,r18
  36 000c 9327      		eor r25,r19
  37 000e 97FD      		sbrc r25,7
  38 0010 00C0      		rjmp .L2
  39               	.LM4:
  40 0012 220F      		lsl r18
  41 0014 331F      		rol r19
  42               	.LVL4:
  43               	.LM5:
  44 0016 660F      		lsl r22
  45 0018 771F      		rol r23
  46               	.LVL5:
  47               	.LM6:
  48 001a C901      		movw r24,r18
  49 001c 8627      		eor r24,r22
  50 001e 9727      		eor r25,r23
  51 0020 97FD      		sbrc r25,7
  52 0022 00C0      		rjmp .L5
  53               	.L29:
  54               	.LM7:
  55 0024 220F      		lsl r18
  56 0026 331F      		rol r19
  57               	.LVL6:
  58               	.LM8:
  59 0028 660F      		lsl r22
  60 002a 771F      		rol r23
  61               	.LVL7:
  62               	.LM9:
  63 002c C901      		movw r24,r18
  64 002e 8627      		eor r24,r22
  65 0030 9727      		eor r25,r23
  66 0032 97FD      		sbrc r25,7
  67 0034 00C0      		rjmp .L8
  68               	.L30:
  69               	.LM10:
  70 0036 220F      		lsl r18
  71 0038 331F      		rol r19
  72               	.LVL8:
  73               	.LM11:
  74 003a 660F      		lsl r22
  75 003c 771F      		rol r23
  76               	.LVL9:
  77               	.LM12:
  78 003e C901      		movw r24,r18
  79 0040 8627      		eor r24,r22
  80 0042 9727      		eor r25,r23
  81 0044 97FD      		sbrc r25,7
  82 0046 00C0      		rjmp .L11
  83               	.L31:
  84               	.LM13:
  85 0048 220F      		lsl r18
  86 004a 331F      		rol r19
  87               	.LVL10:
  88               	.LM14:
  89 004c 660F      		lsl r22
  90 004e 771F      		rol r23
  91               	.LVL11:
  92               	.LM15:
  93 0050 C901      		movw r24,r18
  94 0052 8627      		eor r24,r22
  95 0054 9727      		eor r25,r23
  96 0056 97FD      		sbrc r25,7
  97 0058 00C0      		rjmp .L14
  98               	.L32:
  99               	.LM16:
 100 005a 220F      		lsl r18
 101 005c 331F      		rol r19
 102               	.LVL12:
 103               	.LM17:
 104 005e 660F      		lsl r22
 105 0060 771F      		rol r23
 106               	.LVL13:
 107               	.LM18:
 108 0062 C901      		movw r24,r18
 109 0064 8627      		eor r24,r22
 110 0066 9727      		eor r25,r23
 111 0068 97FD      		sbrc r25,7
 112 006a 00C0      		rjmp .L17
 113               	.L33:
 114               	.LM19:
 115 006c 220F      		lsl r18
 116 006e 331F      		rol r19
 117               	.LVL14:
 118               	.LM20:
 119 0070 660F      		lsl r22
 120 0072 771F      		rol r23
 121               	.LVL15:
 122               	.LM21:
 123 0074 C901      		movw r24,r18
 124 0076 8627      		eor r24,r22
 125 0078 9727      		eor r25,r23
 126 007a 97FD      		sbrc r25,7
 127 007c 00C0      		rjmp .L20
 128               	.L34:
 129               	.LM22:
 130 007e 220F      		lsl r18
 131 0080 331F      		rol r19
 132               	.LVL16:
 133               	.LM23:
 134 0082 660F      		lsl r22
 135 0084 771F      		rol r23
 136 0086 6227      		eor r22,r18
 137 0088 7327      		eor r23,r19
 138 008a 77FD      		sbrc r23,7
 139 008c 00C0      		rjmp .L28
 140               	.L23:
 141               	.LM24:
 142 008e 220F      		lsl r18
 143 0090 331F      		rol r19
 144               	.LVL17:
 145 0092 00C0      		rjmp .L25
 146               	.L2:
 147               	.LM25:
 148 0094 220F      		lsl r18
 149 0096 331F      		rol r19
 150               	.LVL18:
 151 0098 81E2      		ldi r24,lo8(4129)
 152 009a 90E1      		ldi r25,hi8(4129)
 153 009c 2827      		eor r18,r24
 154 009e 3927      		eor r19,r25
 155               	.LM26:
 156 00a0 660F      		lsl r22
 157 00a2 771F      		rol r23
 158               	.LVL19:
 159               	.LM27:
 160 00a4 C901      		movw r24,r18
 161 00a6 8627      		eor r24,r22
 162 00a8 9727      		eor r25,r23
 163 00aa 97FF      		sbrs r25,7
 164 00ac 00C0      		rjmp .L29
 165               	.L5:
 166               	.LM28:
 167 00ae 220F      		lsl r18
 168 00b0 331F      		rol r19
 169               	.LVL20:
 170 00b2 81E2      		ldi r24,lo8(4129)
 171 00b4 90E1      		ldi r25,hi8(4129)
 172 00b6 2827      		eor r18,r24
 173 00b8 3927      		eor r19,r25
 174               	.LM29:
 175 00ba 660F      		lsl r22
 176 00bc 771F      		rol r23
 177               	.LVL21:
 178               	.LM30:
 179 00be C901      		movw r24,r18
 180 00c0 8627      		eor r24,r22
 181 00c2 9727      		eor r25,r23
 182 00c4 97FF      		sbrs r25,7
 183 00c6 00C0      		rjmp .L30
 184               	.L8:
 185               	.LM31:
 186 00c8 220F      		lsl r18
 187 00ca 331F      		rol r19
 188               	.LVL22:
 189 00cc 81E2      		ldi r24,lo8(4129)
 190 00ce 90E1      		ldi r25,hi8(4129)
 191 00d0 2827      		eor r18,r24
 192 00d2 3927      		eor r19,r25
 193               	.LM32:
 194 00d4 660F      		lsl r22
 195 00d6 771F      		rol r23
 196               	.LVL23:
 197               	.LM33:
 198 00d8 C901      		movw r24,r18
 199 00da 8627      		eor r24,r22
 200 00dc 9727      		eor r25,r23
 201 00de 97FF      		sbrs r25,7
 202 00e0 00C0      		rjmp .L31
 203               	.L11:
 204               	.LM34:
 205 00e2 220F      		lsl r18
 206 00e4 331F      		rol r19
 207               	.LVL24:
 208 00e6 81E2      		ldi r24,lo8(4129)
 209 00e8 90E1      		ldi r25,hi8(4129)
 210 00ea 2827      		eor r18,r24
 211 00ec 3927      		eor r19,r25
 212               	.LM35:
 213 00ee 660F      		lsl r22
 214 00f0 771F      		rol r23
 215               	.LVL25:
 216               	.LM36:
 217 00f2 C901      		movw r24,r18
 218 00f4 8627      		eor r24,r22
 219 00f6 9727      		eor r25,r23
 220 00f8 97FF      		sbrs r25,7
 221 00fa 00C0      		rjmp .L32
 222               	.L14:
 223               	.LM37:
 224 00fc 220F      		lsl r18
 225 00fe 331F      		rol r19
 226               	.LVL26:
 227 0100 81E2      		ldi r24,lo8(4129)
 228 0102 90E1      		ldi r25,hi8(4129)
 229 0104 2827      		eor r18,r24
 230 0106 3927      		eor r19,r25
 231               	.LM38:
 232 0108 660F      		lsl r22
 233 010a 771F      		rol r23
 234               	.LVL27:
 235               	.LM39:
 236 010c C901      		movw r24,r18
 237 010e 8627      		eor r24,r22
 238 0110 9727      		eor r25,r23
 239 0112 97FF      		sbrs r25,7
 240 0114 00C0      		rjmp .L33
 241               	.L17:
 242               	.LM40:
 243 0116 220F      		lsl r18
 244 0118 331F      		rol r19
 245               	.LVL28:
 246 011a 81E2      		ldi r24,lo8(4129)
 247 011c 90E1      		ldi r25,hi8(4129)
 248 011e 2827      		eor r18,r24
 249 0120 3927      		eor r19,r25
 250               	.LM41:
 251 0122 660F      		lsl r22
 252 0124 771F      		rol r23
 253               	.LVL29:
 254               	.LM42:
 255 0126 C901      		movw r24,r18
 256 0128 8627      		eor r24,r22
 257 012a 9727      		eor r25,r23
 258 012c 97FF      		sbrs r25,7
 259 012e 00C0      		rjmp .L34
 260               	.L20:
 261               	.LM43:
 262 0130 220F      		lsl r18
 263 0132 331F      		rol r19
 264               	.LVL30:
 265 0134 81E2      		ldi r24,lo8(4129)
 266 0136 90E1      		ldi r25,hi8(4129)
 267 0138 2827      		eor r18,r24
 268 013a 3927      		eor r19,r25
 269               	.LM44:
 270 013c 660F      		lsl r22
 271 013e 771F      		rol r23
 272 0140 6227      		eor r22,r18
 273 0142 7327      		eor r23,r19
 274 0144 77FF      		sbrs r23,7
 275 0146 00C0      		rjmp .L23
 276               	.L28:
 277               	.LM45:
 278 0148 220F      		lsl r18
 279 014a 331F      		rol r19
 280               	.LVL31:
 281 014c 81E2      		ldi r24,lo8(4129)
 282 014e 90E1      		ldi r25,hi8(4129)
 283 0150 2827      		eor r18,r24
 284 0152 3927      		eor r19,r25
 285               	.L25:
 286               	.LM46:
 287 0154 C901      		movw r24,r18
 288               	/* epilogue: frame size=0 */
 289 0156 0895      		ret
 290               	/* epilogue end (size=1) */
 291               	/* function crcUpdate size 172 (171) */
 292               	.LFE6:
 294               	.global	rf12_trans
 296               	rf12_trans:
 297               	.LFB7:
 298               	.LM47:
 299               	/* prologue: frame size=0 */
 300               	/* prologue end (size=0) */
 301               	.LVL32:
 302 0158 9C01      		movw r18,r24
 303               	.LM48:
 304 015a C498      		cbi 56-0x20,4
 305               	.LM49:
 306 015c 892F      		mov r24,r25
 307 015e 9927      		clr r25
 308               	.LVL33:
 309 0160 8FB9      		out 47-0x20,r24
 310               	.L36:
 311               	.LM50:
 312 0162 779B      		sbis 46-0x20,7
 313 0164 00C0      		rjmp .L36
 314               	.LM51:
 315 0166 8FB1      		in r24,47-0x20
 316               	.LM52:
 317 0168 2FB9      		out 47-0x20,r18
 318               	.L38:
 319               	.LM53:
 320 016a 779B      		sbis 46-0x20,7
 321 016c 00C0      		rjmp .L38
 322               	.LM54:
 323 016e 2FB1      		in r18,47-0x20
 324               	.LVL34:
 325               	.LM55:
 326 0170 90E0      		ldi r25,lo8(0)
 327 0172 982F      		mov r25,r24
 328 0174 8827      		clr r24
 329               	.LVL35:
 330               	.LM56:
 331 0176 C49A      		sbi 56-0x20,4
 332               	.LM57:
 333 0178 820F      		add r24,r18
 334 017a 911D      		adc r25,__zero_reg__
 335               	.LVL36:
 336               	/* epilogue: frame size=0 */
 337 017c 0895      		ret
 338               	/* epilogue end (size=1) */
 339               	/* function rf12_trans size 19 (18) */
 340               	.LFE7:
 342               	.global	rf12_ready
 344               	rf12_ready:
 345               	.LFB13:
 346               	.LM58:
 347               	/* prologue: frame size=0 */
 348               	/* prologue end (size=0) */
 349               	.LM59:
 350 017e C498      		cbi 56-0x20,4
 351               	.LM60:
 352               	/* #APP */
 353 0180 0000      		nop
 354               	.LM61:
 355 0182 0000      		nop
 356               	.LM62:
 357 0184 0000      		nop
 358               	/* #NOAPP */
 359 0186 80E0      		ldi r24,lo8(0)
 360 0188 90E0      		ldi r25,hi8(0)
 361 018a A0E0      		ldi r26,hlo8(0)
 362 018c B0E0      		ldi r27,hhi8(0)
 363               	.LVL37:
 364 018e 00C0      		rjmp .L46
 365               	.L47:
 366               	.LM63:
 367 0190 813A      		cpi r24,lo8(100001)
 368 0192 26E8      		ldi r18,hi8(100001)
 369 0194 9207      		cpc r25,r18
 370 0196 21E0      		ldi r18,hlo8(100001)
 371 0198 A207      		cpc r26,r18
 372 019a 20E0      		ldi r18,hhi8(100001)
 373 019c B207      		cpc r27,r18
 374 019e 01F0      		breq .L48
 375 01a0 0196      		adiw r24,1
 376 01a2 A11D      		adc r26,__zero_reg__
 377 01a4 B11D      		adc r27,__zero_reg__
 378               	.L46:
 379               	.LM64:
 380 01a6 B69B      		sbis 54-0x20,6
 381 01a8 00C0      		rjmp .L47
 382               	.L48:
 383               	.LM65:
 384 01aa C49A      		sbi 56-0x20,4
 385               	/* epilogue: frame size=0 */
 386 01ac 0895      		ret
 387               	/* epilogue end (size=1) */
 388               	/* function rf12_ready size 27 (26) */
 389               	.LFE13:
 391               	.global	rf12_setpower
 393               	rf12_setpower:
 394               	.LFB12:
 395               	.LM66:
 396               	/* prologue: frame size=0 */
 397               	/* prologue end (size=0) */
 398               	.LVL38:
 399               	.LM67:
 400 01ae 282F      		mov r18,r24
 401 01b0 30E0      		ldi r19,lo8(0)
 402 01b2 2770      		andi r18,lo8(7)
 403 01b4 3070      		andi r19,hi8(7)
 404 01b6 3869      		ori r19,hi8(-26624)
 405 01b8 70E0      		ldi r23,lo8(0)
 406               	.LVL39:
 407 01ba 6F70      		andi r22,lo8(15)
 408 01bc 7070      		andi r23,hi8(15)
 409               	.LVL40:
 410 01be 6295      		swap r22
 411 01c0 7295      		swap r23
 412 01c2 707F      		andi r23,0xf0
 413 01c4 7627      		eor r23,r22
 414 01c6 607F      		andi r22,0xf0
 415 01c8 7627      		eor r23,r22
 416 01ca 262B      		or r18,r22
 417 01cc 372B      		or r19,r23
 418               	.LBB8:
 419               	.LBB9:
 420               	.LM68:
 421 01ce C498      		cbi 56-0x20,4
 422               	.LM69:
 423 01d0 832F      		mov r24,r19
 424 01d2 9927      		clr r25
 425               	.LVL41:
 426 01d4 8FB9      		out 47-0x20,r24
 427               	.L52:
 428               	.LM70:
 429 01d6 779B      		sbis 46-0x20,7
 430 01d8 00C0      		rjmp .L52
 431               	.LM71:
 432 01da 8FB1      		in r24,47-0x20
 433               	.LM72:
 434 01dc 2FB9      		out 47-0x20,r18
 435               	.L54:
 436               	.LM73:
 437 01de 779B      		sbis 46-0x20,7
 438 01e0 00C0      		rjmp .L54
 439               	.LM74:
 440 01e2 8FB1      		in r24,47-0x20
 441               	.LM75:
 442 01e4 C49A      		sbi 56-0x20,4
 443               	.LBE9:
 444               	.LBE8:
 445               	/* epilogue: frame size=0 */
 446 01e6 0895      		ret
 447               	/* epilogue end (size=1) */
 448               	/* function rf12_setpower size 29 (28) */
 449               	.LFE12:
 451               	.global	rf12_setbaud
 453               	rf12_setbaud:
 454               	.LFB11:
 455               	.LM76:
 456               	/* prologue: frame size=0 */
 457               	/* prologue end (size=0) */
 458               	.LVL42:
 459               	.LM77:
 460 01e8 22E0      		ldi r18,hi8(663)
 461 01ea 8739      		cpi r24,lo8(663)
 462 01ec 9207      		cpc r25,r18
 463 01ee 00F0      		brlo .L74
 464               	.LM78:
 465 01f0 25E1      		ldi r18,hi8(5400)
 466 01f2 8831      		cpi r24,lo8(5400)
 467 01f4 9207      		cpc r25,r18
 468 01f6 00F4      		brsh .L64
 469               	.LM79:
 470 01f8 9C01      		movw r18,r24
 471 01fa 40E0      		ldi r20,lo8(0)
 472 01fc 50E0      		ldi r21,hi8(0)
 473               	.LVL43:
 474 01fe 60E6      		ldi r22,lo8(43104)
 475 0200 78EA      		ldi r23,hi8(43104)
 476 0202 80E0      		ldi r24,hlo8(43104)
 477 0204 90E0      		ldi r25,hhi8(43104)
 478 0206 0E94 0000 		call __divmodsi4
 479 020a 2150      		subi r18,lo8(-(-1))
 480 020c 3040      		sbci r19,hi8(-(-1))
 481               	.LVL44:
 482 020e 2068      		ori r18,lo8(-14720)
 483 0210 366C      		ori r19,hi8(-14720)
 484               	.LBB14:
 485               	.LBB15:
 486               	.LM80:
 487 0212 C498      		cbi 56-0x20,4
 488               	.LM81:
 489 0214 832F      		mov r24,r19
 490 0216 9927      		clr r25
 491               	.LVL45:
 492 0218 8FB9      		out 47-0x20,r24
 493               	.L66:
 494               	.LM82:
 495 021a 779B      		sbis 46-0x20,7
 496 021c 00C0      		rjmp .L66
 497               	.LM83:
 498 021e 8FB1      		in r24,47-0x20
 499               	.LM84:
 500 0220 2FB9      		out 47-0x20,r18
 501               	.L68:
 502               	.LM85:
 503 0222 779B      		sbis 46-0x20,7
 504 0224 00C0      		rjmp .L68
 505               	.LM86:
 506 0226 8FB1      		in r24,47-0x20
 507               	.LM87:
 508 0228 C49A      		sbi 56-0x20,4
 509 022a 0895      		ret
 510               	.LVL46:
 511               	.L64:
 512               	.LBE15:
 513               	.LBE14:
 514               	.LM88:
 515 022c 9C01      		movw r18,r24
 516 022e 40E0      		ldi r20,lo8(0)
 517 0230 50E0      		ldi r21,hi8(0)
 518               	.LVL47:
 519 0232 6CEF      		ldi r22,lo8(344828)
 520 0234 72E4      		ldi r23,hi8(344828)
 521 0236 85E0      		ldi r24,hlo8(344828)
 522 0238 90E0      		ldi r25,hhi8(344828)
 523 023a 0E94 0000 		call __udivmodsi4
 524 023e 2150      		subi r18,lo8(-(-1))
 525 0240 3040      		sbci r19,hi8(-(-1))
 526               	.LVL48:
 527 0242 366C      		ori r19,hi8(-14848)
 528               	.LBB16:
 529               	.LBB17:
 530               	.LM89:
 531 0244 C498      		cbi 56-0x20,4
 532               	.LM90:
 533 0246 832F      		mov r24,r19
 534 0248 9927      		clr r25
 535               	.LVL49:
 536 024a 8FB9      		out 47-0x20,r24
 537               	.L70:
 538               	.LM91:
 539 024c 779B      		sbis 46-0x20,7
 540 024e 00C0      		rjmp .L70
 541               	.LM92:
 542 0250 8FB1      		in r24,47-0x20
 543               	.LM93:
 544 0252 2FB9      		out 47-0x20,r18
 545               	.L72:
 546               	.LM94:
 547 0254 779B      		sbis 46-0x20,7
 548 0256 00C0      		rjmp .L72
 549               	.LM95:
 550 0258 8FB1      		in r24,47-0x20
 551               	.LM96:
 552 025a C49A      		sbi 56-0x20,4
 553               	.LVL50:
 554               	.L74:
 555 025c 0895      		ret
 556               	.LBE17:
 557               	.LBE16:
 558               	/* epilogue: frame size=0 */
 559               	/* epilogue: noreturn */
 560               	/* epilogue end (size=0) */
 561               	/* function rf12_setbaud size 59 (59) */
 562               	.LFE11:
 564               	.global	rf12_setfreq
 566               	rf12_setfreq:
 567               	.LFB10:
 568               	.LM97:
 569               	/* prologue: frame size=0 */
 570               	/* prologue end (size=0) */
 571               	.LVL51:
 572               	.LM98:
 573 025e 8036      		cpi r24,96
 574 0260 9105      		cpc r25,__zero_reg__
 575 0262 00F4      		brsh .L84
 576               	.LM99:
 577 0264 20E6      		ldi r18,lo8(-24480)
 578 0266 30EA      		ldi r19,hi8(-24480)
 579 0268 80EA      		ldi r24,lo8(-96)
 580               	.LVL52:
 581               	.L86:
 582               	.LBB20:
 583               	.LBB21:
 584               	.LM100:
 585 026a C498      		cbi 56-0x20,4
 586               	.LM101:
 587 026c 8FB9      		out 47-0x20,r24
 588               	.L88:
 589               	.LM102:
 590 026e 779B      		sbis 46-0x20,7
 591 0270 00C0      		rjmp .L88
 592               	.LM103:
 593 0272 8FB1      		in r24,47-0x20
 594               	.LM104:
 595 0274 2FB9      		out 47-0x20,r18
 596               	.L90:
 597               	.LM105:
 598 0276 779B      		sbis 46-0x20,7
 599 0278 00C0      		rjmp .L90
 600 027a 00C0      		rjmp .L99
 601               	.LVL53:
 602               	.L84:
 603               	.LBE21:
 604               	.LBE20:
 605               	.LM106:
 606 027c 2FE0      		ldi r18,hi8(3904)
 607 027e 8034      		cpi r24,lo8(3904)
 608 0280 9207      		cpc r25,r18
 609 0282 00F4      		brsh .L98
 610 0284 9C01      		movw r18,r24
 611 0286 306A      		ori r19,hi8(-24576)
 612 0288 832F      		mov r24,r19
 613 028a 9927      		clr r25
 614               	.LVL54:
 615 028c 00C0      		rjmp .L86
 616               	.LVL55:
 617               	.L98:
 618 028e 8FE3      		ldi r24,lo8(3903)
 619 0290 9FE0      		ldi r25,hi8(3903)
 620               	.LVL56:
 621 0292 9C01      		movw r18,r24
 622 0294 306A      		ori r19,hi8(-24576)
 623 0296 832F      		mov r24,r19
 624 0298 9927      		clr r25
 625               	.LVL57:
 626 029a 00C0      		rjmp .L86
 627               	.L99:
 628               	.LBB23:
 629               	.LBB22:
 630               	.LM107:
 631 029c 8FB1      		in r24,47-0x20
 632               	.LM108:
 633 029e C49A      		sbi 56-0x20,4
 634               	.LBE22:
 635               	.LBE23:
 636               	/* epilogue: frame size=0 */
 637 02a0 0895      		ret
 638               	/* epilogue end (size=1) */
 639               	/* function rf12_setfreq size 34 (33) */
 640               	.LFE10:
 642               	.global	rf12_setbandwidth
 644               	rf12_setbandwidth:
 645               	.LFB9:
 646               	.LM109:
 647               	/* prologue: frame size=0 */
 648               	/* prologue end (size=0) */
 649               	.LVL58:
 650               	.LM110:
 651 02a2 282F      		mov r18,r24
 652 02a4 30E0      		ldi r19,lo8(0)
 653 02a6 2770      		andi r18,lo8(7)
 654 02a8 3070      		andi r19,hi8(7)
 655 02aa 220F      		lsl r18
 656 02ac 331F      		rol r19
 657 02ae 2295      		swap r18
 658 02b0 3295      		swap r19
 659 02b2 307F      		andi r19,0xf0
 660 02b4 3227      		eor r19,r18
 661 02b6 207F      		andi r18,0xf0
 662 02b8 3227      		eor r19,r18
 663 02ba 50E0      		ldi r21,lo8(0)
 664               	.LVL59:
 665 02bc 4770      		andi r20,lo8(7)
 666 02be 5070      		andi r21,hi8(7)
 667               	.LVL60:
 668 02c0 242B      		or r18,r20
 669 02c2 352B      		or r19,r21
 670 02c4 3469      		ori r19,hi8(-27648)
 671 02c6 70E0      		ldi r23,lo8(0)
 672               	.LVL61:
 673 02c8 6370      		andi r22,lo8(3)
 674 02ca 7070      		andi r23,hi8(3)
 675               	.LVL62:
 676 02cc 660F      		lsl r22
 677 02ce 771F      		rol r23
 678 02d0 660F      		lsl r22
 679 02d2 771F      		rol r23
 680 02d4 660F      		lsl r22
 681 02d6 771F      		rol r23
 682 02d8 262B      		or r18,r22
 683 02da 372B      		or r19,r23
 684               	.LBB26:
 685               	.LBB27:
 686               	.LM111:
 687 02dc C498      		cbi 56-0x20,4
 688               	.LM112:
 689 02de 832F      		mov r24,r19
 690 02e0 9927      		clr r25
 691               	.LVL63:
 692 02e2 8FB9      		out 47-0x20,r24
 693               	.L101:
 694               	.LM113:
 695 02e4 779B      		sbis 46-0x20,7
 696 02e6 00C0      		rjmp .L101
 697               	.LM114:
 698 02e8 8FB1      		in r24,47-0x20
 699               	.LM115:
 700 02ea 2FB9      		out 47-0x20,r18
 701               	.L103:
 702               	.LM116:
 703 02ec 779B      		sbis 46-0x20,7
 704 02ee 00C0      		rjmp .L103
 705               	.LM117:
 706 02f0 8FB1      		in r24,47-0x20
 707               	.LM118:
 708 02f2 C49A      		sbi 56-0x20,4
 709               	.LBE27:
 710               	.LBE26:
 711               	/* epilogue: frame size=0 */
 712 02f4 0895      		ret
 713               	/* epilogue end (size=1) */
 714               	/* function rf12_setbandwidth size 42 (41) */
 715               	.LFE9:
 717               	.global	rf12_init
 719               	rf12_init:
 720               	.LFB8:
 721               	.LM119:
 722               	/* prologue: frame size=0 */
 723               	/* prologue end (size=0) */
 724               	.LM120:
 725 02f6 87B3      		in r24,55-0x20
 726 02f8 806B      		ori r24,lo8(-80)
 727 02fa 87BB      		out 55-0x20,r24
 728               	.LM121:
 729 02fc BE98      		cbi 55-0x20,6
 730               	.LM122:
 731 02fe C49A      		sbi 56-0x20,4
 732               	.LM123:
 733 0300 83E5      		ldi r24,lo8(83)
 734 0302 8DB9      		out 45-0x20,r24
 735               	.LM124:
 736 0304 8EB1      		in r24,46-0x20
 737 0306 8EB9      		out 46-0x20,r24
 738               	.LBB50:
 739               	.LBB51:
 740               	.LBB52:
 741               	.LBB53:
 742               	.LM125:
 743 0308 8FEF      		ldi r24,lo8(27647)
 744 030a 9BE6      		ldi r25,hi8(27647)
 745 030c FC01      		movw r30,r24
 746               	.LVL64:
 747               	/* #APP */
 748 030e 3197      		1: sbiw r30,1
 749 0310 01F4      		brne 1b
 750               	/* #NOAPP */
 751 0312 FC01      		movw r30,r24
 752               	.LVL65:
 753               	/* #APP */
 754 0314 3197      		1: sbiw r30,1
 755 0316 01F4      		brne 1b
 756               	/* #NOAPP */
 757 0318 FC01      		movw r30,r24
 758               	.LVL66:
 759               	/* #APP */
 760 031a 3197      		1: sbiw r30,1
 761 031c 01F4      		brne 1b
 762               	/* #NOAPP */
 763 031e FC01      		movw r30,r24
 764               	.LVL67:
 765               	/* #APP */
 766 0320 3197      		1: sbiw r30,1
 767 0322 01F4      		brne 1b
 768               	/* #NOAPP */
 769 0324 FC01      		movw r30,r24
 770               	.LVL68:
 771               	/* #APP */
 772 0326 3197      		1: sbiw r30,1
 773 0328 01F4      		brne 1b
 774               	/* #NOAPP */
 775 032a FC01      		movw r30,r24
 776               	.LVL69:
 777               	/* #APP */
 778 032c 3197      		1: sbiw r30,1
 779 032e 01F4      		brne 1b
 780               	/* #NOAPP */
 781 0330 FC01      		movw r30,r24
 782               	.LVL70:
 783               	/* #APP */
 784 0332 3197      		1: sbiw r30,1
 785 0334 01F4      		brne 1b
 786               	/* #NOAPP */
 787 0336 FC01      		movw r30,r24
 788               	.LVL71:
 789               	/* #APP */
 790 0338 3197      		1: sbiw r30,1
 791 033a 01F4      		brne 1b
 792               	/* #NOAPP */
 793 033c FC01      		movw r30,r24
 794               	.LVL72:
 795               	/* #APP */
 796 033e 3197      		1: sbiw r30,1
 797 0340 01F4      		brne 1b
 798 0342 0197      		1: sbiw r24,1
 799 0344 01F4      		brne 1b
 800               	.LVL73:
 801               	/* #NOAPP */
 802               	.LBE53:
 803               	.LBE52:
 804               	.LBE51:
 805               	.LBE50:
 806               	.LBB54:
 807               	.LBB55:
 808               	.LM126:
 809 0346 C498      		cbi 56-0x20,4
 810               	.LM127:
 811 0348 80EC      		ldi r24,lo8(-64)
 812               	.LVL74:
 813 034a 8FB9      		out 47-0x20,r24
 814               	.L111:
 815               	.LM128:
 816 034c 779B      		sbis 46-0x20,7
 817 034e 00C0      		rjmp .L111
 818               	.LM129:
 819 0350 8FB1      		in r24,47-0x20
 820               	.LM130:
 821 0352 80EE      		ldi r24,lo8(-32)
 822 0354 8FB9      		out 47-0x20,r24
 823               	.L113:
 824               	.LM131:
 825 0356 779B      		sbis 46-0x20,7
 826 0358 00C0      		rjmp .L113
 827               	.LM132:
 828 035a 8FB1      		in r24,47-0x20
 829               	.LM133:
 830 035c C49A      		sbi 56-0x20,4
 831               	.LBE55:
 832               	.LBE54:
 833               	.LBB56:
 834               	.LBB57:
 835               	.LM134:
 836 035e C498      		cbi 56-0x20,4
 837               	.LM135:
 838 0360 80E8      		ldi r24,lo8(-128)
 839 0362 8FB9      		out 47-0x20,r24
 840               	.L115:
 841               	.LM136:
 842 0364 779B      		sbis 46-0x20,7
 843 0366 00C0      		rjmp .L115
 844               	.LM137:
 845 0368 8FB1      		in r24,47-0x20
 846               	.LM138:
 847 036a 87ED      		ldi r24,lo8(-41)
 848 036c 8FB9      		out 47-0x20,r24
 849               	.L117:
 850               	.LM139:
 851 036e 779B      		sbis 46-0x20,7
 852 0370 00C0      		rjmp .L117
 853               	.LM140:
 854 0372 8FB1      		in r24,47-0x20
 855               	.LM141:
 856 0374 C49A      		sbi 56-0x20,4
 857               	.LBE57:
 858               	.LBE56:
 859               	.LBB58:
 860               	.LBB59:
 861               	.LM142:
 862 0376 C498      		cbi 56-0x20,4
 863               	.LM143:
 864 0378 82EC      		ldi r24,lo8(-62)
 865 037a 8FB9      		out 47-0x20,r24
 866               	.L119:
 867               	.LM144:
 868 037c 779B      		sbis 46-0x20,7
 869 037e 00C0      		rjmp .L119
 870               	.LM145:
 871 0380 8FB1      		in r24,47-0x20
 872               	.LM146:
 873 0382 8BEA      		ldi r24,lo8(-85)
 874 0384 8FB9      		out 47-0x20,r24
 875               	.L121:
 876               	.LM147:
 877 0386 779B      		sbis 46-0x20,7
 878 0388 00C0      		rjmp .L121
 879               	.LM148:
 880 038a 8FB1      		in r24,47-0x20
 881               	.LM149:
 882 038c C49A      		sbi 56-0x20,4
 883               	.LBE59:
 884               	.LBE58:
 885               	.LBB60:
 886               	.LBB61:
 887               	.LM150:
 888 038e C498      		cbi 56-0x20,4
 889               	.LM151:
 890 0390 8AEC      		ldi r24,lo8(-54)
 891 0392 8FB9      		out 47-0x20,r24
 892               	.L123:
 893               	.LM152:
 894 0394 779B      		sbis 46-0x20,7
 895 0396 00C0      		rjmp .L123
 896               	.LM153:
 897 0398 8FB1      		in r24,47-0x20
 898               	.LM154:
 899 039a 81E8      		ldi r24,lo8(-127)
 900 039c 8FB9      		out 47-0x20,r24
 901               	.L125:
 902               	.LM155:
 903 039e 779B      		sbis 46-0x20,7
 904 03a0 00C0      		rjmp .L125
 905               	.LM156:
 906 03a2 8FB1      		in r24,47-0x20
 907               	.LM157:
 908 03a4 C49A      		sbi 56-0x20,4
 909               	.LBE61:
 910               	.LBE60:
 911               	.LBB62:
 912               	.LBB63:
 913               	.LM158:
 914 03a6 C498      		cbi 56-0x20,4
 915               	.LM159:
 916 03a8 80EE      		ldi r24,lo8(-32)
 917 03aa 8FB9      		out 47-0x20,r24
 918               	.L127:
 919               	.LM160:
 920 03ac 779B      		sbis 46-0x20,7
 921 03ae 00C0      		rjmp .L127
 922               	.LM161:
 923 03b0 8FB1      		in r24,47-0x20
 924               	.LM162:
 925 03b2 1FB8      		out 47-0x20,__zero_reg__
 926               	.L129:
 927               	.LM163:
 928 03b4 779B      		sbis 46-0x20,7
 929 03b6 00C0      		rjmp .L129
 930               	.LM164:
 931 03b8 8FB1      		in r24,47-0x20
 932               	.LM165:
 933 03ba C49A      		sbi 56-0x20,4
 934               	.LBE63:
 935               	.LBE62:
 936               	.LBB64:
 937               	.LBB65:
 938               	.LM166:
 939 03bc C498      		cbi 56-0x20,4
 940               	.LM167:
 941 03be 88EC      		ldi r24,lo8(-56)
 942 03c0 8FB9      		out 47-0x20,r24
 943               	.L131:
 944               	.LM168:
 945 03c2 779B      		sbis 46-0x20,7
 946 03c4 00C0      		rjmp .L131
 947               	.LM169:
 948 03c6 8FB1      		in r24,47-0x20
 949               	.LM170:
 950 03c8 1FB8      		out 47-0x20,__zero_reg__
 951               	.L133:
 952               	.LM171:
 953 03ca 779B      		sbis 46-0x20,7
 954 03cc 00C0      		rjmp .L133
 955               	.LM172:
 956 03ce 8FB1      		in r24,47-0x20
 957               	.LM173:
 958 03d0 C49A      		sbi 56-0x20,4
 959               	.LBE65:
 960               	.LBE64:
 961               	.LBB66:
 962               	.LBB67:
 963               	.LM174:
 964 03d2 C498      		cbi 56-0x20,4
 965               	.LM175:
 966 03d4 84EC      		ldi r24,lo8(-60)
 967 03d6 8FB9      		out 47-0x20,r24
 968               	.L135:
 969               	.LM176:
 970 03d8 779B      		sbis 46-0x20,7
 971 03da 00C0      		rjmp .L135
 972               	.LM177:
 973 03dc 8FB1      		in r24,47-0x20
 974               	.LM178:
 975 03de 87EF      		ldi r24,lo8(-9)
 976 03e0 8FB9      		out 47-0x20,r24
 977               	.L137:
 978               	.LM179:
 979 03e2 779B      		sbis 46-0x20,7
 980 03e4 00C0      		rjmp .L137
 981               	.LM180:
 982 03e6 8FB1      		in r24,47-0x20
 983               	.LM181:
 984 03e8 C49A      		sbi 56-0x20,4
 985               	.LBE67:
 986               	.LBE66:
 987               	.LBB68:
 988               	.LBB69:
 989               	.LM182:
 990 03ea C498      		cbi 56-0x20,4
 991               	.LM183:
 992 03ec 1FB8      		out 47-0x20,__zero_reg__
 993               	.L139:
 994               	.LM184:
 995 03ee 779B      		sbis 46-0x20,7
 996 03f0 00C0      		rjmp .L139
 997               	.LM185:
 998 03f2 8FB1      		in r24,47-0x20
 999               	.LM186:
 1000 03f4 1FB8      		out 47-0x20,__zero_reg__
 1001               	.L141:
 1002               	.LM187:
 1003 03f6 779B      		sbis 46-0x20,7
 1004 03f8 00C0      		rjmp .L141
 1005               	.LM188:
 1006 03fa 8FB1      		in r24,47-0x20
 1007               	.LM189:
 1008 03fc C49A      		sbi 56-0x20,4
 1009               	.LBE69:
 1010               	.LBE68:
 1011               	/* epilogue: frame size=0 */
 1012 03fe 0895      		ret
 1013               	/* epilogue end (size=1) */
 1014               	/* function rf12_init size 153 (152) */
 1015               	.LFE8:
 1017               	.global	rf12_rxdata
 1019               	rf12_rxdata:
 1020               	.LFB15:
 1021               	.LM190:
 1022               	/* prologue: frame size=0 */
 1023 0400 EF92      		push r14
 1024 0402 FF92      		push r15
 1025 0404 1F93      		push r17
 1026 0406 CF93      		push r28
 1027 0408 DF93      		push r29
 1028               	/* prologue end (size=5) */
 1029               	.LVL75:
 1030 040a 7C01      		movw r14,r24
 1031               	.LBB98:
 1032               	.LBB99:
 1033               	.LM191:
 1034 040c C498      		cbi 56-0x20,4
 1035               	.LM192:
 1036 040e 82E8      		ldi r24,lo8(-126)
 1037               	.LVL76:
 1038 0410 8FB9      		out 47-0x20,r24
 1039               	.L177:
 1040               	.LM193:
 1041 0412 779B      		sbis 46-0x20,7
 1042 0414 00C0      		rjmp .L177
 1043               	.LM194:
 1044 0416 8FB1      		in r24,47-0x20
 1045               	.LM195:
 1046 0418 88EC      		ldi r24,lo8(-56)
 1047 041a 8FB9      		out 47-0x20,r24
 1048               	.L179:
 1049               	.LM196:
 1050 041c 779B      		sbis 46-0x20,7
 1051 041e 00C0      		rjmp .L179
 1052               	.LM197:
 1053 0420 8FB1      		in r24,47-0x20
 1054               	.LM198:
 1055 0422 C49A      		sbi 56-0x20,4
 1056               	.LBE99:
 1057               	.LBE98:
 1058               	.LBB100:
 1059               	.LBB101:
 1060               	.LM199:
 1061 0424 C498      		cbi 56-0x20,4
 1062               	.LM200:
 1063 0426 8AEC      		ldi r24,lo8(-54)
 1064 0428 8FB9      		out 47-0x20,r24
 1065               	.L181:
 1066               	.LM201:
 1067 042a 779B      		sbis 46-0x20,7
 1068 042c 00C0      		rjmp .L181
 1069               	.LM202:
 1070 042e 8FB1      		in r24,47-0x20
 1071               	.LM203:
 1072 0430 81E8      		ldi r24,lo8(-127)
 1073 0432 8FB9      		out 47-0x20,r24
 1074               	.L183:
 1075               	.LM204:
 1076 0434 779B      		sbis 46-0x20,7
 1077 0436 00C0      		rjmp .L183
 1078               	.LM205:
 1079 0438 8FB1      		in r24,47-0x20
 1080               	.LM206:
 1081 043a C49A      		sbi 56-0x20,4
 1082               	.LBE101:
 1083               	.LBE100:
 1084               	.LBB102:
 1085               	.LBB103:
 1086               	.LM207:
 1087 043c C498      		cbi 56-0x20,4
 1088               	.LM208:
 1089 043e 8AEC      		ldi r24,lo8(-54)
 1090 0440 8FB9      		out 47-0x20,r24
 1091               	.L185:
 1092               	.LM209:
 1093 0442 779B      		sbis 46-0x20,7
 1094 0444 00C0      		rjmp .L185
 1095               	.LM210:
 1096 0446 8FB1      		in r24,47-0x20
 1097               	.LM211:
 1098 0448 83E8      		ldi r24,lo8(-125)
 1099 044a 8FB9      		out 47-0x20,r24
 1100               	.L187:
 1101               	.LM212:
 1102 044c 779B      		sbis 46-0x20,7
 1103 044e 00C0      		rjmp .L187
 1104               	.LM213:
 1105 0450 8FB1      		in r24,47-0x20
 1106               	.LM214:
 1107 0452 C49A      		sbi 56-0x20,4
 1108               	.LBE103:
 1109               	.LBE102:
 1110               	.LM215:
 1111               	/* #APP */
 1112 0454 F894      		cli
 1113               	/* #NOAPP */
 1114               	.LBB104:
 1115               	.LBB105:
 1116               	.LM216:
 1117 0456 C498      		cbi 56-0x20,4
 1118               	.LM217:
 1119               	/* #APP */
 1120 0458 0000      		nop
 1121               	.LM218:
 1122 045a 0000      		nop
 1123               	.LM219:
 1124 045c 0000      		nop
 1125               	/* #NOAPP */
 1126 045e 80E0      		ldi r24,lo8(0)
 1127 0460 90E0      		ldi r25,hi8(0)
 1128 0462 A0E0      		ldi r26,hlo8(0)
 1129 0464 B0E0      		ldi r27,hhi8(0)
 1130               	.LVL77:
 1131 0466 00C0      		rjmp .L189
 1132               	.L190:
 1133               	.LM220:
 1134 0468 813A      		cpi r24,lo8(100001)
 1135 046a 26E8      		ldi r18,hi8(100001)
 1136 046c 9207      		cpc r25,r18
 1137 046e 21E0      		ldi r18,hlo8(100001)
 1138 0470 A207      		cpc r26,r18
 1139 0472 20E0      		ldi r18,hhi8(100001)
 1140 0474 B207      		cpc r27,r18
 1141 0476 01F0      		breq .L191
 1142 0478 0196      		adiw r24,1
 1143 047a A11D      		adc r26,__zero_reg__
 1144 047c B11D      		adc r27,__zero_reg__
 1145               	.L189:
 1146               	.LM221:
 1147 047e B69B      		sbis 54-0x20,6
 1148 0480 00C0      		rjmp .L190
 1149               	.L191:
 1150               	.LM222:
 1151 0482 C49A      		sbi 56-0x20,4
 1152               	.LBE105:
 1153               	.LBE104:
 1154               	.LBB106:
 1155               	.LBB107:
 1156               	.LM223:
 1157 0484 C498      		cbi 56-0x20,4
 1158               	.LM224:
 1159 0486 80EB      		ldi r24,lo8(-80)
 1160               	.LVL78:
 1161 0488 8FB9      		out 47-0x20,r24
 1162               	.L193:
 1163               	.LM225:
 1164 048a 779B      		sbis 46-0x20,7
 1165 048c 00C0      		rjmp .L193
 1166               	.LM226:
 1167 048e 8FB1      		in r24,47-0x20
 1168               	.LM227:
 1169 0490 1FB8      		out 47-0x20,__zero_reg__
 1170               	.L195:
 1171               	.LM228:
 1172 0492 779B      		sbis 46-0x20,7
 1173 0494 00C0      		rjmp .L195
 1174               	.LM229:
 1175 0496 8FB1      		in r24,47-0x20
 1176               	.LM230:
 1177 0498 C49A      		sbi 56-0x20,4
 1178               	.LBE107:
 1179               	.LBE106:
 1180               	.LM231:
 1181 049a 182F      		mov r17,r24
 1182               	.LVL79:
 1183 049c 893C      		cpi r24,lo8(-55)
 1184 049e 00F0      		brlo .L197
 1185               	.LVL80:
 1186 04a0 18EC      		ldi r17,lo8(-56)
 1187               	.LVL81:
 1188               	.L197:
 1189               	.LBB108:
 1190               	.LBB109:
 1191               	.LM232:
 1192 04a2 C12F      		mov r28,r17
 1193 04a4 D0E0      		ldi r29,lo8(0)
 1194               	.LM233:
 1195 04a6 9C2F      		mov r25,r28
 1196 04a8 8827      		clr r24
 1197               	.LVL82:
 1198 04aa 17FD      		sbrc r17,7
 1199 04ac 00C0      		rjmp .L313
 1200               	.LVL83:
 1201 04ae 20E0      		ldi r18,lo8(0)
 1202 04b0 30E0      		ldi r19,hi8(0)
 1203               	.LVL84:
 1204               	.LM234:
 1205 04b2 AC01      		movw r20,r24
 1206 04b4 440F      		lsl r20
 1207 04b6 551F      		rol r21
 1208               	.LVL85:
 1209               	.LM235:
 1210 04b8 C901      		movw r24,r18
 1211 04ba 8427      		eor r24,r20
 1212 04bc 9527      		eor r25,r21
 1213 04be 97FD      		sbrc r25,7
 1214 04c0 00C0      		rjmp .L201
 1215               	.L316:
 1216               	.LM236:
 1217 04c2 220F      		lsl r18
 1218 04c4 331F      		rol r19
 1219               	.LVL86:
 1220               	.LM237:
 1221 04c6 440F      		lsl r20
 1222 04c8 551F      		rol r21
 1223               	.LVL87:
 1224               	.LM238:
 1225 04ca C901      		movw r24,r18
 1226 04cc 8427      		eor r24,r20
 1227 04ce 9527      		eor r25,r21
 1228 04d0 97FD      		sbrc r25,7
 1229 04d2 00C0      		rjmp .L204
 1230               	.L317:
 1231               	.LM239:
 1232 04d4 220F      		lsl r18
 1233 04d6 331F      		rol r19
 1234               	.LVL88:
 1235               	.LM240:
 1236 04d8 440F      		lsl r20
 1237 04da 551F      		rol r21
 1238               	.LVL89:
 1239               	.LM241:
 1240 04dc C901      		movw r24,r18
 1241 04de 8427      		eor r24,r20
 1242 04e0 9527      		eor r25,r21
 1243 04e2 97FD      		sbrc r25,7
 1244 04e4 00C0      		rjmp .L207
 1245               	.L318:
 1246               	.LM242:
 1247 04e6 220F      		lsl r18
 1248 04e8 331F      		rol r19
 1249               	.LVL90:
 1250               	.LM243:
 1251 04ea 440F      		lsl r20
 1252 04ec 551F      		rol r21
 1253               	.LVL91:
 1254               	.LM244:
 1255 04ee C901      		movw r24,r18
 1256 04f0 8427      		eor r24,r20
 1257 04f2 9527      		eor r25,r21
 1258 04f4 97FD      		sbrc r25,7
 1259 04f6 00C0      		rjmp .L210
 1260               	.L319:
 1261               	.LM245:
 1262 04f8 220F      		lsl r18
 1263 04fa 331F      		rol r19
 1264               	.LVL92:
 1265               	.LM246:
 1266 04fc BA01      		movw r22,r20
 1267 04fe 660F      		lsl r22
 1268 0500 771F      		rol r23
 1269               	.LVL93:
 1270               	.LM247:
 1271 0502 C901      		movw r24,r18
 1272 0504 8627      		eor r24,r22
 1273 0506 9727      		eor r25,r23
 1274 0508 97FD      		sbrc r25,7
 1275 050a 00C0      		rjmp .L213
 1276               	.L320:
 1277               	.LM248:
 1278 050c A901      		movw r20,r18
 1279 050e 440F      		lsl r20
 1280 0510 551F      		rol r21
 1281               	.LVL94:
 1282               	.LM249:
 1283 0512 9B01      		movw r18,r22
 1284 0514 220F      		lsl r18
 1285 0516 331F      		rol r19
 1286               	.LVL95:
 1287               	.LM250:
 1288 0518 CA01      		movw r24,r20
 1289 051a 8227      		eor r24,r18
 1290 051c 9327      		eor r25,r19
 1291 051e 97FD      		sbrc r25,7
 1292 0520 00C0      		rjmp .L216
 1293               	.L321:
 1294               	.LM251:
 1295 0522 440F      		lsl r20
 1296 0524 551F      		rol r21
 1297               	.LVL96:
 1298               	.LM252:
 1299 0526 220F      		lsl r18
 1300 0528 331F      		rol r19
 1301 052a 2427      		eor r18,r20
 1302 052c 3527      		eor r19,r21
 1303 052e 37FD      		sbrc r19,7
 1304 0530 00C0      		rjmp .L314
 1305               	.L219:
 1306               	.LM253:
 1307 0532 440F      		lsl r20
 1308 0534 551F      		rol r21
 1309               	.LVL97:
 1310               	.L221:
 1311               	.LBE109:
 1312               	.LBE108:
 1313               	.LM254:
 1314 0536 1123      		tst r17
 1315               	.LVL98:
 1316 0538 01F4      		brne .+2
 1317 053a 00C0      		rjmp .L222
 1318 053c F701      		movw r30,r14
 1319 053e 60E0      		ldi r22,lo8(0)
 1320               	.LVL99:
 1321               	.L224:
 1322               	.LBB111:
 1323               	.LBB112:
 1324               	.LM255:
 1325 0540 C498      		cbi 56-0x20,4
 1326               	.LM256:
 1327               	/* #APP */
 1328 0542 0000      		nop
 1329               	.LM257:
 1330 0544 0000      		nop
 1331               	.LM258:
 1332 0546 0000      		nop
 1333               	/* #NOAPP */
 1334 0548 80E0      		ldi r24,lo8(0)
 1335 054a 90E0      		ldi r25,hi8(0)
 1336 054c A0E0      		ldi r26,hlo8(0)
 1337 054e B0E0      		ldi r27,hhi8(0)
 1338               	.LVL100:
 1339 0550 00C0      		rjmp .L225
 1340               	.L226:
 1341               	.LM259:
 1342 0552 813A      		cpi r24,lo8(100001)
 1343 0554 36E8      		ldi r19,hi8(100001)
 1344 0556 9307      		cpc r25,r19
 1345 0558 31E0      		ldi r19,hlo8(100001)
 1346 055a A307      		cpc r26,r19
 1347 055c 30E0      		ldi r19,hhi8(100001)
 1348 055e B307      		cpc r27,r19
 1349               	.LVL101:
 1350 0560 01F0      		breq .L227
 1351 0562 0196      		adiw r24,1
 1352 0564 A11D      		adc r26,__zero_reg__
 1353 0566 B11D      		adc r27,__zero_reg__
 1354               	.LVL102:
 1355               	.L225:
 1356               	.LM260:
 1357 0568 B69B      		sbis 54-0x20,6
 1358 056a 00C0      		rjmp .L226
 1359               	.L227:
 1360               	.LM261:
 1361 056c C49A      		sbi 56-0x20,4
 1362               	.LBE112:
 1363               	.LBE111:
 1364               	.LBB113:
 1365               	.LBB114:
 1366               	.LM262:
 1367 056e C498      		cbi 56-0x20,4
 1368               	.LM263:
 1369 0570 80EB      		ldi r24,lo8(-80)
 1370               	.LVL103:
 1371 0572 8FB9      		out 47-0x20,r24
 1372               	.L229:
 1373               	.LM264:
 1374 0574 779B      		sbis 46-0x20,7
 1375 0576 00C0      		rjmp .L229
 1376               	.LM265:
 1377 0578 2FB1      		in r18,47-0x20
 1378               	.LVL104:
 1379               	.LM266:
 1380 057a 1FB8      		out 47-0x20,__zero_reg__
 1381               	.L231:
 1382               	.LM267:
 1383 057c 779B      		sbis 46-0x20,7
 1384 057e 00C0      		rjmp .L231
 1385               	.LM268:
 1386 0580 8FB1      		in r24,47-0x20
 1387               	.LM269:
 1388 0582 30E0      		ldi r19,lo8(0)
 1389               	.LVL105:
 1390 0584 322F      		mov r19,r18
 1391 0586 2227      		clr r18
 1392               	.LM270:
 1393 0588 C49A      		sbi 56-0x20,4
 1394               	.LBE114:
 1395               	.LBE113:
 1396               	.LM271:
 1397 058a 280F      		add r18,r24
 1398 058c 311D      		adc r19,__zero_reg__
 1399 058e 2083      		st Z,r18
 1400               	.LBB115:
 1401               	.LBB116:
 1402               	.LM272:
 1403 0590 30E0      		ldi r19,lo8(0)
 1404               	.LVL106:
 1405 0592 322F      		mov r19,r18
 1406 0594 2227      		clr r18
 1407               	.LVL107:
 1408               	.LM273:
 1409 0596 C901      		movw r24,r18
 1410 0598 8427      		eor r24,r20
 1411 059a 9527      		eor r25,r21
 1412 059c 97FD      		sbrc r25,7
 1413 059e 00C0      		rjmp .L233
 1414               	.LM274:
 1415 05a0 440F      		lsl r20
 1416 05a2 551F      		rol r21
 1417               	.LVL108:
 1418               	.L235:
 1419               	.LM275:
 1420 05a4 220F      		lsl r18
 1421 05a6 331F      		rol r19
 1422               	.LVL109:
 1423               	.LM276:
 1424 05a8 CA01      		movw r24,r20
 1425 05aa 8227      		eor r24,r18
 1426 05ac 9327      		eor r25,r19
 1427 05ae 97FD      		sbrc r25,7
 1428 05b0 00C0      		rjmp .L236
 1429               	.LM277:
 1430 05b2 440F      		lsl r20
 1431 05b4 551F      		rol r21
 1432               	.LVL110:
 1433               	.L238:
 1434               	.LM278:
 1435 05b6 220F      		lsl r18
 1436 05b8 331F      		rol r19
 1437               	.LVL111:
 1438               	.LM279:
 1439 05ba CA01      		movw r24,r20
 1440 05bc 8227      		eor r24,r18
 1441 05be 9327      		eor r25,r19
 1442 05c0 97FD      		sbrc r25,7
 1443 05c2 00C0      		rjmp .L239
 1444               	.LM280:
 1445 05c4 440F      		lsl r20
 1446 05c6 551F      		rol r21
 1447               	.LVL112:
 1448               	.L241:
 1449               	.LM281:
 1450 05c8 220F      		lsl r18
 1451 05ca 331F      		rol r19
 1452               	.LVL113:
 1453               	.LM282:
 1454 05cc CA01      		movw r24,r20
 1455 05ce 8227      		eor r24,r18
 1456 05d0 9327      		eor r25,r19
 1457 05d2 97FD      		sbrc r25,7
 1458 05d4 00C0      		rjmp .L242
 1459               	.LM283:
 1460 05d6 440F      		lsl r20
 1461 05d8 551F      		rol r21
 1462               	.LVL114:
 1463               	.L244:
 1464               	.LM284:
 1465 05da 220F      		lsl r18
 1466 05dc 331F      		rol r19
 1467               	.LVL115:
 1468               	.LM285:
 1469 05de CA01      		movw r24,r20
 1470 05e0 8227      		eor r24,r18
 1471 05e2 9327      		eor r25,r19
 1472 05e4 97FD      		sbrc r25,7
 1473 05e6 00C0      		rjmp .L245
 1474               	.LM286:
 1475 05e8 440F      		lsl r20
 1476 05ea 551F      		rol r21
 1477               	.LVL116:
 1478               	.L247:
 1479               	.LM287:
 1480 05ec 220F      		lsl r18
 1481 05ee 331F      		rol r19
 1482               	.LVL117:
 1483               	.LM288:
 1484 05f0 CA01      		movw r24,r20
 1485 05f2 8227      		eor r24,r18
 1486 05f4 9327      		eor r25,r19
 1487 05f6 97FD      		sbrc r25,7
 1488 05f8 00C0      		rjmp .L248
 1489               	.LM289:
 1490 05fa 440F      		lsl r20
 1491 05fc 551F      		rol r21
 1492               	.LVL118:
 1493               	.L250:
 1494               	.LM290:
 1495 05fe 220F      		lsl r18
 1496 0600 331F      		rol r19
 1497               	.LVL119:
 1498               	.LM291:
 1499 0602 CA01      		movw r24,r20
 1500 0604 8227      		eor r24,r18
 1501 0606 9327      		eor r25,r19
 1502 0608 97FD      		sbrc r25,7
 1503 060a 00C0      		rjmp .L251
 1504               	.LM292:
 1505 060c 440F      		lsl r20
 1506 060e 551F      		rol r21
 1507               	.LVL120:
 1508               	.L253:
 1509               	.LM293:
 1510 0610 220F      		lsl r18
 1511 0612 331F      		rol r19
 1512 0614 2427      		eor r18,r20
 1513 0616 3527      		eor r19,r21
 1514 0618 37FD      		sbrc r19,7
 1515 061a 00C0      		rjmp .L315
 1516               	.LM294:
 1517 061c 440F      		lsl r20
 1518 061e 551F      		rol r21
 1519               	.LVL121:
 1520               	.L256:
 1521               	.LBE116:
 1522               	.LBE115:
 1523               	.LM295:
 1524 0620 6F5F      		subi r22,lo8(-(1))
 1525 0622 3196      		adiw r30,1
 1526 0624 6117      		cp r22,r17
 1527 0626 01F0      		breq .+2
 1528 0628 00C0      		rjmp .L224
 1529               	.LVL122:
 1530               	.L222:
 1531               	.LM296:
 1532 062a EC0E      		add r14,r28
 1533 062c FD1E      		adc r15,r29
 1534 062e F701      		movw r30,r14
 1535 0630 1182      		std Z+1,__zero_reg__
 1536               	.LBB118:
 1537               	.LBB119:
 1538               	.LM297:
 1539 0632 C498      		cbi 56-0x20,4
 1540               	.LM298:
 1541               	/* #APP */
 1542 0634 0000      		nop
 1543               	.LM299:
 1544 0636 0000      		nop
 1545               	.LM300:
 1546 0638 0000      		nop
 1547               	/* #NOAPP */
 1548 063a 80E0      		ldi r24,lo8(0)
 1549 063c 90E0      		ldi r25,hi8(0)
 1550 063e A0E0      		ldi r26,hlo8(0)
 1551 0640 B0E0      		ldi r27,hhi8(0)
 1552               	.LVL123:
 1553 0642 00C0      		rjmp .L257
 1554               	.L258:
 1555               	.LM301:
 1556 0644 813A      		cpi r24,lo8(100001)
 1557 0646 F6E8      		ldi r31,hi8(100001)
 1558 0648 9F07      		cpc r25,r31
 1559 064a F1E0      		ldi r31,hlo8(100001)
 1560 064c AF07      		cpc r26,r31
 1561 064e F0E0      		ldi r31,hhi8(100001)
 1562 0650 BF07      		cpc r27,r31
 1563 0652 01F0      		breq .L259
 1564 0654 0196      		adiw r24,1
 1565 0656 A11D      		adc r26,__zero_reg__
 1566 0658 B11D      		adc r27,__zero_reg__
 1567               	.L257:
 1568               	.LM302:
 1569 065a B69B      		sbis 54-0x20,6
 1570 065c 00C0      		rjmp .L258
 1571               	.L259:
 1572               	.LM303:
 1573 065e C49A      		sbi 56-0x20,4
 1574               	.LBE119:
 1575               	.LBE118:
 1576               	.LBB120:
 1577               	.LBB121:
 1578               	.LM304:
 1579 0660 C498      		cbi 56-0x20,4
 1580               	.LM305:
 1581 0662 80EB      		ldi r24,lo8(-80)
 1582               	.LVL124:
 1583 0664 8FB9      		out 47-0x20,r24
 1584               	.L261:
 1585               	.LM306:
 1586 0666 779B      		sbis 46-0x20,7
 1587 0668 00C0      		rjmp .L261
 1588               	.LM307:
 1589 066a 6FB1      		in r22,47-0x20
 1590               	.LVL125:
 1591               	.LM308:
 1592 066c 1FB8      		out 47-0x20,__zero_reg__
 1593               	.L263:
 1594               	.LM309:
 1595 066e 779B      		sbis 46-0x20,7
 1596 0670 00C0      		rjmp .L263
 1597               	.LM310:
 1598 0672 2FB1      		in r18,47-0x20
 1599               	.LVL126:
 1600               	.LM311:
 1601 0674 C49A      		sbi 56-0x20,4
 1602               	.LBE121:
 1603               	.LBE120:
 1604               	.LBB122:
 1605               	.LBB123:
 1606               	.LM312:
 1607 0676 C498      		cbi 56-0x20,4
 1608               	.LM313:
 1609               	/* #APP */
 1610 0678 0000      		nop
 1611               	.LM314:
 1612 067a 0000      		nop
 1613               	.LM315:
 1614 067c 0000      		nop
 1615               	/* #NOAPP */
 1616 067e 80E0      		ldi r24,lo8(0)
 1617 0680 90E0      		ldi r25,hi8(0)
 1618 0682 A0E0      		ldi r26,hlo8(0)
 1619 0684 B0E0      		ldi r27,hhi8(0)
 1620               	.LVL127:
 1621 0686 00C0      		rjmp .L265
 1622               	.L266:
 1623               	.LM316:
 1624 0688 813A      		cpi r24,lo8(100001)
 1625 068a 36E8      		ldi r19,hi8(100001)
 1626 068c 9307      		cpc r25,r19
 1627 068e 31E0      		ldi r19,hlo8(100001)
 1628 0690 A307      		cpc r26,r19
 1629 0692 30E0      		ldi r19,hhi8(100001)
 1630 0694 B307      		cpc r27,r19
 1631               	.LVL128:
 1632 0696 01F0      		breq .L267
 1633 0698 0196      		adiw r24,1
 1634 069a A11D      		adc r26,__zero_reg__
 1635 069c B11D      		adc r27,__zero_reg__
 1636               	.LVL129:
 1637               	.L265:
 1638               	.LM317:
 1639 069e B69B      		sbis 54-0x20,6
 1640 06a0 00C0      		rjmp .L266
 1641               	.L267:
 1642               	.LM318:
 1643 06a2 C49A      		sbi 56-0x20,4
 1644               	.LBE123:
 1645               	.LBE122:
 1646               	.LBB124:
 1647               	.LBB125:
 1648               	.LM319:
 1649 06a4 C498      		cbi 56-0x20,4
 1650               	.LM320:
 1651 06a6 80EB      		ldi r24,lo8(-80)
 1652               	.LVL130:
 1653 06a8 8FB9      		out 47-0x20,r24
 1654               	.L269:
 1655               	.LM321:
 1656 06aa 779B      		sbis 46-0x20,7
 1657 06ac 00C0      		rjmp .L269
 1658               	.LM322:
 1659 06ae 3FB1      		in r19,47-0x20
 1660               	.LVL131:
 1661               	.LM323:
 1662 06b0 1FB8      		out 47-0x20,__zero_reg__
 1663               	.L271:
 1664               	.LM324:
 1665 06b2 779B      		sbis 46-0x20,7
 1666 06b4 00C0      		rjmp .L271
 1667               	.LM325:
 1668 06b6 9FB1      		in r25,47-0x20
 1669               	.LM326:
 1670 06b8 C49A      		sbi 56-0x20,4
 1671               	.LBE125:
 1672               	.LBE124:
 1673               	.LBB126:
 1674               	.LBB127:
 1675               	.LM327:
 1676 06ba C498      		cbi 56-0x20,4
 1677               	.LM328:
 1678 06bc 82E8      		ldi r24,lo8(-126)
 1679 06be 8FB9      		out 47-0x20,r24
 1680               	.L273:
 1681               	.LM329:
 1682 06c0 779B      		sbis 46-0x20,7
 1683 06c2 00C0      		rjmp .L273
 1684               	.LM330:
 1685 06c4 8FB1      		in r24,47-0x20
 1686               	.LM331:
 1687 06c6 88E0      		ldi r24,lo8(8)
 1688 06c8 8FB9      		out 47-0x20,r24
 1689               	.L275:
 1690               	.LM332:
 1691 06ca 779B      		sbis 46-0x20,7
 1692 06cc 00C0      		rjmp .L275
 1693               	.LM333:
 1694 06ce 8FB1      		in r24,47-0x20
 1695               	.LM334:
 1696 06d0 C49A      		sbi 56-0x20,4
 1697               	.LBE127:
 1698               	.LBE126:
 1699               	.LM335:
 1700 06d2 30E0      		ldi r19,lo8(0)
 1701               	.LVL132:
 1702               	.LM336:
 1703 06d4 892F      		mov r24,r25
 1704 06d6 90E0      		ldi r25,lo8(0)
 1705 06d8 982F      		mov r25,r24
 1706 06da 8827      		clr r24
 1707 06dc 822B      		or r24,r18
 1708 06de 932B      		or r25,r19
 1709               	.LVL133:
 1710 06e0 8417      		cp r24,r20
 1711 06e2 9507      		cpc r25,r21
 1712 06e4 01F4      		brne .+2
 1713 06e6 00C0      		rjmp .L277
 1714 06e8 C0E0      		ldi r28,lo8(0)
 1715 06ea D0E0      		ldi r29,hi8(0)
 1716 06ec 00C0      		rjmp .L277
 1717               	.LVL134:
 1718               	.L315:
 1719               	.LBB128:
 1720               	.LBB117:
 1721               	.LM337:
 1722 06ee 440F      		lsl r20
 1723 06f0 551F      		rol r21
 1724               	.LVL135:
 1725 06f2 81E2      		ldi r24,lo8(4129)
 1726 06f4 90E1      		ldi r25,hi8(4129)
 1727 06f6 4827      		eor r20,r24
 1728 06f8 5927      		eor r21,r25
 1729 06fa 00C0      		rjmp .L256
 1730               	.L251:
 1731 06fc 440F      		lsl r20
 1732 06fe 551F      		rol r21
 1733               	.LVL136:
 1734 0700 81E2      		ldi r24,lo8(4129)
 1735 0702 90E1      		ldi r25,hi8(4129)
 1736 0704 4827      		eor r20,r24
 1737 0706 5927      		eor r21,r25
 1738 0708 00C0      		rjmp .L253
 1739               	.L248:
 1740 070a 440F      		lsl r20
 1741 070c 551F      		rol r21
 1742               	.LVL137:
 1743 070e 81E2      		ldi r24,lo8(4129)
 1744 0710 90E1      		ldi r25,hi8(4129)
 1745 0712 4827      		eor r20,r24
 1746 0714 5927      		eor r21,r25
 1747 0716 00C0      		rjmp .L250
 1748               	.L245:
 1749 0718 440F      		lsl r20
 1750 071a 551F      		rol r21
 1751               	.LVL138:
 1752 071c 81E2      		ldi r24,lo8(4129)
 1753 071e 90E1      		ldi r25,hi8(4129)
 1754 0720 4827      		eor r20,r24
 1755 0722 5927      		eor r21,r25
 1756 0724 00C0      		rjmp .L247
 1757               	.L242:
 1758 0726 440F      		lsl r20
 1759 0728 551F      		rol r21
 1760               	.LVL139:
 1761 072a 81E2      		ldi r24,lo8(4129)
 1762 072c 90E1      		ldi r25,hi8(4129)
 1763 072e 4827      		eor r20,r24
 1764 0730 5927      		eor r21,r25
 1765 0732 00C0      		rjmp .L244
 1766               	.L239:
 1767 0734 440F      		lsl r20
 1768 0736 551F      		rol r21
 1769               	.LVL140:
 1770 0738 81E2      		ldi r24,lo8(4129)
 1771 073a 90E1      		ldi r25,hi8(4129)
 1772 073c 4827      		eor r20,r24
 1773 073e 5927      		eor r21,r25
 1774 0740 00C0      		rjmp .L241
 1775               	.L236:
 1776 0742 440F      		lsl r20
 1777 0744 551F      		rol r21
 1778               	.LVL141:
 1779 0746 81E2      		ldi r24,lo8(4129)
 1780 0748 90E1      		ldi r25,hi8(4129)
 1781 074a 4827      		eor r20,r24
 1782 074c 5927      		eor r21,r25
 1783 074e 00C0      		rjmp .L238
 1784               	.L233:
 1785 0750 440F      		lsl r20
 1786 0752 551F      		rol r21
 1787               	.LVL142:
 1788 0754 81E2      		ldi r24,lo8(4129)
 1789 0756 90E1      		ldi r25,hi8(4129)
 1790 0758 4827      		eor r20,r24
 1791 075a 5927      		eor r21,r25
 1792 075c 00C0      		rjmp .L235
 1793               	.LVL143:
 1794               	.L313:
 1795               	.LBE117:
 1796               	.LBE128:
 1797               	.LBB129:
 1798               	.LBB110:
 1799               	.LM338:
 1800 075e 21E2      		ldi r18,lo8(4129)
 1801 0760 30E1      		ldi r19,hi8(4129)
 1802               	.LVL144:
 1803               	.LM339:
 1804 0762 AC01      		movw r20,r24
 1805 0764 440F      		lsl r20
 1806 0766 551F      		rol r21
 1807               	.LVL145:
 1808               	.LM340:
 1809 0768 C901      		movw r24,r18
 1810 076a 8427      		eor r24,r20
 1811 076c 9527      		eor r25,r21
 1812 076e 97FF      		sbrs r25,7
 1813 0770 00C0      		rjmp .L316
 1814               	.L201:
 1815               	.LM341:
 1816 0772 220F      		lsl r18
 1817 0774 331F      		rol r19
 1818               	.LVL146:
 1819 0776 2162      		ori r18,lo8(4129)
 1820 0778 3061      		ori r19,hi8(4129)
 1821               	.LM342:
 1822 077a 440F      		lsl r20
 1823 077c 551F      		rol r21
 1824               	.LVL147:
 1825               	.LM343:
 1826 077e C901      		movw r24,r18
 1827 0780 8427      		eor r24,r20
 1828 0782 9527      		eor r25,r21
 1829 0784 97FF      		sbrs r25,7
 1830 0786 00C0      		rjmp .L317
 1831               	.L204:
 1832               	.LM344:
 1833 0788 220F      		lsl r18
 1834 078a 331F      		rol r19
 1835               	.LVL148:
 1836 078c 81E2      		ldi r24,lo8(4129)
 1837 078e 90E1      		ldi r25,hi8(4129)
 1838 0790 2827      		eor r18,r24
 1839 0792 3927      		eor r19,r25
 1840               	.LM345:
 1841 0794 440F      		lsl r20
 1842 0796 551F      		rol r21
 1843               	.LVL149:
 1844               	.LM346:
 1845 0798 C901      		movw r24,r18
 1846 079a 8427      		eor r24,r20
 1847 079c 9527      		eor r25,r21
 1848 079e 97FF      		sbrs r25,7
 1849 07a0 00C0      		rjmp .L318
 1850               	.L207:
 1851               	.LM347:
 1852 07a2 220F      		lsl r18
 1853 07a4 331F      		rol r19
 1854               	.LVL150:
 1855 07a6 81E2      		ldi r24,lo8(4129)
 1856 07a8 90E1      		ldi r25,hi8(4129)
 1857 07aa 2827      		eor r18,r24
 1858 07ac 3927      		eor r19,r25
 1859               	.LM348:
 1860 07ae 440F      		lsl r20
 1861 07b0 551F      		rol r21
 1862               	.LVL151:
 1863               	.LM349:
 1864 07b2 C901      		movw r24,r18
 1865 07b4 8427      		eor r24,r20
 1866 07b6 9527      		eor r25,r21
 1867 07b8 97FF      		sbrs r25,7
 1868 07ba 00C0      		rjmp .L319
 1869               	.L210:
 1870               	.LM350:
 1871 07bc 220F      		lsl r18
 1872 07be 331F      		rol r19
 1873               	.LVL152:
 1874 07c0 81E2      		ldi r24,lo8(4129)
 1875 07c2 90E1      		ldi r25,hi8(4129)
 1876 07c4 2827      		eor r18,r24
 1877 07c6 3927      		eor r19,r25
 1878               	.LM351:
 1879 07c8 BA01      		movw r22,r20
 1880 07ca 660F      		lsl r22
 1881 07cc 771F      		rol r23
 1882               	.LVL153:
 1883               	.LM352:
 1884 07ce C901      		movw r24,r18
 1885 07d0 8627      		eor r24,r22
 1886 07d2 9727      		eor r25,r23
 1887 07d4 97FF      		sbrs r25,7
 1888 07d6 00C0      		rjmp .L320
 1889               	.L213:
 1890               	.LM353:
 1891 07d8 A901      		movw r20,r18
 1892 07da 440F      		lsl r20
 1893 07dc 551F      		rol r21
 1894               	.LVL154:
 1895 07de 81E2      		ldi r24,lo8(4129)
 1896 07e0 90E1      		ldi r25,hi8(4129)
 1897 07e2 4827      		eor r20,r24
 1898 07e4 5927      		eor r21,r25
 1899               	.LM354:
 1900 07e6 9B01      		movw r18,r22
 1901 07e8 220F      		lsl r18
 1902 07ea 331F      		rol r19
 1903               	.LVL155:
 1904               	.LM355:
 1905 07ec CA01      		movw r24,r20
 1906 07ee 8227      		eor r24,r18
 1907 07f0 9327      		eor r25,r19
 1908 07f2 97FF      		sbrs r25,7
 1909 07f4 00C0      		rjmp .L321
 1910               	.L216:
 1911               	.LM356:
 1912 07f6 440F      		lsl r20
 1913 07f8 551F      		rol r21
 1914               	.LVL156:
 1915 07fa 81E2      		ldi r24,lo8(4129)
 1916 07fc 90E1      		ldi r25,hi8(4129)
 1917 07fe 4827      		eor r20,r24
 1918 0800 5927      		eor r21,r25
 1919               	.LM357:
 1920 0802 220F      		lsl r18
 1921 0804 331F      		rol r19
 1922 0806 2427      		eor r18,r20
 1923 0808 3527      		eor r19,r21
 1924 080a 37FF      		sbrs r19,7
 1925 080c 00C0      		rjmp .L219
 1926               	.L314:
 1927               	.LM358:
 1928 080e 440F      		lsl r20
 1929 0810 551F      		rol r21
 1930               	.LVL157:
 1931 0812 81E2      		ldi r24,lo8(4129)
 1932 0814 90E1      		ldi r25,hi8(4129)
 1933 0816 4827      		eor r20,r24
 1934 0818 5927      		eor r21,r25
 1935 081a 00C0      		rjmp .L221
 1936               	.LVL158:
 1937               	.L277:
 1938               	.LBE110:
 1939               	.LBE129:
 1940               	.LM359:
 1941               	/* #APP */
 1942 081c 7894      		sei
 1943               	.LM360:
 1944               	/* #NOAPP */
 1945 081e CE01      		movw r24,r28
 1946               	/* epilogue: frame size=0 */
 1947 0820 DF91      		pop r29
 1948 0822 CF91      		pop r28
 1949 0824 1F91      		pop r17
 1950 0826 FF90      		pop r15
 1951 0828 EF90      		pop r14
 1952 082a 0895      		ret
 1953               	/* epilogue end (size=6) */
 1954               	/* function rf12_rxdata size 548 (537) */
 1955               	.LFE15:
 1957               	.global	rf12_txdata
 1959               	rf12_txdata:
 1960               	.LFB14:
 1961               	.LM361:
 1962               	/* prologue: frame size=0 */
 1963 082c CF93      		push r28
 1964 082e DF93      		push r29
 1965               	/* prologue end (size=2) */
 1966               	.LVL159:
 1967 0830 EC01      		movw r28,r24
 1968               	.LBB184:
 1969               	.LBB185:
 1970               	.LM362:
 1971 0832 C498      		cbi 56-0x20,4
 1972               	.LM363:
 1973 0834 82E8      		ldi r24,lo8(-126)
 1974               	.LVL160:
 1975 0836 8FB9      		out 47-0x20,r24
 1976               	.L323:
 1977               	.LM364:
 1978 0838 779B      		sbis 46-0x20,7
 1979 083a 00C0      		rjmp .L323
 1980               	.LM365:
 1981 083c 8FB1      		in r24,47-0x20
 1982               	.LM366:
 1983 083e 88E3      		ldi r24,lo8(56)
 1984 0840 8FB9      		out 47-0x20,r24
 1985               	.L325:
 1986               	.LM367:
 1987 0842 779B      		sbis 46-0x20,7
 1988 0844 00C0      		rjmp .L325
 1989               	.LM368:
 1990 0846 8FB1      		in r24,47-0x20
 1991               	.LM369:
 1992 0848 C49A      		sbi 56-0x20,4
 1993               	.LBE185:
 1994               	.LBE184:
 1995               	.LBB186:
 1996               	.LBB187:
 1997               	.LM370:
 1998 084a C498      		cbi 56-0x20,4
 1999               	.LM371:
 2000               	/* #APP */
 2001 084c 0000      		nop
 2002               	.LM372:
 2003 084e 0000      		nop
 2004               	.LM373:
 2005 0850 0000      		nop
 2006               	/* #NOAPP */
 2007 0852 80E0      		ldi r24,lo8(0)
 2008 0854 90E0      		ldi r25,hi8(0)
 2009 0856 A0E0      		ldi r26,hlo8(0)
 2010 0858 B0E0      		ldi r27,hhi8(0)
 2011               	.LVL161:
 2012 085a 00C0      		rjmp .L327
 2013               	.L328:
 2014               	.LM374:
 2015 085c 813A      		cpi r24,lo8(100001)
 2016 085e 26E8      		ldi r18,hi8(100001)
 2017 0860 9207      		cpc r25,r18
 2018 0862 21E0      		ldi r18,hlo8(100001)
 2019 0864 A207      		cpc r26,r18
 2020 0866 20E0      		ldi r18,hhi8(100001)
 2021 0868 B207      		cpc r27,r18
 2022 086a 01F0      		breq .L329
 2023 086c 0196      		adiw r24,1
 2024 086e A11D      		adc r26,__zero_reg__
 2025 0870 B11D      		adc r27,__zero_reg__
 2026               	.L327:
 2027               	.LM375:
 2028 0872 B69B      		sbis 54-0x20,6
 2029 0874 00C0      		rjmp .L328
 2030               	.L329:
 2031               	.LM376:
 2032 0876 C49A      		sbi 56-0x20,4
 2033               	.LBE187:
 2034               	.LBE186:
 2035               	.LBB188:
 2036               	.LBB189:
 2037               	.LM377:
 2038 0878 C498      		cbi 56-0x20,4
 2039               	.LM378:
 2040 087a 88EB      		ldi r24,lo8(-72)
 2041               	.LVL162:
 2042 087c 8FB9      		out 47-0x20,r24
 2043               	.L331:
 2044               	.LM379:
 2045 087e 779B      		sbis 46-0x20,7
 2046 0880 00C0      		rjmp .L331
 2047               	.LM380:
 2048 0882 8FB1      		in r24,47-0x20
 2049               	.LM381:
 2050 0884 8AEA      		ldi r24,lo8(-86)
 2051 0886 8FB9      		out 47-0x20,r24
 2052               	.L333:
 2053               	.LM382:
 2054 0888 779B      		sbis 46-0x20,7
 2055 088a 00C0      		rjmp .L333
 2056               	.LM383:
 2057 088c 8FB1      		in r24,47-0x20
 2058               	.LM384:
 2059 088e C49A      		sbi 56-0x20,4
 2060               	.LBE189:
 2061               	.LBE188:
 2062               	.LBB190:
 2063               	.LBB191:
 2064               	.LM385:
 2065 0890 C498      		cbi 56-0x20,4
 2066               	.LM386:
 2067               	/* #APP */
 2068 0892 0000      		nop
 2069               	.LM387:
 2070 0894 0000      		nop
 2071               	.LM388:
 2072 0896 0000      		nop
 2073               	/* #NOAPP */
 2074 0898 80E0      		ldi r24,lo8(0)
 2075 089a 90E0      		ldi r25,hi8(0)
 2076 089c A0E0      		ldi r26,hlo8(0)
 2077 089e B0E0      		ldi r27,hhi8(0)
 2078               	.LVL163:
 2079 08a0 00C0      		rjmp .L335
 2080               	.L336:
 2081               	.LM389:
 2082 08a2 813A      		cpi r24,lo8(100001)
 2083 08a4 26E8      		ldi r18,hi8(100001)
 2084 08a6 9207      		cpc r25,r18
 2085 08a8 21E0      		ldi r18,hlo8(100001)
 2086 08aa A207      		cpc r26,r18
 2087 08ac 20E0      		ldi r18,hhi8(100001)
 2088 08ae B207      		cpc r27,r18
 2089 08b0 01F0      		breq .L337
 2090 08b2 0196      		adiw r24,1
 2091 08b4 A11D      		adc r26,__zero_reg__
 2092 08b6 B11D      		adc r27,__zero_reg__
 2093               	.L335:
 2094               	.LM390:
 2095 08b8 B69B      		sbis 54-0x20,6
 2096 08ba 00C0      		rjmp .L336
 2097               	.L337:
 2098               	.LM391:
 2099 08bc C49A      		sbi 56-0x20,4
 2100               	.LBE191:
 2101               	.LBE190:
 2102               	.LBB192:
 2103               	.LBB193:
 2104               	.LM392:
 2105 08be C498      		cbi 56-0x20,4
 2106               	.LM393:
 2107 08c0 88EB      		ldi r24,lo8(-72)
 2108               	.LVL164:
 2109 08c2 8FB9      		out 47-0x20,r24
 2110               	.L339:
 2111               	.LM394:
 2112 08c4 779B      		sbis 46-0x20,7
 2113 08c6 00C0      		rjmp .L339
 2114               	.LM395:
 2115 08c8 8FB1      		in r24,47-0x20
 2116               	.LM396:
 2117 08ca 8AEA      		ldi r24,lo8(-86)
 2118 08cc 8FB9      		out 47-0x20,r24
 2119               	.L341:
 2120               	.LM397:
 2121 08ce 779B      		sbis 46-0x20,7
 2122 08d0 00C0      		rjmp .L341
 2123               	.LM398:
 2124 08d2 8FB1      		in r24,47-0x20
 2125               	.LM399:
 2126 08d4 C49A      		sbi 56-0x20,4
 2127               	.LBE193:
 2128               	.LBE192:
 2129               	.LBB194:
 2130               	.LBB195:
 2131               	.LM400:
 2132 08d6 C498      		cbi 56-0x20,4
 2133               	.LM401:
 2134               	/* #APP */
 2135 08d8 0000      		nop
 2136               	.LM402:
 2137 08da 0000      		nop
 2138               	.LM403:
 2139 08dc 0000      		nop
 2140               	/* #NOAPP */
 2141 08de 80E0      		ldi r24,lo8(0)
 2142 08e0 90E0      		ldi r25,hi8(0)
 2143 08e2 A0E0      		ldi r26,hlo8(0)
 2144 08e4 B0E0      		ldi r27,hhi8(0)
 2145               	.LVL165:
 2146 08e6 00C0      		rjmp .L343
 2147               	.L344:
 2148               	.LM404:
 2149 08e8 813A      		cpi r24,lo8(100001)
 2150 08ea 26E8      		ldi r18,hi8(100001)
 2151 08ec 9207      		cpc r25,r18
 2152 08ee 21E0      		ldi r18,hlo8(100001)
 2153 08f0 A207      		cpc r26,r18
 2154 08f2 20E0      		ldi r18,hhi8(100001)
 2155 08f4 B207      		cpc r27,r18
 2156 08f6 01F0      		breq .L345
 2157 08f8 0196      		adiw r24,1
 2158 08fa A11D      		adc r26,__zero_reg__
 2159 08fc B11D      		adc r27,__zero_reg__
 2160               	.L343:
 2161               	.LM405:
 2162 08fe B69B      		sbis 54-0x20,6
 2163 0900 00C0      		rjmp .L344
 2164               	.L345:
 2165               	.LM406:
 2166 0902 C49A      		sbi 56-0x20,4
 2167               	.LBE195:
 2168               	.LBE194:
 2169               	.LBB196:
 2170               	.LBB197:
 2171               	.LM407:
 2172 0904 C498      		cbi 56-0x20,4
 2173               	.LM408:
 2174 0906 88EB      		ldi r24,lo8(-72)
 2175               	.LVL166:
 2176 0908 8FB9      		out 47-0x20,r24
 2177               	.L347:
 2178               	.LM409:
 2179 090a 779B      		sbis 46-0x20,7
 2180 090c 00C0      		rjmp .L347
 2181               	.LM410:
 2182 090e 8FB1      		in r24,47-0x20
 2183               	.LM411:
 2184 0910 8AEA      		ldi r24,lo8(-86)
 2185 0912 8FB9      		out 47-0x20,r24
 2186               	.L349:
 2187               	.LM412:
 2188 0914 779B      		sbis 46-0x20,7
 2189 0916 00C0      		rjmp .L349
 2190               	.LM413:
 2191 0918 8FB1      		in r24,47-0x20
 2192               	.LM414:
 2193 091a C49A      		sbi 56-0x20,4
 2194               	.LBE197:
 2195               	.LBE196:
 2196               	.LBB198:
 2197               	.LBB199:
 2198               	.LM415:
 2199 091c C498      		cbi 56-0x20,4
 2200               	.LM416:
 2201               	/* #APP */
 2202 091e 0000      		nop
 2203               	.LM417:
 2204 0920 0000      		nop
 2205               	.LM418:
 2206 0922 0000      		nop
 2207               	/* #NOAPP */
 2208 0924 80E0      		ldi r24,lo8(0)
 2209 0926 90E0      		ldi r25,hi8(0)
 2210 0928 A0E0      		ldi r26,hlo8(0)
 2211 092a B0E0      		ldi r27,hhi8(0)
 2212               	.LVL167:
 2213 092c 00C0      		rjmp .L351
 2214               	.L352:
 2215               	.LM419:
 2216 092e 813A      		cpi r24,lo8(100001)
 2217 0930 26E8      		ldi r18,hi8(100001)
 2218 0932 9207      		cpc r25,r18
 2219 0934 21E0      		ldi r18,hlo8(100001)
 2220 0936 A207      		cpc r26,r18
 2221 0938 20E0      		ldi r18,hhi8(100001)
 2222 093a B207      		cpc r27,r18
 2223 093c 01F0      		breq .L353
 2224 093e 0196      		adiw r24,1
 2225 0940 A11D      		adc r26,__zero_reg__
 2226 0942 B11D      		adc r27,__zero_reg__
 2227               	.L351:
 2228               	.LM420:
 2229 0944 B69B      		sbis 54-0x20,6
 2230 0946 00C0      		rjmp .L352
 2231               	.L353:
 2232               	.LM421:
 2233 0948 C49A      		sbi 56-0x20,4
 2234               	.LBE199:
 2235               	.LBE198:
 2236               	.LBB200:
 2237               	.LBB201:
 2238               	.LM422:
 2239 094a C498      		cbi 56-0x20,4
 2240               	.LM423:
 2241 094c 88EB      		ldi r24,lo8(-72)
 2242               	.LVL168:
 2243 094e 8FB9      		out 47-0x20,r24
 2244               	.L355:
 2245               	.LM424:
 2246 0950 779B      		sbis 46-0x20,7
 2247 0952 00C0      		rjmp .L355
 2248               	.LM425:
 2249 0954 8FB1      		in r24,47-0x20
 2250               	.LM426:
 2251 0956 8DE2      		ldi r24,lo8(45)
 2252 0958 8FB9      		out 47-0x20,r24
 2253               	.L357:
 2254               	.LM427:
 2255 095a 779B      		sbis 46-0x20,7
 2256 095c 00C0      		rjmp .L357
 2257               	.LM428:
 2258 095e 8FB1      		in r24,47-0x20
 2259               	.LM429:
 2260 0960 C49A      		sbi 56-0x20,4
 2261               	.LBE201:
 2262               	.LBE200:
 2263               	.LBB202:
 2264               	.LBB203:
 2265               	.LM430:
 2266 0962 C498      		cbi 56-0x20,4
 2267               	.LM431:
 2268               	/* #APP */
 2269 0964 0000      		nop
 2270               	.LM432:
 2271 0966 0000      		nop
 2272               	.LM433:
 2273 0968 0000      		nop
 2274               	/* #NOAPP */
 2275 096a 80E0      		ldi r24,lo8(0)
 2276 096c 90E0      		ldi r25,hi8(0)
 2277 096e A0E0      		ldi r26,hlo8(0)
 2278 0970 B0E0      		ldi r27,hhi8(0)
 2279               	.LVL169:
 2280 0972 00C0      		rjmp .L359
 2281               	.L360:
 2282               	.LM434:
 2283 0974 813A      		cpi r24,lo8(100001)
 2284 0976 26E8      		ldi r18,hi8(100001)
 2285 0978 9207      		cpc r25,r18
 2286 097a 21E0      		ldi r18,hlo8(100001)
 2287 097c A207      		cpc r26,r18
 2288 097e 20E0      		ldi r18,hhi8(100001)
 2289 0980 B207      		cpc r27,r18
 2290 0982 01F0      		breq .L361
 2291 0984 0196      		adiw r24,1
 2292 0986 A11D      		adc r26,__zero_reg__
 2293 0988 B11D      		adc r27,__zero_reg__
 2294               	.L359:
 2295               	.LM435:
 2296 098a B69B      		sbis 54-0x20,6
 2297 098c 00C0      		rjmp .L360
 2298               	.L361:
 2299               	.LM436:
 2300 098e C49A      		sbi 56-0x20,4
 2301               	.LBE203:
 2302               	.LBE202:
 2303               	.LBB204:
 2304               	.LBB205:
 2305               	.LM437:
 2306 0990 C498      		cbi 56-0x20,4
 2307               	.LM438:
 2308 0992 88EB      		ldi r24,lo8(-72)
 2309               	.LVL170:
 2310 0994 8FB9      		out 47-0x20,r24
 2311               	.L363:
 2312               	.LM439:
 2313 0996 779B      		sbis 46-0x20,7
 2314 0998 00C0      		rjmp .L363
 2315               	.LM440:
 2316 099a 8FB1      		in r24,47-0x20
 2317               	.LM441:
 2318 099c 84ED      		ldi r24,lo8(-44)
 2319 099e 8FB9      		out 47-0x20,r24
 2320               	.L365:
 2321               	.LM442:
 2322 09a0 779B      		sbis 46-0x20,7
 2323 09a2 00C0      		rjmp .L365
 2324               	.LM443:
 2325 09a4 8FB1      		in r24,47-0x20
 2326               	.LM444:
 2327 09a6 C49A      		sbi 56-0x20,4
 2328               	.LBE205:
 2329               	.LBE204:
 2330               	.LBB206:
 2331               	.LBB207:
 2332               	.LM445:
 2333 09a8 C498      		cbi 56-0x20,4
 2334               	.LM446:
 2335               	/* #APP */
 2336 09aa 0000      		nop
 2337               	.LM447:
 2338 09ac 0000      		nop
 2339               	.LM448:
 2340 09ae 0000      		nop
 2341               	/* #NOAPP */
 2342 09b0 80E0      		ldi r24,lo8(0)
 2343 09b2 90E0      		ldi r25,hi8(0)
 2344 09b4 A0E0      		ldi r26,hlo8(0)
 2345 09b6 B0E0      		ldi r27,hhi8(0)
 2346               	.LVL171:
 2347 09b8 00C0      		rjmp .L367
 2348               	.L368:
 2349               	.LM449:
 2350 09ba 813A      		cpi r24,lo8(100001)
 2351 09bc 26E8      		ldi r18,hi8(100001)
 2352 09be 9207      		cpc r25,r18
 2353 09c0 21E0      		ldi r18,hlo8(100001)
 2354 09c2 A207      		cpc r26,r18
 2355 09c4 20E0      		ldi r18,hhi8(100001)
 2356 09c6 B207      		cpc r27,r18
 2357 09c8 01F0      		breq .L369
 2358 09ca 0196      		adiw r24,1
 2359 09cc A11D      		adc r26,__zero_reg__
 2360 09ce B11D      		adc r27,__zero_reg__
 2361               	.L367:
 2362               	.LM450:
 2363 09d0 B69B      		sbis 54-0x20,6
 2364 09d2 00C0      		rjmp .L368
 2365               	.L369:
 2366               	.LM451:
 2367 09d4 C49A      		sbi 56-0x20,4
 2368               	.LBE207:
 2369               	.LBE206:
 2370               	.LM452:
 2371 09d6 262F      		mov r18,r22
 2372 09d8 30E0      		ldi r19,lo8(0)
 2373               	.LVL172:
 2374 09da A901      		movw r20,r18
 2375 09dc 586B      		ori r21,hi8(-18432)
 2376               	.LBB208:
 2377               	.LBB209:
 2378               	.LM453:
 2379 09de C498      		cbi 56-0x20,4
 2380               	.LM454:
 2381 09e0 852F      		mov r24,r21
 2382 09e2 9927      		clr r25
 2383               	.LVL173:
 2384 09e4 8FB9      		out 47-0x20,r24
 2385               	.LVL174:
 2386               	.L371:
 2387               	.LM455:
 2388 09e6 779B      		sbis 46-0x20,7
 2389 09e8 00C0      		rjmp .L371
 2390               	.LM456:
 2391 09ea 8FB1      		in r24,47-0x20
 2392               	.LM457:
 2393 09ec 4FB9      		out 47-0x20,r20
 2394               	.L373:
 2395               	.LM458:
 2396 09ee 779B      		sbis 46-0x20,7
 2397 09f0 00C0      		rjmp .L373
 2398               	.LM459:
 2399 09f2 8FB1      		in r24,47-0x20
 2400               	.LM460:
 2401 09f4 C49A      		sbi 56-0x20,4
 2402               	.LBE209:
 2403               	.LBE208:
 2404               	.LBB210:
 2405               	.LBB211:
 2406               	.LM461:
 2407 09f6 922F      		mov r25,r18
 2408 09f8 8827      		clr r24
 2409               	.LVL175:
 2410 09fa 27FD      		sbrc r18,7
 2411 09fc 00C0      		rjmp .L528
 2412 09fe 20E0      		ldi r18,lo8(0)
 2413 0a00 30E0      		ldi r19,hi8(0)
 2414               	.LVL176:
 2415               	.LM462:
 2416 0a02 AC01      		movw r20,r24
 2417 0a04 440F      		lsl r20
 2418 0a06 551F      		rol r21
 2419               	.LVL177:
 2420               	.LM463:
 2421 0a08 C901      		movw r24,r18
 2422 0a0a 8427      		eor r24,r20
 2423 0a0c 9527      		eor r25,r21
 2424 0a0e 97FD      		sbrc r25,7
 2425 0a10 00C0      		rjmp .L378
 2426               	.L532:
 2427               	.LM464:
 2428 0a12 220F      		lsl r18
 2429 0a14 331F      		rol r19
 2430               	.LVL178:
 2431               	.LM465:
 2432 0a16 440F      		lsl r20
 2433 0a18 551F      		rol r21
 2434               	.LVL179:
 2435               	.LM466:
 2436 0a1a C901      		movw r24,r18
 2437 0a1c 8427      		eor r24,r20
 2438 0a1e 9527      		eor r25,r21
 2439 0a20 97FD      		sbrc r25,7
 2440 0a22 00C0      		rjmp .L381
 2441               	.L533:
 2442               	.LM467:
 2443 0a24 220F      		lsl r18
 2444 0a26 331F      		rol r19
 2445               	.LVL180:
 2446               	.LM468:
 2447 0a28 440F      		lsl r20
 2448 0a2a 551F      		rol r21
 2449               	.LVL181:
 2450               	.LM469:
 2451 0a2c C901      		movw r24,r18
 2452 0a2e 8427      		eor r24,r20
 2453 0a30 9527      		eor r25,r21
 2454 0a32 97FD      		sbrc r25,7
 2455 0a34 00C0      		rjmp .L384
 2456               	.L534:
 2457               	.LM470:
 2458 0a36 220F      		lsl r18
 2459 0a38 331F      		rol r19
 2460               	.LVL182:
 2461               	.LM471:
 2462 0a3a 440F      		lsl r20
 2463 0a3c 551F      		rol r21
 2464               	.LVL183:
 2465               	.LM472:
 2466 0a3e C901      		movw r24,r18
 2467 0a40 8427      		eor r24,r20
 2468 0a42 9527      		eor r25,r21
 2469 0a44 97FD      		sbrc r25,7
 2470 0a46 00C0      		rjmp .L387
 2471               	.L535:
 2472               	.LM473:
 2473 0a48 220F      		lsl r18
 2474 0a4a 331F      		rol r19
 2475               	.LVL184:
 2476               	.LM474:
 2477 0a4c FA01      		movw r30,r20
 2478 0a4e EE0F      		lsl r30
 2479 0a50 FF1F      		rol r31
 2480               	.LVL185:
 2481               	.LM475:
 2482 0a52 C901      		movw r24,r18
 2483 0a54 8E27      		eor r24,r30
 2484 0a56 9F27      		eor r25,r31
 2485 0a58 97FD      		sbrc r25,7
 2486 0a5a 00C0      		rjmp .L390
 2487               	.L536:
 2488               	.LM476:
 2489 0a5c A901      		movw r20,r18
 2490 0a5e 440F      		lsl r20
 2491 0a60 551F      		rol r21
 2492               	.LVL186:
 2493               	.LM477:
 2494 0a62 9F01      		movw r18,r30
 2495 0a64 220F      		lsl r18
 2496 0a66 331F      		rol r19
 2497               	.LVL187:
 2498               	.LM478:
 2499 0a68 CA01      		movw r24,r20
 2500 0a6a 8227      		eor r24,r18
 2501 0a6c 9327      		eor r25,r19
 2502 0a6e 97FD      		sbrc r25,7
 2503 0a70 00C0      		rjmp .L393
 2504               	.L537:
 2505               	.LM479:
 2506 0a72 440F      		lsl r20
 2507 0a74 551F      		rol r21
 2508               	.LVL188:
 2509               	.LM480:
 2510 0a76 220F      		lsl r18
 2511 0a78 331F      		rol r19
 2512 0a7a 2427      		eor r18,r20
 2513 0a7c 3527      		eor r19,r21
 2514 0a7e 37FD      		sbrc r19,7
 2515 0a80 00C0      		rjmp .L529
 2516               	.L396:
 2517               	.LM481:
 2518 0a82 FA01      		movw r30,r20
 2519 0a84 EE0F      		lsl r30
 2520 0a86 FF1F      		rol r31
 2521               	.LVL189:
 2522               	.L398:
 2523               	.LBE211:
 2524               	.LBE210:
 2525               	.LM482:
 2526 0a88 6623      		tst r22
 2527 0a8a 01F4      		brne .+2
 2528 0a8c 00C0      		rjmp .L399
 2529 0a8e 70E0      		ldi r23,lo8(0)
 2530               	.LVL190:
 2531               	.L401:
 2532               	.LBB213:
 2533               	.LBB214:
 2534               	.LM483:
 2535 0a90 C498      		cbi 56-0x20,4
 2536               	.LM484:
 2537               	/* #APP */
 2538 0a92 0000      		nop
 2539               	.LM485:
 2540 0a94 0000      		nop
 2541               	.LM486:
 2542 0a96 0000      		nop
 2543               	/* #NOAPP */
 2544 0a98 80E0      		ldi r24,lo8(0)
 2545 0a9a 90E0      		ldi r25,hi8(0)
 2546 0a9c A0E0      		ldi r26,hlo8(0)
 2547 0a9e B0E0      		ldi r27,hhi8(0)
 2548               	.LVL191:
 2549 0aa0 00C0      		rjmp .L402
 2550               	.L403:
 2551               	.LM487:
 2552 0aa2 813A      		cpi r24,lo8(100001)
 2553 0aa4 26E8      		ldi r18,hi8(100001)
 2554 0aa6 9207      		cpc r25,r18
 2555 0aa8 21E0      		ldi r18,hlo8(100001)
 2556 0aaa A207      		cpc r26,r18
 2557 0aac 20E0      		ldi r18,hhi8(100001)
 2558 0aae B207      		cpc r27,r18
 2559               	.LVL192:
 2560 0ab0 01F0      		breq .L404
 2561 0ab2 0196      		adiw r24,1
 2562 0ab4 A11D      		adc r26,__zero_reg__
 2563 0ab6 B11D      		adc r27,__zero_reg__
 2564               	.LVL193:
 2565               	.L402:
 2566               	.LM488:
 2567 0ab8 B69B      		sbis 54-0x20,6
 2568 0aba 00C0      		rjmp .L403
 2569               	.L404:
 2570               	.LM489:
 2571 0abc C49A      		sbi 56-0x20,4
 2572               	.LBE214:
 2573               	.LBE213:
 2574               	.LM490:
 2575 0abe 8881      		ld r24,Y
 2576               	.LVL194:
 2577 0ac0 282F      		mov r18,r24
 2578               	.LVL195:
 2579 0ac2 30E0      		ldi r19,lo8(0)
 2580               	.LVL196:
 2581 0ac4 386B      		ori r19,hi8(-18432)
 2582               	.LBB215:
 2583               	.LBB216:
 2584               	.LM491:
 2585 0ac6 C498      		cbi 56-0x20,4
 2586               	.LM492:
 2587 0ac8 832F      		mov r24,r19
 2588 0aca 9927      		clr r25
 2589 0acc 8FB9      		out 47-0x20,r24
 2590               	.L406:
 2591               	.LM493:
 2592 0ace 779B      		sbis 46-0x20,7
 2593 0ad0 00C0      		rjmp .L406
 2594               	.LM494:
 2595 0ad2 8FB1      		in r24,47-0x20
 2596               	.LM495:
 2597 0ad4 2FB9      		out 47-0x20,r18
 2598               	.L408:
 2599               	.LM496:
 2600 0ad6 779B      		sbis 46-0x20,7
 2601 0ad8 00C0      		rjmp .L408
 2602               	.LM497:
 2603 0ada 8FB1      		in r24,47-0x20
 2604               	.LM498:
 2605 0adc C49A      		sbi 56-0x20,4
 2606               	.LBE216:
 2607               	.LBE215:
 2608               	.LM499:
 2609 0ade 8881      		ld r24,Y
 2610               	.LVL197:
 2611               	.LBB217:
 2612               	.LBB218:
 2613               	.LM500:
 2614 0ae0 90E0      		ldi r25,lo8(0)
 2615               	.LVL198:
 2616 0ae2 582F      		mov r21,r24
 2617 0ae4 4427      		clr r20
 2618               	.LVL199:
 2619               	.LM501:
 2620 0ae6 CA01      		movw r24,r20
 2621               	.LVL200:
 2622 0ae8 8E27      		eor r24,r30
 2623 0aea 9F27      		eor r25,r31
 2624 0aec 97FD      		sbrc r25,7
 2625 0aee 00C0      		rjmp .L410
 2626               	.LM502:
 2627 0af0 9F01      		movw r18,r30
 2628 0af2 220F      		lsl r18
 2629 0af4 331F      		rol r19
 2630               	.LVL201:
 2631               	.L412:
 2632               	.LM503:
 2633 0af6 440F      		lsl r20
 2634 0af8 551F      		rol r21
 2635               	.LVL202:
 2636               	.LM504:
 2637 0afa C901      		movw r24,r18
 2638 0afc 8427      		eor r24,r20
 2639 0afe 9527      		eor r25,r21
 2640 0b00 97FD      		sbrc r25,7
 2641 0b02 00C0      		rjmp .L413
 2642               	.LM505:
 2643 0b04 220F      		lsl r18
 2644 0b06 331F      		rol r19
 2645               	.LVL203:
 2646               	.L415:
 2647               	.LM506:
 2648 0b08 440F      		lsl r20
 2649 0b0a 551F      		rol r21
 2650               	.LVL204:
 2651               	.LM507:
 2652 0b0c C901      		movw r24,r18
 2653 0b0e 8427      		eor r24,r20
 2654 0b10 9527      		eor r25,r21
 2655 0b12 97FD      		sbrc r25,7
 2656 0b14 00C0      		rjmp .L416
 2657               	.LM508:
 2658 0b16 220F      		lsl r18
 2659 0b18 331F      		rol r19
 2660               	.LVL205:
 2661               	.L418:
 2662               	.LM509:
 2663 0b1a 440F      		lsl r20
 2664 0b1c 551F      		rol r21
 2665               	.LVL206:
 2666               	.LM510:
 2667 0b1e C901      		movw r24,r18
 2668 0b20 8427      		eor r24,r20
 2669 0b22 9527      		eor r25,r21
 2670 0b24 97FD      		sbrc r25,7
 2671 0b26 00C0      		rjmp .L419
 2672               	.LM511:
 2673 0b28 220F      		lsl r18
 2674 0b2a 331F      		rol r19
 2675               	.LVL207:
 2676               	.L421:
 2677               	.LM512:
 2678 0b2c 440F      		lsl r20
 2679 0b2e 551F      		rol r21
 2680               	.LVL208:
 2681               	.LM513:
 2682 0b30 C901      		movw r24,r18
 2683 0b32 8427      		eor r24,r20
 2684 0b34 9527      		eor r25,r21
 2685 0b36 97FD      		sbrc r25,7
 2686 0b38 00C0      		rjmp .L422
 2687               	.LM514:
 2688 0b3a 220F      		lsl r18
 2689 0b3c 331F      		rol r19
 2690               	.LVL209:
 2691               	.L424:
 2692               	.LM515:
 2693 0b3e FA01      		movw r30,r20
 2694 0b40 EE0F      		lsl r30
 2695 0b42 FF1F      		rol r31
 2696               	.LVL210:
 2697               	.LM516:
 2698 0b44 C901      		movw r24,r18
 2699 0b46 8E27      		eor r24,r30
 2700 0b48 9F27      		eor r25,r31
 2701 0b4a 97FD      		sbrc r25,7
 2702 0b4c 00C0      		rjmp .L425
 2703               	.LM517:
 2704 0b4e A901      		movw r20,r18
 2705 0b50 440F      		lsl r20
 2706 0b52 551F      		rol r21
 2707               	.LVL211:
 2708               	.L427:
 2709               	.LM518:
 2710 0b54 9F01      		movw r18,r30
 2711 0b56 220F      		lsl r18
 2712 0b58 331F      		rol r19
 2713               	.LVL212:
 2714               	.LM519:
 2715 0b5a CA01      		movw r24,r20
 2716 0b5c 8227      		eor r24,r18
 2717 0b5e 9327      		eor r25,r19
 2718 0b60 97FD      		sbrc r25,7
 2719 0b62 00C0      		rjmp .L428
 2720               	.LM520:
 2721 0b64 440F      		lsl r20
 2722 0b66 551F      		rol r21
 2723               	.LVL213:
 2724               	.L430:
 2725               	.LM521:
 2726 0b68 220F      		lsl r18
 2727 0b6a 331F      		rol r19
 2728 0b6c 2427      		eor r18,r20
 2729 0b6e 3527      		eor r19,r21
 2730 0b70 37FD      		sbrc r19,7
 2731 0b72 00C0      		rjmp .L530
 2732               	.LM522:
 2733 0b74 FA01      		movw r30,r20
 2734 0b76 EE0F      		lsl r30
 2735 0b78 FF1F      		rol r31
 2736               	.LVL214:
 2737               	.L433:
 2738               	.LBE218:
 2739               	.LBE217:
 2740               	.LM523:
 2741 0b7a 7F5F      		subi r23,lo8(-(1))
 2742 0b7c 2196      		adiw r28,1
 2743 0b7e 7617      		cp r23,r22
 2744 0b80 01F0      		breq .+2
 2745 0b82 00C0      		rjmp .L401
 2746               	.LVL215:
 2747               	.L399:
 2748               	.LBB220:
 2749               	.LBB221:
 2750               	.LM524:
 2751 0b84 C498      		cbi 56-0x20,4
 2752               	.LM525:
 2753               	/* #APP */
 2754 0b86 0000      		nop
 2755               	.LM526:
 2756 0b88 0000      		nop
 2757               	.LM527:
 2758 0b8a 0000      		nop
 2759               	/* #NOAPP */
 2760 0b8c 80E0      		ldi r24,lo8(0)
 2761 0b8e 90E0      		ldi r25,hi8(0)
 2762 0b90 A0E0      		ldi r26,hlo8(0)
 2763 0b92 B0E0      		ldi r27,hhi8(0)
 2764               	.LVL216:
 2765 0b94 00C0      		rjmp .L434
 2766               	.L435:
 2767               	.LM528:
 2768 0b96 813A      		cpi r24,lo8(100001)
 2769 0b98 26E8      		ldi r18,hi8(100001)
 2770 0b9a 9207      		cpc r25,r18
 2771 0b9c 21E0      		ldi r18,hlo8(100001)
 2772 0b9e A207      		cpc r26,r18
 2773 0ba0 20E0      		ldi r18,hhi8(100001)
 2774 0ba2 B207      		cpc r27,r18
 2775               	.LVL217:
 2776 0ba4 01F0      		breq .L436
 2777 0ba6 0196      		adiw r24,1
 2778 0ba8 A11D      		adc r26,__zero_reg__
 2779 0baa B11D      		adc r27,__zero_reg__
 2780               	.LVL218:
 2781               	.L434:
 2782               	.LM529:
 2783 0bac B69B      		sbis 54-0x20,6
 2784 0bae 00C0      		rjmp .L435
 2785               	.L436:
 2786               	.LM530:
 2787 0bb0 C49A      		sbi 56-0x20,4
 2788               	.LBE221:
 2789               	.LBE220:
 2790               	.LM531:
 2791 0bb2 9F01      		movw r18,r30
 2792               	.LVL219:
 2793 0bb4 3070      		andi r19,hi8(255)
 2794 0bb6 386B      		ori r19,hi8(-18432)
 2795               	.LBB222:
 2796               	.LBB223:
 2797               	.LM532:
 2798 0bb8 C498      		cbi 56-0x20,4
 2799               	.LM533:
 2800 0bba 832F      		mov r24,r19
 2801 0bbc 9927      		clr r25
 2802               	.LVL220:
 2803 0bbe 8FB9      		out 47-0x20,r24
 2804               	.L438:
 2805               	.LM534:
 2806 0bc0 779B      		sbis 46-0x20,7
 2807 0bc2 00C0      		rjmp .L438
 2808               	.LM535:
 2809 0bc4 8FB1      		in r24,47-0x20
 2810               	.LM536:
 2811 0bc6 2FB9      		out 47-0x20,r18
 2812               	.L440:
 2813               	.LM537:
 2814 0bc8 779B      		sbis 46-0x20,7
 2815 0bca 00C0      		rjmp .L440
 2816               	.LM538:
 2817 0bcc 8FB1      		in r24,47-0x20
 2818               	.LM539:
 2819 0bce C49A      		sbi 56-0x20,4
 2820               	.LBE223:
 2821               	.LBE222:
 2822               	.LBB224:
 2823               	.LBB225:
 2824               	.LM540:
 2825 0bd0 C498      		cbi 56-0x20,4
 2826               	.LM541:
 2827               	/* #APP */
 2828 0bd2 0000      		nop
 2829               	.LM542:
 2830 0bd4 0000      		nop
 2831               	.LM543:
 2832 0bd6 0000      		nop
 2833               	/* #NOAPP */
 2834 0bd8 80E0      		ldi r24,lo8(0)
 2835 0bda 90E0      		ldi r25,hi8(0)
 2836 0bdc A0E0      		ldi r26,hlo8(0)
 2837 0bde B0E0      		ldi r27,hhi8(0)
 2838               	.LVL221:
 2839 0be0 00C0      		rjmp .L442
 2840               	.L443:
 2841               	.LM544:
 2842 0be2 813A      		cpi r24,lo8(100001)
 2843 0be4 26E8      		ldi r18,hi8(100001)
 2844 0be6 9207      		cpc r25,r18
 2845 0be8 21E0      		ldi r18,hlo8(100001)
 2846 0bea A207      		cpc r26,r18
 2847 0bec 20E0      		ldi r18,hhi8(100001)
 2848 0bee B207      		cpc r27,r18
 2849 0bf0 01F0      		breq .L444
 2850 0bf2 0196      		adiw r24,1
 2851 0bf4 A11D      		adc r26,__zero_reg__
 2852 0bf6 B11D      		adc r27,__zero_reg__
 2853               	.L442:
 2854               	.LM545:
 2855 0bf8 B69B      		sbis 54-0x20,6
 2856 0bfa 00C0      		rjmp .L443
 2857               	.L444:
 2858               	.LM546:
 2859 0bfc C49A      		sbi 56-0x20,4
 2860               	.LBE225:
 2861               	.LBE224:
 2862               	.LM547:
 2863 0bfe 2F2F      		mov r18,r31
 2864 0c00 3327      		clr r19
 2865 0c02 386B      		ori r19,hi8(-18432)
 2866               	.LBB226:
 2867               	.LBB227:
 2868               	.LM548:
 2869 0c04 C498      		cbi 56-0x20,4
 2870               	.LM549:
 2871 0c06 832F      		mov r24,r19
 2872 0c08 9927      		clr r25
 2873               	.LVL222:
 2874 0c0a 8FB9      		out 47-0x20,r24
 2875               	.L446:
 2876               	.LM550:
 2877 0c0c 779B      		sbis 46-0x20,7
 2878 0c0e 00C0      		rjmp .L446
 2879               	.LM551:
 2880 0c10 8FB1      		in r24,47-0x20
 2881               	.LM552:
 2882 0c12 2FB9      		out 47-0x20,r18
 2883               	.L448:
 2884               	.LM553:
 2885 0c14 779B      		sbis 46-0x20,7
 2886 0c16 00C0      		rjmp .L448
 2887               	.LM554:
 2888 0c18 8FB1      		in r24,47-0x20
 2889               	.LM555:
 2890 0c1a C49A      		sbi 56-0x20,4
 2891               	.LBE227:
 2892               	.LBE226:
 2893               	.LBB228:
 2894               	.LBB229:
 2895               	.LM556:
 2896 0c1c C498      		cbi 56-0x20,4
 2897               	.LM557:
 2898               	/* #APP */
 2899 0c1e 0000      		nop
 2900               	.LM558:
 2901 0c20 0000      		nop
 2902               	.LM559:
 2903 0c22 0000      		nop
 2904               	/* #NOAPP */
 2905 0c24 80E0      		ldi r24,lo8(0)
 2906 0c26 90E0      		ldi r25,hi8(0)
 2907 0c28 A0E0      		ldi r26,hlo8(0)
 2908 0c2a B0E0      		ldi r27,hhi8(0)
 2909               	.LVL223:
 2910 0c2c 00C0      		rjmp .L450
 2911               	.L451:
 2912               	.LM560:
 2913 0c2e 813A      		cpi r24,lo8(100001)
 2914 0c30 26E8      		ldi r18,hi8(100001)
 2915 0c32 9207      		cpc r25,r18
 2916 0c34 21E0      		ldi r18,hlo8(100001)
 2917 0c36 A207      		cpc r26,r18
 2918 0c38 20E0      		ldi r18,hhi8(100001)
 2919 0c3a B207      		cpc r27,r18
 2920 0c3c 01F0      		breq .L452
 2921 0c3e 0196      		adiw r24,1
 2922 0c40 A11D      		adc r26,__zero_reg__
 2923 0c42 B11D      		adc r27,__zero_reg__
 2924               	.L450:
 2925               	.LM561:
 2926 0c44 B69B      		sbis 54-0x20,6
 2927 0c46 00C0      		rjmp .L451
 2928               	.L452:
 2929               	.LM562:
 2930 0c48 C49A      		sbi 56-0x20,4
 2931               	.LBE229:
 2932               	.LBE228:
 2933               	.LBB230:
 2934               	.LBB231:
 2935               	.LM563:
 2936 0c4a C498      		cbi 56-0x20,4
 2937               	.LM564:
 2938 0c4c 88EB      		ldi r24,lo8(-72)
 2939               	.LVL224:
 2940 0c4e 8FB9      		out 47-0x20,r24
 2941               	.L454:
 2942               	.LM565:
 2943 0c50 779B      		sbis 46-0x20,7
 2944 0c52 00C0      		rjmp .L454
 2945               	.LM566:
 2946 0c54 8FB1      		in r24,47-0x20
 2947               	.LM567:
 2948 0c56 8AEA      		ldi r24,lo8(-86)
 2949 0c58 8FB9      		out 47-0x20,r24
 2950               	.L456:
 2951               	.LM568:
 2952 0c5a 779B      		sbis 46-0x20,7
 2953 0c5c 00C0      		rjmp .L456
 2954               	.LM569:
 2955 0c5e 8FB1      		in r24,47-0x20
 2956               	.LM570:
 2957 0c60 C49A      		sbi 56-0x20,4
 2958               	.LBE231:
 2959               	.LBE230:
 2960               	.LBB232:
 2961               	.LBB233:
 2962               	.LM571:
 2963 0c62 C498      		cbi 56-0x20,4
 2964               	.LM572:
 2965               	/* #APP */
 2966 0c64 0000      		nop
 2967               	.LM573:
 2968 0c66 0000      		nop
 2969               	.LM574:
 2970 0c68 0000      		nop
 2971               	/* #NOAPP */
 2972 0c6a 80E0      		ldi r24,lo8(0)
 2973 0c6c 90E0      		ldi r25,hi8(0)
 2974 0c6e A0E0      		ldi r26,hlo8(0)
 2975 0c70 B0E0      		ldi r27,hhi8(0)
 2976               	.LVL225:
 2977 0c72 00C0      		rjmp .L458
 2978               	.L459:
 2979               	.LM575:
 2980 0c74 813A      		cpi r24,lo8(100001)
 2981 0c76 26E8      		ldi r18,hi8(100001)
 2982 0c78 9207      		cpc r25,r18
 2983 0c7a 21E0      		ldi r18,hlo8(100001)
 2984 0c7c A207      		cpc r26,r18
 2985 0c7e 20E0      		ldi r18,hhi8(100001)
 2986 0c80 B207      		cpc r27,r18
 2987 0c82 01F0      		breq .L460
 2988 0c84 0196      		adiw r24,1
 2989 0c86 A11D      		adc r26,__zero_reg__
 2990 0c88 B11D      		adc r27,__zero_reg__
 2991               	.L458:
 2992               	.LM576:
 2993 0c8a B69B      		sbis 54-0x20,6
 2994 0c8c 00C0      		rjmp .L459
 2995               	.L460:
 2996               	.LM577:
 2997 0c8e C49A      		sbi 56-0x20,4
 2998               	.LBE233:
 2999               	.LBE232:
 3000               	.LBB234:
 3001               	.LBB235:
 3002               	.LM578:
 3003 0c90 C498      		cbi 56-0x20,4
 3004               	.LM579:
 3005 0c92 88EB      		ldi r24,lo8(-72)
 3006               	.LVL226:
 3007 0c94 8FB9      		out 47-0x20,r24
 3008               	.L462:
 3009               	.LM580:
 3010 0c96 779B      		sbis 46-0x20,7
 3011 0c98 00C0      		rjmp .L462
 3012               	.LM581:
 3013 0c9a 8FB1      		in r24,47-0x20
 3014               	.LM582:
 3015 0c9c 8AEA      		ldi r24,lo8(-86)
 3016 0c9e 8FB9      		out 47-0x20,r24
 3017               	.L464:
 3018               	.LM583:
 3019 0ca0 779B      		sbis 46-0x20,7
 3020 0ca2 00C0      		rjmp .L464
 3021               	.LM584:
 3022 0ca4 8FB1      		in r24,47-0x20
 3023               	.LM585:
 3024 0ca6 C49A      		sbi 56-0x20,4
 3025               	.LBE235:
 3026               	.LBE234:
 3027               	.LBB236:
 3028               	.LBB237:
 3029               	.LM586:
 3030 0ca8 C498      		cbi 56-0x20,4
 3031               	.LM587:
 3032               	/* #APP */
 3033 0caa 0000      		nop
 3034               	.LM588:
 3035 0cac 0000      		nop
 3036               	.LM589:
 3037 0cae 0000      		nop
 3038               	/* #NOAPP */
 3039 0cb0 80E0      		ldi r24,lo8(0)
 3040 0cb2 90E0      		ldi r25,hi8(0)
 3041 0cb4 A0E0      		ldi r26,hlo8(0)
 3042 0cb6 B0E0      		ldi r27,hhi8(0)
 3043               	.LVL227:
 3044 0cb8 00C0      		rjmp .L466
 3045               	.L467:
 3046               	.LM590:
 3047 0cba 813A      		cpi r24,lo8(100001)
 3048 0cbc 26E8      		ldi r18,hi8(100001)
 3049 0cbe 9207      		cpc r25,r18
 3050 0cc0 21E0      		ldi r18,hlo8(100001)
 3051 0cc2 A207      		cpc r26,r18
 3052 0cc4 20E0      		ldi r18,hhi8(100001)
 3053 0cc6 B207      		cpc r27,r18
 3054 0cc8 01F0      		breq .L468
 3055 0cca 0196      		adiw r24,1
 3056 0ccc A11D      		adc r26,__zero_reg__
 3057 0cce B11D      		adc r27,__zero_reg__
 3058               	.L466:
 3059               	.LM591:
 3060 0cd0 B69B      		sbis 54-0x20,6
 3061 0cd2 00C0      		rjmp .L467
 3062               	.L468:
 3063               	.LM592:
 3064 0cd4 C49A      		sbi 56-0x20,4
 3065               	.LBE237:
 3066               	.LBE236:
 3067               	.LBB238:
 3068               	.LBB239:
 3069               	.LM593:
 3070 0cd6 C498      		cbi 56-0x20,4
 3071               	.LM594:
 3072 0cd8 82E8      		ldi r24,lo8(-126)
 3073               	.LVL228:
 3074 0cda 8FB9      		out 47-0x20,r24
 3075               	.L470:
 3076               	.LM595:
 3077 0cdc 779B      		sbis 46-0x20,7
 3078 0cde 00C0      		rjmp .L470
 3079               	.LM596:
 3080 0ce0 8FB1      		in r24,47-0x20
 3081               	.LM597:
 3082 0ce2 88E0      		ldi r24,lo8(8)
 3083 0ce4 8FB9      		out 47-0x20,r24
 3084               	.L472:
 3085               	.LM598:
 3086 0ce6 779B      		sbis 46-0x20,7
 3087 0ce8 00C0      		rjmp .L472
 3088 0cea 00C0      		rjmp .L538
 3089               	.LVL229:
 3090               	.L530:
 3091               	.LBE239:
 3092               	.LBE238:
 3093               	.LBB241:
 3094               	.LBB219:
 3095               	.LM599:
 3096 0cec FA01      		movw r30,r20
 3097 0cee EE0F      		lsl r30
 3098 0cf0 FF1F      		rol r31
 3099               	.LVL230:
 3100 0cf2 81E2      		ldi r24,lo8(4129)
 3101 0cf4 90E1      		ldi r25,hi8(4129)
 3102 0cf6 E827      		eor r30,r24
 3103 0cf8 F927      		eor r31,r25
 3104 0cfa 00C0      		rjmp .L433
 3105               	.LVL231:
 3106               	.L428:
 3107 0cfc 440F      		lsl r20
 3108 0cfe 551F      		rol r21
 3109               	.LVL232:
 3110 0d00 81E2      		ldi r24,lo8(4129)
 3111 0d02 90E1      		ldi r25,hi8(4129)
 3112 0d04 4827      		eor r20,r24
 3113 0d06 5927      		eor r21,r25
 3114 0d08 00C0      		rjmp .L430
 3115               	.LVL233:
 3116               	.L425:
 3117 0d0a A901      		movw r20,r18
 3118 0d0c 440F      		lsl r20
 3119 0d0e 551F      		rol r21
 3120               	.LVL234:
 3121 0d10 81E2      		ldi r24,lo8(4129)
 3122 0d12 90E1      		ldi r25,hi8(4129)
 3123 0d14 4827      		eor r20,r24
 3124 0d16 5927      		eor r21,r25
 3125 0d18 00C0      		rjmp .L427
 3126               	.LVL235:
 3127               	.L422:
 3128 0d1a 220F      		lsl r18
 3129 0d1c 331F      		rol r19
 3130               	.LVL236:
 3131 0d1e 81E2      		ldi r24,lo8(4129)
 3132 0d20 90E1      		ldi r25,hi8(4129)
 3133 0d22 2827      		eor r18,r24
 3134 0d24 3927      		eor r19,r25
 3135 0d26 00C0      		rjmp .L424
 3136               	.L419:
 3137 0d28 220F      		lsl r18
 3138 0d2a 331F      		rol r19
 3139               	.LVL237:
 3140 0d2c 81E2      		ldi r24,lo8(4129)
 3141 0d2e 90E1      		ldi r25,hi8(4129)
 3142 0d30 2827      		eor r18,r24
 3143 0d32 3927      		eor r19,r25
 3144 0d34 00C0      		rjmp .L421
 3145               	.L416:
 3146 0d36 220F      		lsl r18
 3147 0d38 331F      		rol r19
 3148               	.LVL238:
 3149 0d3a 81E2      		ldi r24,lo8(4129)
 3150 0d3c 90E1      		ldi r25,hi8(4129)
 3151 0d3e 2827      		eor r18,r24
 3152 0d40 3927      		eor r19,r25
 3153 0d42 00C0      		rjmp .L418
 3154               	.L413:
 3155 0d44 220F      		lsl r18
 3156 0d46 331F      		rol r19
 3157               	.LVL239:
 3158 0d48 81E2      		ldi r24,lo8(4129)
 3159 0d4a 90E1      		ldi r25,hi8(4129)
 3160 0d4c 2827      		eor r18,r24
 3161 0d4e 3927      		eor r19,r25
 3162 0d50 00C0      		rjmp .L415
 3163               	.LVL240:
 3164               	.L410:
 3165 0d52 9F01      		movw r18,r30
 3166 0d54 220F      		lsl r18
 3167 0d56 331F      		rol r19
 3168               	.LVL241:
 3169 0d58 81E2      		ldi r24,lo8(4129)
 3170 0d5a 90E1      		ldi r25,hi8(4129)
 3171 0d5c 2827      		eor r18,r24
 3172 0d5e 3927      		eor r19,r25
 3173 0d60 00C0      		rjmp .L412
 3174               	.LVL242:
 3175               	.L528:
 3176               	.LBE219:
 3177               	.LBE241:
 3178               	.LBB242:
 3179               	.LBB212:
 3180               	.LM600:
 3181 0d62 21E2      		ldi r18,lo8(4129)
 3182 0d64 30E1      		ldi r19,hi8(4129)
 3183               	.LVL243:
 3184               	.LM601:
 3185 0d66 AC01      		movw r20,r24
 3186 0d68 440F      		lsl r20
 3187 0d6a 551F      		rol r21
 3188               	.LVL244:
 3189               	.LM602:
 3190 0d6c C901      		movw r24,r18
 3191 0d6e 8427      		eor r24,r20
 3192 0d70 9527      		eor r25,r21
 3193 0d72 97FF      		sbrs r25,7
 3194 0d74 00C0      		rjmp .L532
 3195               	.L378:
 3196               	.LM603:
 3197 0d76 220F      		lsl r18
 3198 0d78 331F      		rol r19
 3199               	.LVL245:
 3200 0d7a 2162      		ori r18,lo8(4129)
 3201 0d7c 3061      		ori r19,hi8(4129)
 3202               	.LM604:
 3203 0d7e 440F      		lsl r20
 3204 0d80 551F      		rol r21
 3205               	.LVL246:
 3206               	.LM605:
 3207 0d82 C901      		movw r24,r18
 3208 0d84 8427      		eor r24,r20
 3209 0d86 9527      		eor r25,r21
 3210 0d88 97FF      		sbrs r25,7
 3211 0d8a 00C0      		rjmp .L533
 3212               	.L381:
 3213               	.LM606:
 3214 0d8c 220F      		lsl r18
 3215 0d8e 331F      		rol r19
 3216               	.LVL247:
 3217 0d90 81E2      		ldi r24,lo8(4129)
 3218 0d92 90E1      		ldi r25,hi8(4129)
 3219 0d94 2827      		eor r18,r24
 3220 0d96 3927      		eor r19,r25
 3221               	.LM607:
 3222 0d98 440F      		lsl r20
 3223 0d9a 551F      		rol r21
 3224               	.LVL248:
 3225               	.LM608:
 3226 0d9c C901      		movw r24,r18
 3227 0d9e 8427      		eor r24,r20
 3228 0da0 9527      		eor r25,r21
 3229 0da2 97FF      		sbrs r25,7
 3230 0da4 00C0      		rjmp .L534
 3231               	.L384:
 3232               	.LM609:
 3233 0da6 220F      		lsl r18
 3234 0da8 331F      		rol r19
 3235               	.LVL249:
 3236 0daa 81E2      		ldi r24,lo8(4129)
 3237 0dac 90E1      		ldi r25,hi8(4129)
 3238 0dae 2827      		eor r18,r24
 3239 0db0 3927      		eor r19,r25
 3240               	.LM610:
 3241 0db2 440F      		lsl r20
 3242 0db4 551F      		rol r21
 3243               	.LVL250:
 3244               	.LM611:
 3245 0db6 C901      		movw r24,r18
 3246 0db8 8427      		eor r24,r20
 3247 0dba 9527      		eor r25,r21
 3248 0dbc 97FF      		sbrs r25,7
 3249 0dbe 00C0      		rjmp .L535
 3250               	.L387:
 3251               	.LM612:
 3252 0dc0 220F      		lsl r18
 3253 0dc2 331F      		rol r19
 3254               	.LVL251:
 3255 0dc4 81E2      		ldi r24,lo8(4129)
 3256 0dc6 90E1      		ldi r25,hi8(4129)
 3257 0dc8 2827      		eor r18,r24
 3258 0dca 3927      		eor r19,r25
 3259               	.LM613:
 3260 0dcc FA01      		movw r30,r20
 3261 0dce EE0F      		lsl r30
 3262 0dd0 FF1F      		rol r31
 3263               	.LVL252:
 3264               	.LM614:
 3265 0dd2 C901      		movw r24,r18
 3266 0dd4 8E27      		eor r24,r30
 3267 0dd6 9F27      		eor r25,r31
 3268 0dd8 97FF      		sbrs r25,7
 3269 0dda 00C0      		rjmp .L536
 3270               	.L390:
 3271               	.LM615:
 3272 0ddc A901      		movw r20,r18
 3273 0dde 440F      		lsl r20
 3274 0de0 551F      		rol r21
 3275               	.LVL253:
 3276 0de2 81E2      		ldi r24,lo8(4129)
 3277 0de4 90E1      		ldi r25,hi8(4129)
 3278 0de6 4827      		eor r20,r24
 3279 0de8 5927      		eor r21,r25
 3280               	.LM616:
 3281 0dea 9F01      		movw r18,r30
 3282 0dec 220F      		lsl r18
 3283 0dee 331F      		rol r19
 3284               	.LVL254:
 3285               	.LM617:
 3286 0df0 CA01      		movw r24,r20
 3287 0df2 8227      		eor r24,r18
 3288 0df4 9327      		eor r25,r19
 3289 0df6 97FF      		sbrs r25,7
 3290 0df8 00C0      		rjmp .L537
 3291               	.L393:
 3292               	.LM618:
 3293 0dfa 440F      		lsl r20
 3294 0dfc 551F      		rol r21
 3295               	.LVL255:
 3296 0dfe 81E2      		ldi r24,lo8(4129)
 3297 0e00 90E1      		ldi r25,hi8(4129)
 3298 0e02 4827      		eor r20,r24
 3299 0e04 5927      		eor r21,r25
 3300               	.LM619:
 3301 0e06 220F      		lsl r18
 3302 0e08 331F      		rol r19
 3303 0e0a 2427      		eor r18,r20
 3304 0e0c 3527      		eor r19,r21
 3305 0e0e 37FF      		sbrs r19,7
 3306 0e10 00C0      		rjmp .L396
 3307               	.L529:
 3308               	.LM620:
 3309 0e12 FA01      		movw r30,r20
 3310 0e14 EE0F      		lsl r30
 3311 0e16 FF1F      		rol r31
 3312               	.LVL256:
 3313 0e18 81E2      		ldi r24,lo8(4129)
 3314 0e1a 90E1      		ldi r25,hi8(4129)
 3315 0e1c E827      		eor r30,r24
 3316 0e1e F927      		eor r31,r25
 3317 0e20 00C0      		rjmp .L398
 3318               	.LVL257:
 3319               	.L538:
 3320               	.LBE212:
 3321               	.LBE242:
 3322               	.LBB243:
 3323               	.LBB240:
 3324               	.LM621:
 3325 0e22 8FB1      		in r24,47-0x20
 3326               	.LM622:
 3327 0e24 C49A      		sbi 56-0x20,4
 3328               	.LBE240:
 3329               	.LBE243:
 3330               	/* epilogue: frame size=0 */
 3331 0e26 DF91      		pop r29
 3332 0e28 CF91      		pop r28
 3333 0e2a 0895      		ret
 3334               	/* epilogue end (size=3) */
 3335               	/* function rf12_txdata size 805 (800) */
 3336               	.LFE14:
 3434               	.Letext0:
DEFINED SYMBOLS
                            *ABS*:00000000 rf12.c
C:\DOKUME~1\Olaf\LOKALE~1\Temp/ccncqTC8.s:2      *ABS*:0000003f __SREG__
C:\DOKUME~1\Olaf\LOKALE~1\Temp/ccncqTC8.s:3      *ABS*:0000003e __SP_H__
C:\DOKUME~1\Olaf\LOKALE~1\Temp/ccncqTC8.s:4      *ABS*:0000003d __SP_L__
C:\DOKUME~1\Olaf\LOKALE~1\Temp/ccncqTC8.s:5      *ABS*:00000000 __tmp_reg__
C:\DOKUME~1\Olaf\LOKALE~1\Temp/ccncqTC8.s:6      *ABS*:00000001 __zero_reg__
C:\DOKUME~1\Olaf\LOKALE~1\Temp/ccncqTC8.s:19     .text:00000000 crcUpdate
C:\DOKUME~1\Olaf\LOKALE~1\Temp/ccncqTC8.s:296    .text:00000158 rf12_trans
C:\DOKUME~1\Olaf\LOKALE~1\Temp/ccncqTC8.s:344    .text:0000017e rf12_ready
C:\DOKUME~1\Olaf\LOKALE~1\Temp/ccncqTC8.s:393    .text:000001ae rf12_setpower
C:\DOKUME~1\Olaf\LOKALE~1\Temp/ccncqTC8.s:453    .text:000001e8 rf12_setbaud
C:\DOKUME~1\Olaf\LOKALE~1\Temp/ccncqTC8.s:566    .text:0000025e rf12_setfreq
C:\DOKUME~1\Olaf\LOKALE~1\Temp/ccncqTC8.s:644    .text:000002a2 rf12_setbandwidth
C:\DOKUME~1\Olaf\LOKALE~1\Temp/ccncqTC8.s:719    .text:000002f6 rf12_init
C:\DOKUME~1\Olaf\LOKALE~1\Temp/ccncqTC8.s:1019   .text:00000400 rf12_rxdata
C:\DOKUME~1\Olaf\LOKALE~1\Temp/ccncqTC8.s:1959   .text:0000082c rf12_txdata

UNDEFINED SYMBOLS
__do_copy_data
__do_clear_bss
__divmodsi4
__udivmodsi4
