   1               		.file	"motor.c"
   2               		.arch atmega16
   3               	__SREG__ = 0x3f
   4               	__SP_H__ = 0x3e
   5               	__SP_L__ = 0x3d
   6               	__tmp_reg__ = 0
   7               	__zero_reg__ = 1
   8               		.global __do_copy_data
   9               		.global __do_clear_bss
  17               	.Ltext0:
  18               	.global	motor_init
  20               	motor_init:
  21               	.LFB8:
  22               	.LM1:
  23               	/* prologue: frame size=0 */
  24               	/* prologue end (size=0) */
  25               	.LM2:
  26 0000 8D9A      		sbi 49-0x20,5
  27               	.LM3:
  28 0002 9598      		cbi 50-0x20,5
  29               	.LM4:
  30 0004 B4B3      		in r27,52-0x20
  31 0006 B06C      		ori r27,lo8(-64)
  32 0008 B4BB      		out 52-0x20,r27
  33               	.LM5:
  34 000a A5B3      		in r26,53-0x20
  35 000c AF73      		andi r26,lo8(63)
  36 000e A5BB      		out 53-0x20,r26
  37               	.LM6:
  38 0010 D698      		cbi 58-0x20,6
  39               	.LM7:
  40 0012 8C9A      		sbi 49-0x20,4
  41               	.LM8:
  42 0014 9498      		cbi 50-0x20,4
  43               	.LM9:
  44 0016 94B3      		in r25,52-0x20
  45 0018 9063      		ori r25,lo8(48)
  46 001a 94BB      		out 52-0x20,r25
  47               	.LM10:
  48 001c 75B3      		in r23,53-0x20
  49 001e 7F7C      		andi r23,lo8(-49)
  50 0020 75BB      		out 53-0x20,r23
  51               	.LM11:
  52 0022 D798      		cbi 58-0x20,7
  53               	.LM12:
  54 0024 8A98      		cbi 49-0x20,2
  55               	.LM13:
  56 0026 929A      		sbi 50-0x20,2
  57               	.LM14:
  58 0028 6BB7      		in r22,91-0x20
  59 002a 6064      		ori r22,lo8(64)
  60 002c 6BBF      		out 91-0x20,r22
  61               	.LM15:
  62 002e 55B7      		in r21,85-0x20
  63 0030 5160      		ori r21,lo8(1)
  64 0032 55BF      		out 85-0x20,r21
  65               	.LM16:
  66 0034 42E0      		ldi r20,lo8(2)
  67 0036 4FBD      		out 79-0x20,r20
  68               	.LM17:
  69 0038 39E0      		ldi r19,lo8(9)
  70 003a 3EBD      		out 78-0x20,r19
  71               	.LM18:
  72 003c 2FB5      		in r18,79-0x20
  73 003e 2068      		ori r18,lo8(-128)
  74 0040 2FBD      		out 79-0x20,r18
  75               	.LM19:
  76 0042 8FB5      		in r24,79-0x20
  77 0044 8062      		ori r24,lo8(32)
  78 0046 8FBD      		out 79-0x20,r24
  79               	.LM20:
  80 0048 1092 0000 		sts (m0)+1,__zero_reg__
  81 004c 1092 0000 		sts m0,__zero_reg__
  82 0050 1092 0000 		sts (m9)+1,__zero_reg__
  83 0054 1092 0000 		sts m9,__zero_reg__
  84 0058 1092 0000 		sts (m8)+1,__zero_reg__
  85 005c 1092 0000 		sts m8,__zero_reg__
  86 0060 1092 0000 		sts (m7)+1,__zero_reg__
  87 0064 1092 0000 		sts m7,__zero_reg__
  88 0068 1092 0000 		sts (m6)+1,__zero_reg__
  89 006c 1092 0000 		sts m6,__zero_reg__
  90 0070 1092 0000 		sts (m5)+1,__zero_reg__
  91 0074 1092 0000 		sts m5,__zero_reg__
  92 0078 1092 0000 		sts (m4)+1,__zero_reg__
  93 007c 1092 0000 		sts m4,__zero_reg__
  94 0080 1092 0000 		sts (m3)+1,__zero_reg__
  95 0084 1092 0000 		sts m3,__zero_reg__
  96 0088 1092 0000 		sts (m2)+1,__zero_reg__
  97 008c 1092 0000 		sts m2,__zero_reg__
  98 0090 1092 0000 		sts (m1)+1,__zero_reg__
  99 0094 1092 0000 		sts m1,__zero_reg__
 100               	.LM21:
 101 0098 1092 0000 		sts (time_delta)+1,__zero_reg__
 102 009c 1092 0000 		sts time_delta,__zero_reg__
 103               	.LM22:
 104 00a0 1092 0000 		sts (counter_alt)+1,__zero_reg__
 105 00a4 1092 0000 		sts counter_alt,__zero_reg__
 106               	.LM23:
 107 00a8 1092 0000 		sts (counter_neu)+1,__zero_reg__
 108 00ac 1092 0000 		sts counter_neu,__zero_reg__
 109               	.LM24:
 110 00b0 1092 0000 		sts (sollstrom_rechts)+1,__zero_reg__
 111 00b4 1092 0000 		sts sollstrom_rechts,__zero_reg__
 112               	.LM25:
 113 00b8 1092 0000 		sts esum_strom_rechts,__zero_reg__
 114 00bc 1092 0000 		sts (esum_strom_rechts)+1,__zero_reg__
 115 00c0 1092 0000 		sts (esum_strom_rechts)+2,__zero_reg__
 116 00c4 1092 0000 		sts (esum_strom_rechts)+3,__zero_reg__
 117               	.LM26:
 118 00c8 1092 0000 		sts esum_drehzahl_rechts,__zero_reg__
 119 00cc 1092 0000 		sts (esum_drehzahl_rechts)+1,__zero_reg__
 120 00d0 1092 0000 		sts (esum_drehzahl_rechts)+2,__zero_reg__
 121 00d4 1092 0000 		sts (esum_drehzahl_rechts)+3,__zero_reg__
 122               	.LM27:
 123 00d8 1092 0000 		sts ealt_drehzahl_rechts,__zero_reg__
 124 00dc 1092 0000 		sts (ealt_drehzahl_rechts)+1,__zero_reg__
 125 00e0 1092 0000 		sts (ealt_drehzahl_rechts)+2,__zero_reg__
 126 00e4 1092 0000 		sts (ealt_drehzahl_rechts)+3,__zero_reg__
 127               	/* epilogue: frame size=0 */
 128 00e8 0895      		ret
 129               	/* epilogue end (size=1) */
 130               	/* function motor_init size 117 (116) */
 131               	.LFE8:
 133               	.global	motor_l
 135               	motor_l:
 136               	.LFB9:
 137               	.LM28:
 138               	/* prologue: frame size=0 */
 139               	/* prologue end (size=0) */
 140               	.LM29:
 141 00ea 97FD      		sbrc r25,7
 142 00ec 09C0      		rjmp .L7
 143               	.LM30:
 144 00ee AE98      		cbi 53-0x20,6
 145               	.LM31:
 146 00f0 AF9A      		sbi 53-0x20,7
 147               	.L4:
 148               	.LM32:
 149 00f2 22E0      		ldi r18,hi8(512)
 150 00f4 8030      		cpi r24,lo8(512)
 151 00f6 9207      		cpc r25,r18
 152 00f8 4CF0      		brlt .L5
 153 00fa 8FEF      		ldi r24,lo8(511)
 154 00fc 91E0      		ldi r25,hi8(511)
 155 00fe 06C0      		rjmp .L5
 156               	.L7:
 157               	.LM33:
 158 0100 9095      		com r25
 159 0102 8195      		neg r24
 160 0104 9F4F      		sbci r25,lo8(-1)
 161               	.LM34:
 162 0106 AF98      		cbi 53-0x20,7
 163               	.LM35:
 164 0108 AE9A      		sbi 53-0x20,6
 165 010a F3CF      		rjmp .L4
 166               	.L5:
 167               	.LM36:
 168 010c 9BBD      		out (74)+1-0x20,r25
 169 010e 8ABD      		out 74-0x20,r24
 170               	/* epilogue: frame size=0 */
 171 0110 0895      		ret
 172               	/* epilogue end (size=1) */
 173               	/* function motor_l size 20 (19) */
 174               	.LFE9:
 176               	.global	motor_r
 178               	motor_r:
 179               	.LFB10:
 180               	.LM37:
 181               	/* prologue: frame size=0 */
 182               	/* prologue end (size=0) */
 183               	.LM38:
 184 0112 97FD      		sbrc r25,7
 185 0114 09C0      		rjmp .L12
 186               	.LM39:
 187 0116 AC98      		cbi 53-0x20,4
 188               	.LM40:
 189 0118 AD9A      		sbi 53-0x20,5
 190               	.L10:
 191               	.LM41:
 192 011a 22E0      		ldi r18,hi8(512)
 193 011c 8030      		cpi r24,lo8(512)
 194 011e 9207      		cpc r25,r18
 195 0120 4CF0      		brlt .L11
 196 0122 8FEF      		ldi r24,lo8(511)
 197 0124 91E0      		ldi r25,hi8(511)
 198 0126 06C0      		rjmp .L11
 199               	.L12:
 200               	.LM42:
 201 0128 9095      		com r25
 202 012a 8195      		neg r24
 203 012c 9F4F      		sbci r25,lo8(-1)
 204               	.LM43:
 205 012e AD98      		cbi 53-0x20,5
 206               	.LM44:
 207 0130 AC9A      		sbi 53-0x20,4
 208 0132 F3CF      		rjmp .L10
 209               	.L11:
 210               	.LM45:
 211 0134 99BD      		out (72)+1-0x20,r25
 212 0136 88BD      		out 72-0x20,r24
 213               	/* epilogue: frame size=0 */
 214 0138 0895      		ret
 215               	/* epilogue end (size=1) */
 216               	/* function motor_r size 20 (19) */
 217               	.LFE10:
 219               	.global	get_Motorstrom
 221               	get_Motorstrom:
 222               	.LFB11:
 223               	.LM46:
 224               	/* prologue: frame size=0 */
 225               	/* prologue end (size=0) */
 226               	.LM47:
 227 013a 0E94 0000 		call get_adc
 228               	.LM48:
 229 013e 28E1      		ldi r18,lo8(24)
 230 0140 30E0      		ldi r19,hi8(24)
 231 0142 829F      		mul r24,r18
 232 0144 A001      		movw r20,r0
 233 0146 839F      		mul r24,r19
 234 0148 500D      		add r21,r0
 235 014a 929F      		mul r25,r18
 236 014c 500D      		add r21,r0
 237 014e 1124      		clr r1
 238 0150 CA01      		movw r24,r20
 239 0152 6AE0      		ldi r22,lo8(10)
 240 0154 70E0      		ldi r23,hi8(10)
 241 0156 0E94 0000 		call __udivmodhi4
 242 015a CB01      		movw r24,r22
 243               	/* epilogue: frame size=0 */
 244 015c 0895      		ret
 245               	/* epilogue end (size=1) */
 246               	/* function get_Motorstrom size 18 (17) */
 247               	.LFE11:
 249               	.global	get_Motordrehzahl
 251               	get_Motordrehzahl:
 252               	.LFB12:
 253               	.LM49:
 254               	/* prologue: frame size=0 */
 255 015e EF92      		push r14
 256 0160 FF92      		push r15
 257 0162 0F93      		push r16
 258 0164 1F93      		push r17
 259 0166 CF93      		push r28
 260               	/* prologue end (size=5) */
 261               	.LM50:
 262 0168 C091 0000 		lds r28,is_not_moving_rechts
 263 016c C530      		cpi r28,lo8(5)
 264 016e 08F0      		brlo .+2
 265 0170 78C0      		rjmp .L15
 266               	.LM51:
 267 0172 E090 0000 		lds r14,m7
 268 0176 F090 0000 		lds r15,(m7)+1
 269 017a F092 0000 		sts (m8)+1,r15
 270 017e E092 0000 		sts m8,r14
 271 0182 0091 0000 		lds r16,m6
 272 0186 1091 0000 		lds r17,(m6)+1
 273 018a 1093 0000 		sts (m7)+1,r17
 274 018e 0093 0000 		sts m7,r16
 275 0192 A091 0000 		lds r26,m5
 276 0196 B091 0000 		lds r27,(m5)+1
 277 019a B093 0000 		sts (m6)+1,r27
 278 019e A093 0000 		sts m6,r26
 279 01a2 E091 0000 		lds r30,m4
 280 01a6 F091 0000 		lds r31,(m4)+1
 281 01aa F093 0000 		sts (m5)+1,r31
 282 01ae E093 0000 		sts m5,r30
 283 01b2 6091 0000 		lds r22,m3
 284 01b6 7091 0000 		lds r23,(m3)+1
 285 01ba 7093 0000 		sts (m4)+1,r23
 286 01be 6093 0000 		sts m4,r22
 287 01c2 4091 0000 		lds r20,m2
 288 01c6 5091 0000 		lds r21,(m2)+1
 289 01ca 5093 0000 		sts (m3)+1,r21
 290 01ce 4093 0000 		sts m3,r20
 291 01d2 2091 0000 		lds r18,m1
 292 01d6 3091 0000 		lds r19,(m1)+1
 293 01da 3093 0000 		sts (m2)+1,r19
 294 01de 2093 0000 		sts m2,r18
 295 01e2 8091 0000 		lds r24,time_delta
 296 01e6 9091 0000 		lds r25,(time_delta)+1
 297 01ea 9093 0000 		sts (m1)+1,r25
 298 01ee 8093 0000 		sts m1,r24
 299               	.LM52:
 300 01f2 280F      		add r18,r24
 301 01f4 391F      		adc r19,r25
 302 01f6 240F      		add r18,r20
 303 01f8 351F      		adc r19,r21
 304 01fa 260F      		add r18,r22
 305 01fc 371F      		adc r19,r23
 306 01fe 2E0F      		add r18,r30
 307 0200 3F1F      		adc r19,r31
 308 0202 2A0F      		add r18,r26
 309 0204 3B1F      		adc r19,r27
 310 0206 200F      		add r18,r16
 311 0208 311F      		adc r19,r17
 312 020a 2E0D      		add r18,r14
 313 020c 3F1D      		adc r19,r15
 314 020e 37FD      		sbrc r19,7
 315 0210 34C0      		rjmp .L21
 316               	.L16:
 317 0212 3595      		asr r19
 318 0214 2795      		ror r18
 319 0216 3595      		asr r19
 320 0218 2795      		ror r18
 321 021a 3595      		asr r19
 322 021c 2795      		ror r18
 323 021e 4427      		clr r20
 324 0220 37FD      		sbrc r19,7
 325 0222 4095      		com r20
 326 0224 542F      		mov r21,r20
 327               	.LM53:
 328 0226 89E0      		ldi r24,9
 329 0228 220F      	1:	lsl r18
 330 022a 331F      		rol r19
 331 022c 441F      		rol r20
 332 022e 551F      		rol r21
 333 0230 8A95      		dec r24
 334 0232 D1F7      		brne 1b
 335               	.LM54:
 336 0234 2115      		cp r18,__zero_reg__
 337 0236 3105      		cpc r19,__zero_reg__
 338 0238 4105      		cpc r20,__zero_reg__
 339 023a 5105      		cpc r21,__zero_reg__
 340 023c 51F0      		breq .L17
 341               	.LM55:
 342 023e 60E2      		ldi r22,lo8(663540000)
 343 0240 71ED      		ldi r23,hi8(663540000)
 344 0242 8CE8      		ldi r24,hlo8(663540000)
 345 0244 97E2      		ldi r25,hhi8(663540000)
 346 0246 0E94 0000 		call __udivmodsi4
 347 024a 3093 0000 		sts (drehzahl_rechts)+1,r19
 348 024e 2093 0000 		sts drehzahl_rechts,r18
 349               	.L17:
 350               	.LM56:
 351 0252 8091 0000 		lds r24,drehzahl_rechts
 352 0256 9091 0000 		lds r25,(drehzahl_rechts)+1
 353 025a 2BE1      		ldi r18,hi8(7001)
 354 025c 8935      		cpi r24,lo8(7001)
 355 025e 9207      		cpc r25,r18
 356 0260 34F0      		brlt .L19
 357               	.L15:
 358               	.LM57:
 359 0262 1092 0000 		sts (drehzahl_rechts)+1,__zero_reg__
 360 0266 1092 0000 		sts drehzahl_rechts,__zero_reg__
 361 026a 80E0      		ldi r24,lo8(0)
 362 026c 90E0      		ldi r25,hi8(0)
 363               	.L19:
 364               	.LM58:
 365 026e CF3F      		cpi r28,lo8(-1)
 366 0270 39F0      		breq .L20
 367 0272 CF5F      		subi r28,lo8(-(1))
 368 0274 C093 0000 		sts is_not_moving_rechts,r28
 369 0278 03C0      		rjmp .L20
 370               	.L21:
 371               	.LM59:
 372 027a 295F      		subi r18,lo8(-(7))
 373 027c 3F4F      		sbci r19,hi8(-(7))
 374 027e C9CF      		rjmp .L16
 375               	.L20:
 376               	/* epilogue: frame size=0 */
 377 0280 CF91      		pop r28
 378 0282 1F91      		pop r17
 379 0284 0F91      		pop r16
 380 0286 FF90      		pop r15
 381 0288 EF90      		pop r14
 382 028a 0895      		ret
 383               	/* epilogue end (size=6) */
 384               	/* function get_Motordrehzahl size 151 (140) */
 385               	.LFE12:
 387               	.global	stromreglung_rechts
 389               	stromreglung_rechts:
 390               	.LFB13:
 391               	.LM60:
 392               	/* prologue: frame size=0 */
 393 028c EF92      		push r14
 394 028e FF92      		push r15
 395 0290 0F93      		push r16
 396 0292 1F93      		push r17
 397               	/* prologue end (size=4) */
 398               	.LBB2:
 399               	.LBB3:
 400               	.LM61:
 401 0294 87E0      		ldi r24,lo8(7)
 402 0296 0E94 0000 		call get_adc
 403               	.LM62:
 404 029a 08E1      		ldi r16,lo8(24)
 405 029c 10E0      		ldi r17,hi8(24)
 406 029e 809F      		mul r24,r16
 407 02a0 A001      		movw r20,r0
 408 02a2 819F      		mul r24,r17
 409 02a4 500D      		add r21,r0
 410 02a6 909F      		mul r25,r16
 411 02a8 500D      		add r21,r0
 412 02aa 1124      		clr r1
 413 02ac CA01      		movw r24,r20
 414 02ae 6AE0      		ldi r22,lo8(10)
 415 02b0 70E0      		ldi r23,hi8(10)
 416 02b2 0E94 0000 		call __udivmodhi4
 417               	.LBE3:
 418               	.LBE2:
 419               	.LM63:
 420 02b6 E090 0000 		lds r14,sollstrom_rechts
 421 02ba F090 0000 		lds r15,(sollstrom_rechts)+1
 422 02be E61A      		sub r14,r22
 423 02c0 F70A      		sbc r15,r23
 424 02c2 9701      		movw r18,r14
 425 02c4 4427      		clr r20
 426 02c6 37FD      		sbrc r19,7
 427 02c8 4095      		com r20
 428 02ca 542F      		mov r21,r20
 429               	.LM64:
 430 02cc DA01      		movw r26,r20
 431 02ce C901      		movw r24,r18
 432 02d0 0996      		adiw r24,9
 433 02d2 A11D      		adc r26,__zero_reg__
 434 02d4 B11D      		adc r27,__zero_reg__
 435 02d6 4397      		sbiw r24,19
 436 02d8 A105      		cpc r26,__zero_reg__
 437 02da B105      		cpc r27,__zero_reg__
 438 02dc 20F4      		brsh .L24
 439               	.LM65:
 440 02de 20E0      		ldi r18,lo8(0)
 441 02e0 30E0      		ldi r19,hi8(0)
 442 02e2 40E0      		ldi r20,hlo8(0)
 443 02e4 50E0      		ldi r21,hhi8(0)
 444               	.L24:
 445               	.LM66:
 446 02e6 E090 0000 		lds r14,esum_strom_rechts
 447 02ea F090 0000 		lds r15,(esum_strom_rechts)+1
 448 02ee 0091 0000 		lds r16,(esum_strom_rechts)+2
 449 02f2 1091 0000 		lds r17,(esum_strom_rechts)+3
 450 02f6 E20E      		add r14,r18
 451 02f8 F31E      		adc r15,r19
 452 02fa 041F      		adc r16,r20
 453 02fc 151F      		adc r17,r21
 454 02fe E092 0000 		sts esum_strom_rechts,r14
 455 0302 F092 0000 		sts (esum_strom_rechts)+1,r15
 456 0306 0093 0000 		sts (esum_strom_rechts)+2,r16
 457 030a 1093 0000 		sts (esum_strom_rechts)+3,r17
 458               	.LM67:
 459 030e 8091 0000 		lds r24,esum_strom_rechts
 460 0312 9091 0000 		lds r25,(esum_strom_rechts)+1
 461 0316 A091 0000 		lds r26,(esum_strom_rechts)+2
 462 031a B091 0000 		lds r27,(esum_strom_rechts)+3
 463 031e B7FD      		sbrc r27,7
 464 0320 58C0      		rjmp .L33
 465               	.L25:
 466               	.LM68:
 467 0322 8091 0000 		lds r24,esum_strom_rechts
 468 0326 9091 0000 		lds r25,(esum_strom_rechts)+1
 469 032a A091 0000 		lds r26,(esum_strom_rechts)+2
 470 032e B091 0000 		lds r27,(esum_strom_rechts)+3
 471 0332 8156      		subi r24,lo8(60001)
 472 0334 9A4E      		sbci r25,hi8(60001)
 473 0336 A040      		sbci r26,hlo8(60001)
 474 0338 B040      		sbci r27,hhi8(60001)
 475 033a 64F0      		brlt .L26
 476 033c 80E6      		ldi r24,lo8(60000)
 477 033e 9AEE      		ldi r25,hi8(60000)
 478 0340 A0E0      		ldi r26,hlo8(60000)
 479 0342 B0E0      		ldi r27,hhi8(60000)
 480 0344 8093 0000 		sts esum_strom_rechts,r24
 481 0348 9093 0000 		sts (esum_strom_rechts)+1,r25
 482 034c A093 0000 		sts (esum_strom_rechts)+2,r26
 483 0350 B093 0000 		sts (esum_strom_rechts)+3,r27
 484               	.L26:
 485               	.LM69:
 486 0354 7901      		movw r14,r18
 487 0356 8A01      		movw r16,r20
 488 0358 EE0C      		lsl r14
 489 035a FF1C      		rol r15
 490 035c 001F      		rol r16
 491 035e 111F      		rol r17
 492 0360 2091 0000 		lds r18,esum_strom_rechts
 493 0364 3091 0000 		lds r19,(esum_strom_rechts)+1
 494 0368 4091 0000 		lds r20,(esum_strom_rechts)+2
 495 036c 5091 0000 		lds r21,(esum_strom_rechts)+3
 496 0370 6CE0      		ldi r22,lo8(12)
 497 0372 70E0      		ldi r23,hi8(12)
 498 0374 80E0      		ldi r24,hlo8(12)
 499 0376 90E0      		ldi r25,hhi8(12)
 500 0378 0E94 0000 		call __mulsi3
 501 037c DC01      		movw r26,r24
 502 037e CB01      		movw r24,r22
 503 0380 BC01      		movw r22,r24
 504 0382 CD01      		movw r24,r26
 505 0384 28EE      		ldi r18,lo8(1000)
 506 0386 33E0      		ldi r19,hi8(1000)
 507 0388 40E0      		ldi r20,hlo8(1000)
 508 038a 50E0      		ldi r21,hhi8(1000)
 509 038c 0E94 0000 		call __divmodsi4
 510 0390 E20E      		add r14,r18
 511 0392 F31E      		adc r15,r19
 512 0394 041F      		adc r16,r20
 513 0396 151F      		adc r17,r21
 514               	.LM70:
 515 0398 17FD      		sbrc r17,7
 516 039a 2AC0      		rjmp .L34
 517               	.L27:
 518               	.LM71:
 519 039c 80E0      		ldi r24,lo8(512)
 520 039e E816      		cp r14,r24
 521 03a0 82E0      		ldi r24,hi8(512)
 522 03a2 F806      		cpc r15,r24
 523 03a4 80E0      		ldi r24,hlo8(512)
 524 03a6 0807      		cpc r16,r24
 525 03a8 80E0      		ldi r24,hhi8(512)
 526 03aa 1807      		cpc r17,r24
 527 03ac 34F0      		brlt .L28
 528 03ae 2FEF      		ldi r18,lo8(511)
 529 03b0 E22E      		mov r14,r18
 530 03b2 21E0      		ldi r18,hi8(511)
 531 03b4 F22E      		mov r15,r18
 532 03b6 012D      		mov r16,__zero_reg__
 533 03b8 112D      		mov r17,__zero_reg__
 534               	.L28:
 535               	.LBB4:
 536               	.LM72:
 537 03ba C701      		movw r24,r14
 538               	.LBB5:
 539               	.LM73:
 540 03bc F7FC      		sbrc r15,7
 541 03be 12C0      		rjmp .L35
 542               	.LM74:
 543 03c0 AC98      		cbi 53-0x20,4
 544               	.LM75:
 545 03c2 AD9A      		sbi 53-0x20,5
 546               	.L30:
 547               	.LM76:
 548 03c4 22E0      		ldi r18,hi8(512)
 549 03c6 8030      		cpi r24,lo8(512)
 550 03c8 9207      		cpc r25,r18
 551 03ca B4F0      		brlt .L31
 552 03cc 8FEF      		ldi r24,lo8(511)
 553 03ce 91E0      		ldi r25,hi8(511)
 554 03d0 13C0      		rjmp .L31
 555               	.L33:
 556               	.LBE5:
 557               	.LBE4:
 558               	.LM77:
 559 03d2 1092 0000 		sts esum_strom_rechts,__zero_reg__
 560 03d6 1092 0000 		sts (esum_strom_rechts)+1,__zero_reg__
 561 03da 1092 0000 		sts (esum_strom_rechts)+2,__zero_reg__
 562 03de 1092 0000 		sts (esum_strom_rechts)+3,__zero_reg__
 563 03e2 9FCF      		rjmp .L25
 564               	.L35:
 565               	.LBB6:
 566               	.LBB7:
 567               	.LM78:
 568 03e4 9095      		com r25
 569 03e6 8195      		neg r24
 570 03e8 9F4F      		sbci r25,lo8(-1)
 571               	.LM79:
 572 03ea AD98      		cbi 53-0x20,5
 573               	.LM80:
 574 03ec AC9A      		sbi 53-0x20,4
 575 03ee EACF      		rjmp .L30
 576               	.L34:
 577               	.LBE7:
 578               	.LBE6:
 579               	.LM81:
 580 03f0 EE24      		clr r14
 581 03f2 FF24      		clr r15
 582 03f4 8701      		movw r16,r14
 583 03f6 D2CF      		rjmp .L27
 584               	.L31:
 585               	.LBB8:
 586               	.LBB9:
 587               	.LM82:
 588 03f8 99BD      		out (72)+1-0x20,r25
 589 03fa 88BD      		out 72-0x20,r24
 590               	.LBE9:
 591               	.LBE8:
 592               	/* epilogue: frame size=0 */
 593 03fc 1F91      		pop r17
 594 03fe 0F91      		pop r16
 595 0400 FF90      		pop r15
 596 0402 EF90      		pop r14
 597 0404 0895      		ret
 598               	/* epilogue end (size=5) */
 599               	/* function stromreglung_rechts size 193 (184) */
 600               	.LFE13:
 602               	.global	drehzahlregelung_rechts
 604               	drehzahlregelung_rechts:
 605               	.LFB14:
 606               	.LM83:
 607               	/* prologue: frame size=0 */
 608 0406 8F92      		push r8
 609 0408 9F92      		push r9
 610 040a AF92      		push r10
 611 040c BF92      		push r11
 612 040e CF92      		push r12
 613 0410 DF92      		push r13
 614 0412 EF92      		push r14
 615 0414 FF92      		push r15
 616 0416 0F93      		push r16
 617 0418 1F93      		push r17
 618 041a CF93      		push r28
 619               	/* prologue end (size=11) */
 620 041c 4C01      		movw r8,r24
 621               	.LBB10:
 622               	.LBB11:
 623               	.LM84:
 624 041e C091 0000 		lds r28,is_not_moving_rechts
 625 0422 C530      		cpi r28,lo8(5)
 626 0424 08F0      		brlo .+2
 627 0426 78C0      		rjmp .L37
 628               	.LM85:
 629 0428 E090 0000 		lds r14,m7
 630 042c F090 0000 		lds r15,(m7)+1
 631 0430 F092 0000 		sts (m8)+1,r15
 632 0434 E092 0000 		sts m8,r14
 633 0438 0091 0000 		lds r16,m6
 634 043c 1091 0000 		lds r17,(m6)+1
 635 0440 1093 0000 		sts (m7)+1,r17
 636 0444 0093 0000 		sts m7,r16
 637 0448 A091 0000 		lds r26,m5
 638 044c B091 0000 		lds r27,(m5)+1
 639 0450 B093 0000 		sts (m6)+1,r27
 640 0454 A093 0000 		sts m6,r26
 641 0458 E091 0000 		lds r30,m4
 642 045c F091 0000 		lds r31,(m4)+1
 643 0460 F093 0000 		sts (m5)+1,r31
 644 0464 E093 0000 		sts m5,r30
 645 0468 6091 0000 		lds r22,m3
 646 046c 7091 0000 		lds r23,(m3)+1
 647 0470 7093 0000 		sts (m4)+1,r23
 648 0474 6093 0000 		sts m4,r22
 649 0478 4091 0000 		lds r20,m2
 650 047c 5091 0000 		lds r21,(m2)+1
 651 0480 5093 0000 		sts (m3)+1,r21
 652 0484 4093 0000 		sts m3,r20
 653 0488 2091 0000 		lds r18,m1
 654 048c 3091 0000 		lds r19,(m1)+1
 655 0490 3093 0000 		sts (m2)+1,r19
 656 0494 2093 0000 		sts m2,r18
 657 0498 8091 0000 		lds r24,time_delta
 658 049c 9091 0000 		lds r25,(time_delta)+1
 659 04a0 9093 0000 		sts (m1)+1,r25
 660 04a4 8093 0000 		sts m1,r24
 661               	.LM86:
 662 04a8 280F      		add r18,r24
 663 04aa 391F      		adc r19,r25
 664 04ac 240F      		add r18,r20
 665 04ae 351F      		adc r19,r21
 666 04b0 260F      		add r18,r22
 667 04b2 371F      		adc r19,r23
 668 04b4 2E0F      		add r18,r30
 669 04b6 3F1F      		adc r19,r31
 670 04b8 2A0F      		add r18,r26
 671 04ba 3B1F      		adc r19,r27
 672 04bc 200F      		add r18,r16
 673 04be 311F      		adc r19,r17
 674 04c0 2E0D      		add r18,r14
 675 04c2 3F1D      		adc r19,r15
 676 04c4 37FD      		sbrc r19,7
 677 04c6 00C1      		rjmp .L53
 678               	.L38:
 679 04c8 3595      		asr r19
 680 04ca 2795      		ror r18
 681 04cc 3595      		asr r19
 682 04ce 2795      		ror r18
 683 04d0 3595      		asr r19
 684 04d2 2795      		ror r18
 685 04d4 4427      		clr r20
 686 04d6 37FD      		sbrc r19,7
 687 04d8 4095      		com r20
 688 04da 542F      		mov r21,r20
 689               	.LM87:
 690 04dc 69E0      		ldi r22,9
 691 04de 220F      	1:	lsl r18
 692 04e0 331F      		rol r19
 693 04e2 441F      		rol r20
 694 04e4 551F      		rol r21
 695 04e6 6A95      		dec r22
 696 04e8 D1F7      		brne 1b
 697               	.LM88:
 698 04ea 2115      		cp r18,__zero_reg__
 699 04ec 3105      		cpc r19,__zero_reg__
 700 04ee 4105      		cpc r20,__zero_reg__
 701 04f0 5105      		cpc r21,__zero_reg__
 702 04f2 51F0      		breq .L39
 703               	.LM89:
 704 04f4 60E2      		ldi r22,lo8(663540000)
 705 04f6 71ED      		ldi r23,hi8(663540000)
 706 04f8 8CE8      		ldi r24,hlo8(663540000)
 707 04fa 97E2      		ldi r25,hhi8(663540000)
 708 04fc 0E94 0000 		call __udivmodsi4
 709 0500 3093 0000 		sts (drehzahl_rechts)+1,r19
 710 0504 2093 0000 		sts drehzahl_rechts,r18
 711               	.L39:
 712               	.LM90:
 713 0508 8091 0000 		lds r24,drehzahl_rechts
 714 050c 9091 0000 		lds r25,(drehzahl_rechts)+1
 715 0510 2BE1      		ldi r18,hi8(7001)
 716 0512 8935      		cpi r24,lo8(7001)
 717 0514 9207      		cpc r25,r18
 718 0516 34F0      		brlt .L41
 719               	.L37:
 720               	.LM91:
 721 0518 1092 0000 		sts (drehzahl_rechts)+1,__zero_reg__
 722 051c 1092 0000 		sts drehzahl_rechts,__zero_reg__
 723 0520 80E0      		ldi r24,lo8(0)
 724 0522 90E0      		ldi r25,hi8(0)
 725               	.L41:
 726               	.LM92:
 727 0524 CF3F      		cpi r28,lo8(-1)
 728 0526 19F0      		breq .L42
 729 0528 CF5F      		subi r28,lo8(-(1))
 730 052a C093 0000 		sts is_not_moving_rechts,r28
 731               	.L42:
 732               	.LBE11:
 733               	.LBE10:
 734               	.LM93:
 735 052e 5401      		movw r10,r8
 736 0530 A81A      		sub r10,r24
 737 0532 B90A      		sbc r11,r25
 738 0534 7501      		movw r14,r10
 739 0536 5701      		movw r10,r14
 740 0538 CC24      		clr r12
 741 053a B7FC      		sbrc r11,7
 742 053c C094      		com r12
 743 053e DC2C      		mov r13,r12
 744               	.LM94:
 745 0540 2091 0000 		lds r18,esum_drehzahl_rechts
 746 0544 3091 0000 		lds r19,(esum_drehzahl_rechts)+1
 747 0548 4091 0000 		lds r20,(esum_drehzahl_rechts)+2
 748 054c 5091 0000 		lds r21,(esum_drehzahl_rechts)+3
 749 0550 2A0D      		add r18,r10
 750 0552 3B1D      		adc r19,r11
 751 0554 4C1D      		adc r20,r12
 752 0556 5D1D      		adc r21,r13
 753 0558 2093 0000 		sts esum_drehzahl_rechts,r18
 754 055c 3093 0000 		sts (esum_drehzahl_rechts)+1,r19
 755 0560 4093 0000 		sts (esum_drehzahl_rechts)+2,r20
 756 0564 5093 0000 		sts (esum_drehzahl_rechts)+3,r21
 757               	.LM95:
 758 0568 8928      		or r8,r9
 759 056a 99F4      		brne .L44
 760 056c 8091 0000 		lds r24,esum_drehzahl_rechts
 761 0570 9091 0000 		lds r25,(esum_drehzahl_rechts)+1
 762 0574 A091 0000 		lds r26,(esum_drehzahl_rechts)+2
 763 0578 B091 0000 		lds r27,(esum_drehzahl_rechts)+3
 764 057c 4497      		sbiw r24,20
 765 057e A109      		sbc r26,__zero_reg__
 766 0580 B109      		sbc r27,__zero_reg__
 767 0582 8093 0000 		sts esum_drehzahl_rechts,r24
 768 0586 9093 0000 		sts (esum_drehzahl_rechts)+1,r25
 769 058a A093 0000 		sts (esum_drehzahl_rechts)+2,r26
 770 058e B093 0000 		sts (esum_drehzahl_rechts)+3,r27
 771               	.L44:
 772               	.LM96:
 773 0592 0091 0000 		lds r16,esum_drehzahl_rechts
 774 0596 1091 0000 		lds r17,(esum_drehzahl_rechts)+1
 775 059a 2091 0000 		lds r18,(esum_drehzahl_rechts)+2
 776 059e 3091 0000 		lds r19,(esum_drehzahl_rechts)+3
 777 05a2 37FD      		sbrc r19,7
 778 05a4 88C0      		rjmp .L54
 779               	.L45:
 780               	.LM97:
 781 05a6 4091 0000 		lds r20,esum_drehzahl_rechts
 782 05aa 5091 0000 		lds r21,(esum_drehzahl_rechts)+1
 783 05ae 6091 0000 		lds r22,(esum_drehzahl_rechts)+2
 784 05b2 7091 0000 		lds r23,(esum_drehzahl_rechts)+3
 785 05b6 4156      		subi r20,lo8(60001)
 786 05b8 5A4E      		sbci r21,hi8(60001)
 787 05ba 6040      		sbci r22,hlo8(60001)
 788 05bc 7040      		sbci r23,hhi8(60001)
 789 05be 64F0      		brlt .L46
 790 05c0 20E6      		ldi r18,lo8(60000)
 791 05c2 3AEE      		ldi r19,hi8(60000)
 792 05c4 40E0      		ldi r20,hlo8(60000)
 793 05c6 50E0      		ldi r21,hhi8(60000)
 794 05c8 2093 0000 		sts esum_drehzahl_rechts,r18
 795 05cc 3093 0000 		sts (esum_drehzahl_rechts)+1,r19
 796 05d0 4093 0000 		sts (esum_drehzahl_rechts)+2,r20
 797 05d4 5093 0000 		sts (esum_drehzahl_rechts)+3,r21
 798               	.L46:
 799               	.LM98:
 800 05d8 C601      		movw r24,r12
 801 05da B501      		movw r22,r10
 802 05dc 23E0      		ldi r18,lo8(3)
 803 05de 30E0      		ldi r19,hi8(3)
 804 05e0 40E0      		ldi r20,hlo8(3)
 805 05e2 50E0      		ldi r21,hhi8(3)
 806 05e4 0E94 0000 		call __divmodsi4
 807 05e8 7901      		movw r14,r18
 808 05ea 8A01      		movw r16,r20
 809 05ec 2091 0000 		lds r18,esum_drehzahl_rechts
 810 05f0 3091 0000 		lds r19,(esum_drehzahl_rechts)+1
 811 05f4 4091 0000 		lds r20,(esum_drehzahl_rechts)+2
 812 05f8 5091 0000 		lds r21,(esum_drehzahl_rechts)+3
 813 05fc 61E2      		ldi r22,lo8(33)
 814 05fe 70E0      		ldi r23,hi8(33)
 815 0600 80E0      		ldi r24,hlo8(33)
 816 0602 90E0      		ldi r25,hhi8(33)
 817 0604 0E94 0000 		call __mulsi3
 818 0608 DC01      		movw r26,r24
 819 060a CB01      		movw r24,r22
 820 060c BC01      		movw r22,r24
 821 060e CD01      		movw r24,r26
 822 0610 28EB      		ldi r18,lo8(3000)
 823 0612 3BE0      		ldi r19,hi8(3000)
 824 0614 40E0      		ldi r20,hlo8(3000)
 825 0616 50E0      		ldi r21,hhi8(3000)
 826 0618 0E94 0000 		call __divmodsi4
 827 061c E20E      		add r14,r18
 828 061e F31E      		adc r15,r19
 829 0620 041F      		adc r16,r20
 830 0622 151F      		adc r17,r21
 831 0624 8091 0000 		lds r24,ealt_drehzahl_rechts
 832 0628 9091 0000 		lds r25,(ealt_drehzahl_rechts)+1
 833 062c A091 0000 		lds r26,(ealt_drehzahl_rechts)+2
 834 0630 B091 0000 		lds r27,(ealt_drehzahl_rechts)+3
 835 0634 A601      		movw r20,r12
 836 0636 9501      		movw r18,r10
 837 0638 281B      		sub r18,r24
 838 063a 390B      		sbc r19,r25
 839 063c 4A0B      		sbc r20,r26
 840 063e 5B0B      		sbc r21,r27
 841 0640 60E0      		ldi r22,lo8(0)
 842 0642 70E0      		ldi r23,hi8(0)
 843 0644 80E0      		ldi r24,hlo8(0)
 844 0646 90E0      		ldi r25,hhi8(0)
 845 0648 0E94 0000 		call __mulsi3
 846 064c DC01      		movw r26,r24
 847 064e CB01      		movw r24,r22
 848 0650 E80E      		add r14,r24
 849 0652 F91E      		adc r15,r25
 850 0654 0A1F      		adc r16,r26
 851 0656 1B1F      		adc r17,r27
 852               	.LM99:
 853 0658 17FD      		sbrc r17,7
 854 065a 29C0      		rjmp .L55
 855               	.L47:
 856               	.LM100:
 857 065c 80E0      		ldi r24,lo8(512)
 858 065e E816      		cp r14,r24
 859 0660 82E0      		ldi r24,hi8(512)
 860 0662 F806      		cpc r15,r24
 861 0664 80E0      		ldi r24,hlo8(512)
 862 0666 0807      		cpc r16,r24
 863 0668 80E0      		ldi r24,hhi8(512)
 864 066a 1807      		cpc r17,r24
 865 066c 34F0      		brlt .L48
 866 066e 4FEF      		ldi r20,lo8(511)
 867 0670 E42E      		mov r14,r20
 868 0672 41E0      		ldi r20,hi8(511)
 869 0674 F42E      		mov r15,r20
 870 0676 012D      		mov r16,__zero_reg__
 871 0678 112D      		mov r17,__zero_reg__
 872               	.L48:
 873               	.LM101:
 874 067a A092 0000 		sts ealt_drehzahl_rechts,r10
 875 067e B092 0000 		sts (ealt_drehzahl_rechts)+1,r11
 876 0682 C092 0000 		sts (ealt_drehzahl_rechts)+2,r12
 877 0686 D092 0000 		sts (ealt_drehzahl_rechts)+3,r13
 878               	.LBB12:
 879               	.LM102:
 880 068a C701      		movw r24,r14
 881               	.LBB13:
 882               	.LM103:
 883 068c F7FC      		sbrc r15,7
 884 068e 09C0      		rjmp .L56
 885               	.LM104:
 886 0690 AC98      		cbi 53-0x20,4
 887               	.LM105:
 888 0692 AD9A      		sbi 53-0x20,5
 889               	.L50:
 890               	.LM106:
 891 0694 22E0      		ldi r18,hi8(512)
 892 0696 8030      		cpi r24,lo8(512)
 893 0698 9207      		cpc r25,r18
 894 069a CCF0      		brlt .L51
 895 069c 8FEF      		ldi r24,lo8(511)
 896 069e 91E0      		ldi r25,hi8(511)
 897 06a0 16C0      		rjmp .L51
 898               	.L56:
 899               	.LM107:
 900 06a2 9095      		com r25
 901 06a4 8195      		neg r24
 902 06a6 9F4F      		sbci r25,lo8(-1)
 903               	.LM108:
 904 06a8 AD98      		cbi 53-0x20,5
 905               	.LM109:
 906 06aa AC9A      		sbi 53-0x20,4
 907 06ac F3CF      		rjmp .L50
 908               	.L55:
 909               	.LBE13:
 910               	.LBE12:
 911               	.LM110:
 912 06ae EE24      		clr r14
 913 06b0 FF24      		clr r15
 914 06b2 8701      		movw r16,r14
 915 06b4 D3CF      		rjmp .L47
 916               	.L54:
 917               	.LM111:
 918 06b6 1092 0000 		sts esum_drehzahl_rechts,__zero_reg__
 919 06ba 1092 0000 		sts (esum_drehzahl_rechts)+1,__zero_reg__
 920 06be 1092 0000 		sts (esum_drehzahl_rechts)+2,__zero_reg__
 921 06c2 1092 0000 		sts (esum_drehzahl_rechts)+3,__zero_reg__
 922 06c6 6FCF      		rjmp .L45
 923               	.L53:
 924               	.LBB14:
 925               	.LBB15:
 926               	.LM112:
 927 06c8 295F      		subi r18,lo8(-(7))
 928 06ca 3F4F      		sbci r19,hi8(-(7))
 929 06cc FDCE      		rjmp .L38
 930               	.L51:
 931               	.LBE15:
 932               	.LBE14:
 933               	.LBB16:
 934               	.LBB17:
 935               	.LM113:
 936 06ce 99BD      		out (72)+1-0x20,r25
 937 06d0 88BD      		out 72-0x20,r24
 938               	.LBE17:
 939               	.LBE16:
 940               	/* epilogue: frame size=0 */
 941 06d2 CF91      		pop r28
 942 06d4 1F91      		pop r17
 943 06d6 0F91      		pop r16
 944 06d8 FF90      		pop r15
 945 06da EF90      		pop r14
 946 06dc DF90      		pop r13
 947 06de CF90      		pop r12
 948 06e0 BF90      		pop r11
 949 06e2 AF90      		pop r10
 950 06e4 9F90      		pop r9
 951 06e6 8F90      		pop r8
 952 06e8 0895      		ret
 953               	/* epilogue end (size=12) */
 954               	/* function drehzahlregelung_rechts size 373 (350) */
 955               	.LFE14:
 957               	.global	__vector_1
 959               	__vector_1:
 960               	.LFB15:
 961               	.LM114:
 962               	/* prologue: frame size=0 */
 963 06ea 1F92      		push __zero_reg__
 964 06ec 0F92      		push __tmp_reg__
 965 06ee 0FB6      		in __tmp_reg__,__SREG__
 966 06f0 0F92      		push __tmp_reg__
 967 06f2 1124      		clr __zero_reg__
 968 06f4 2F93      		push r18
 969 06f6 3F93      		push r19
 970 06f8 4F93      		push r20
 971 06fa 5F93      		push r21
 972 06fc 6F93      		push r22
 973 06fe 7F93      		push r23
 974 0700 8F93      		push r24
 975 0702 9F93      		push r25
 976 0704 AF93      		push r26
 977 0706 BF93      		push r27
 978 0708 EF93      		push r30
 979 070a FF93      		push r31
 980               	/* prologue end (size=17) */
 981               	.LM115:
 982 070c 8091 0000 		lds r24,timer0_counter_D1
 983 0710 9927      		clr r25
 984 0712 582F      		mov r21,r24
 985 0714 4427      		clr r20
 986 0716 22B7      		in r18,82-0x20
 987 0718 420F      		add r20,r18
 988 071a 511D      		adc r21,__zero_reg__
 989 071c 5093 0000 		sts (counter_neu)+1,r21
 990 0720 4093 0000 		sts counter_neu,r20
 991               	.LM116:
 992 0724 8091 0000 		lds r24,d1_error
 993 0728 8823      		tst r24
 994 072a 31F5      		brne .L58
 995               	.LM117:
 996 072c A091 0000 		lds r26,counter_neu
 997 0730 B091 0000 		lds r27,(counter_neu)+1
 998 0734 6091 0000 		lds r22,counter_alt
 999 0738 7091 0000 		lds r23,(counter_alt)+1
 1000 073c 6A17      		cp r22,r26
 1001 073e 7B07      		cpc r23,r27
 1002 0740 80F0      		brlo .L62
 1003               	.LM118:
 1004 0742 8091 0000 		lds r24,counter_neu
 1005 0746 9091 0000 		lds r25,(counter_neu)+1
 1006 074a 4091 0000 		lds r20,counter_alt
 1007 074e 5091 0000 		lds r21,(counter_alt)+1
 1008 0752 841B      		sub r24,r20
 1009 0754 950B      		sbc r25,r21
 1010 0756 0197      		sbiw r24,1
 1011               	.L61:
 1012 0758 9093 0000 		sts (time_delta)+1,r25
 1013 075c 8093 0000 		sts time_delta,r24
 1014 0760 0BC0      		rjmp .L58
 1015               	.L62:
 1016               	.LM119:
 1017 0762 8091 0000 		lds r24,counter_neu
 1018 0766 9091 0000 		lds r25,(counter_neu)+1
 1019 076a E091 0000 		lds r30,counter_alt
 1020 076e F091 0000 		lds r31,(counter_alt)+1
 1021 0772 8E1B      		sub r24,r30
 1022 0774 9F0B      		sbc r25,r31
 1023 0776 F0CF      		rjmp .L61
 1024               	.L58:
 1025               	.LM120:
 1026 0778 8091 0000 		lds r24,counter_neu
 1027 077c 9091 0000 		lds r25,(counter_neu)+1
 1028 0780 9093 0000 		sts (counter_alt)+1,r25
 1029 0784 8093 0000 		sts counter_alt,r24
 1030               	.LM121:
 1031 0788 1092 0000 		sts is_not_moving_rechts,__zero_reg__
 1032               	.LM122:
 1033 078c 1092 0000 		sts d1_error,__zero_reg__
 1034               	/* epilogue: frame size=0 */
 1035 0790 FF91      		pop r31
 1036 0792 EF91      		pop r30
 1037 0794 BF91      		pop r27
 1038 0796 AF91      		pop r26
 1039 0798 9F91      		pop r25
 1040 079a 8F91      		pop r24
 1041 079c 7F91      		pop r23
 1042 079e 6F91      		pop r22
 1043 07a0 5F91      		pop r21
 1044 07a2 4F91      		pop r20
 1045 07a4 3F91      		pop r19
 1046 07a6 2F91      		pop r18
 1047 07a8 0F90      		pop __tmp_reg__
 1048 07aa 0FBE      		out __SREG__,__tmp_reg__
 1049 07ac 0F90      		pop __tmp_reg__
 1050 07ae 1F90      		pop __zero_reg__
 1051 07b0 1895      		reti
 1052               	/* epilogue end (size=17) */
 1053               	/* function __vector_1 size 100 (66) */
 1054               	.LFE15:
 1056               		.comm sollstrom_rechts,2,1
 1057               		.comm timer0_counter,1,1
 1058               		.comm timer0_counter_D1,1,1
 1059               		.comm d1_error,1,1
 1060               		.comm motor_rechts_sollstrom,2,1
 1061               		.comm drehzahl_rechts,2,1
 1062               		.comm counter_alt,2,1
 1063               		.comm counter_neu,2,1
 1064               		.comm time_delta,2,1
 1065               		.comm is_not_moving_rechts,1,1
 1066               		.comm esum_strom_rechts,4,1
 1067               		.comm esum_drehzahl_rechts,4,1
 1068               		.comm ealt_drehzahl_rechts,4,1
 1069               		.comm m1,2,1
 1070               		.comm m2,2,1
 1071               		.comm m3,2,1
 1072               		.comm m4,2,1
 1073               		.comm m5,2,1
 1074               		.comm m6,2,1
 1075               		.comm m7,2,1
 1076               		.comm m8,2,1
 1077               		.comm m9,2,1
 1078               		.comm m0,2,1
 1079               	.Letext0:
DEFINED SYMBOLS
                            *ABS*:00000000 motor.c
C:\DOKUME~1\Olaf\LOKALE~1\Temp/cci4aaaa.s:3      *ABS*:0000003f __SREG__
C:\DOKUME~1\Olaf\LOKALE~1\Temp/cci4aaaa.s:4      *ABS*:0000003e __SP_H__
C:\DOKUME~1\Olaf\LOKALE~1\Temp/cci4aaaa.s:5      *ABS*:0000003d __SP_L__
C:\DOKUME~1\Olaf\LOKALE~1\Temp/cci4aaaa.s:6      *ABS*:00000000 __tmp_reg__
C:\DOKUME~1\Olaf\LOKALE~1\Temp/cci4aaaa.s:7      *ABS*:00000001 __zero_reg__
C:\DOKUME~1\Olaf\LOKALE~1\Temp/cci4aaaa.s:20     .text:00000000 motor_init
                            *COM*:00000002 m0
                            *COM*:00000002 m9
                            *COM*:00000002 m8
                            *COM*:00000002 m7
                            *COM*:00000002 m6
                            *COM*:00000002 m5
                            *COM*:00000002 m4
                            *COM*:00000002 m3
                            *COM*:00000002 m2
                            *COM*:00000002 m1
                            *COM*:00000002 time_delta
                            *COM*:00000002 counter_alt
                            *COM*:00000002 counter_neu
                            *COM*:00000002 sollstrom_rechts
                            *COM*:00000004 esum_strom_rechts
                            *COM*:00000004 esum_drehzahl_rechts
                            *COM*:00000004 ealt_drehzahl_rechts
C:\DOKUME~1\Olaf\LOKALE~1\Temp/cci4aaaa.s:135    .text:000000ea motor_l
C:\DOKUME~1\Olaf\LOKALE~1\Temp/cci4aaaa.s:178    .text:00000112 motor_r
C:\DOKUME~1\Olaf\LOKALE~1\Temp/cci4aaaa.s:221    .text:0000013a get_Motorstrom
C:\DOKUME~1\Olaf\LOKALE~1\Temp/cci4aaaa.s:251    .text:0000015e get_Motordrehzahl
                            *COM*:00000001 is_not_moving_rechts
                            *COM*:00000002 drehzahl_rechts
C:\DOKUME~1\Olaf\LOKALE~1\Temp/cci4aaaa.s:389    .text:0000028c stromreglung_rechts
C:\DOKUME~1\Olaf\LOKALE~1\Temp/cci4aaaa.s:604    .text:00000406 drehzahlregelung_rechts
C:\DOKUME~1\Olaf\LOKALE~1\Temp/cci4aaaa.s:959    .text:000006ea __vector_1
                            *COM*:00000001 timer0_counter_D1
                            *COM*:00000001 d1_error
                            *COM*:00000001 timer0_counter
                            *COM*:00000002 motor_rechts_sollstrom

UNDEFINED SYMBOLS
__do_copy_data
__do_clear_bss
get_adc
__udivmodhi4
__udivmodsi4
__mulsi3
__divmodsi4
