
main.elf:     file format elf32-avr

Sections:
Idx Name          Size      VMA       LMA       File off  Algn
  0 .data         00000026  00800100  000008d2  00000946  2**0
                  CONTENTS, ALLOC, LOAD, DATA
  1 .text         000008d2  00000000  00000000  00000074  2**1
                  CONTENTS, ALLOC, LOAD, READONLY, CODE
  2 .stab         00000378  00000000  00000000  0000096c  2**2
                  CONTENTS, READONLY, DEBUGGING
  3 .stabstr      00000071  00000000  00000000  00000ce4  2**0
                  CONTENTS, READONLY, DEBUGGING
  4 .debug_aranges 00000060  00000000  00000000  00000d55  2**0
                  CONTENTS, READONLY, DEBUGGING
  5 .debug_pubnames 000000d7  00000000  00000000  00000db5  2**0
                  CONTENTS, READONLY, DEBUGGING
  6 .debug_info   0000074b  00000000  00000000  00000e8c  2**0
                  CONTENTS, READONLY, DEBUGGING
  7 .debug_abbrev 00000298  00000000  00000000  000015d7  2**0
                  CONTENTS, READONLY, DEBUGGING
  8 .debug_line   000006ce  00000000  00000000  0000186f  2**0
                  CONTENTS, READONLY, DEBUGGING
  9 .debug_frame  000000e0  00000000  00000000  00001f40  2**2
                  CONTENTS, READONLY, DEBUGGING
 10 .debug_str    000001c7  00000000  00000000  00002020  2**0
                  CONTENTS, READONLY, DEBUGGING
 11 .debug_loc    00000193  00000000  00000000  000021e7  2**0
                  CONTENTS, READONLY, DEBUGGING
 12 .debug_ranges 000001b0  00000000  00000000  0000237a  2**0
                  CONTENTS, READONLY, DEBUGGING
Disassembly of section .text:

00000000 <__vectors>:
   0:	0c 94 38 00 	jmp	0x70	; 0x70 <__ctors_end>
   4:	0c 94 55 00 	jmp	0xaa	; 0xaa <__bad_interrupt>
   8:	0c 94 55 00 	jmp	0xaa	; 0xaa <__bad_interrupt>
   c:	0c 94 55 00 	jmp	0xaa	; 0xaa <__bad_interrupt>
  10:	0c 94 55 00 	jmp	0xaa	; 0xaa <__bad_interrupt>
  14:	0c 94 55 00 	jmp	0xaa	; 0xaa <__bad_interrupt>
  18:	0c 94 55 00 	jmp	0xaa	; 0xaa <__bad_interrupt>
  1c:	0c 94 55 00 	jmp	0xaa	; 0xaa <__bad_interrupt>
  20:	0c 94 55 00 	jmp	0xaa	; 0xaa <__bad_interrupt>
  24:	0c 94 55 00 	jmp	0xaa	; 0xaa <__bad_interrupt>
  28:	0c 94 55 00 	jmp	0xaa	; 0xaa <__bad_interrupt>
  2c:	0c 94 55 00 	jmp	0xaa	; 0xaa <__bad_interrupt>
  30:	0c 94 55 00 	jmp	0xaa	; 0xaa <__bad_interrupt>
  34:	0c 94 55 00 	jmp	0xaa	; 0xaa <__bad_interrupt>
  38:	0c 94 55 00 	jmp	0xaa	; 0xaa <__bad_interrupt>
  3c:	0c 94 55 00 	jmp	0xaa	; 0xaa <__bad_interrupt>
  40:	0c 94 55 00 	jmp	0xaa	; 0xaa <__bad_interrupt>
  44:	0c 94 55 00 	jmp	0xaa	; 0xaa <__bad_interrupt>
  48:	0c 94 55 00 	jmp	0xaa	; 0xaa <__bad_interrupt>
  4c:	0c 94 55 00 	jmp	0xaa	; 0xaa <__bad_interrupt>
  50:	0c 94 55 00 	jmp	0xaa	; 0xaa <__bad_interrupt>
  54:	0c 94 55 00 	jmp	0xaa	; 0xaa <__bad_interrupt>
  58:	0c 94 55 00 	jmp	0xaa	; 0xaa <__bad_interrupt>
  5c:	0c 94 55 00 	jmp	0xaa	; 0xaa <__bad_interrupt>
  60:	0c 94 55 00 	jmp	0xaa	; 0xaa <__bad_interrupt>
  64:	0c 94 55 00 	jmp	0xaa	; 0xaa <__bad_interrupt>
  68:	0c 94 55 00 	jmp	0xaa	; 0xaa <__bad_interrupt>
  6c:	0c 94 55 00 	jmp	0xaa	; 0xaa <__bad_interrupt>

00000070 <__ctors_end>:
  70:	11 24       	eor	r1, r1
  72:	1f be       	out	0x3f, r1	; 63
  74:	cf ef       	ldi	r28, 0xFF	; 255
  76:	d0 e1       	ldi	r29, 0x10	; 16
  78:	de bf       	out	0x3e, r29	; 62
  7a:	cd bf       	out	0x3d, r28	; 61

0000007c <__do_copy_data>:
  7c:	11 e0       	ldi	r17, 0x01	; 1
  7e:	a0 e0       	ldi	r26, 0x00	; 0
  80:	b1 e0       	ldi	r27, 0x01	; 1
  82:	e2 ed       	ldi	r30, 0xD2	; 210
  84:	f8 e0       	ldi	r31, 0x08	; 8
  86:	02 c0       	rjmp	.+4      	; 0x8c <.do_copy_data_start>

00000088 <.do_copy_data_loop>:
  88:	05 90       	lpm	r0, Z+
  8a:	0d 92       	st	X+, r0

0000008c <.do_copy_data_start>:
  8c:	a6 32       	cpi	r26, 0x26	; 38
  8e:	b1 07       	cpc	r27, r17
  90:	d9 f7       	brne	.-10     	; 0x88 <.do_copy_data_loop>

00000092 <__do_clear_bss>:
  92:	11 e0       	ldi	r17, 0x01	; 1
  94:	a6 e2       	ldi	r26, 0x26	; 38
  96:	b1 e0       	ldi	r27, 0x01	; 1
  98:	01 c0       	rjmp	.+2      	; 0x9c <.do_clear_bss_start>

0000009a <.do_clear_bss_loop>:
  9a:	1d 92       	st	X+, r1

0000009c <.do_clear_bss_start>:
  9c:	a6 32       	cpi	r26, 0x26	; 38
  9e:	b1 07       	cpc	r27, r17
  a0:	e1 f7       	brne	.-8      	; 0x9a <.do_clear_bss_loop>
  a2:	0e 94 86 00 	call	0x10c	; 0x10c <main>
  a6:	0c 94 68 04 	jmp	0x8d0	; 0x8d0 <_exit>

000000aa <__bad_interrupt>:
  aa:	0c 94 00 00 	jmp	0	; 0x0 <__vectors>

000000ae <rf12m_send>:
	return ((uint16_t) (retH<<8)) + retL;
}

void rf12m_send(uint8_t data)
{
  ae:	08 95       	ret

000000b0 <rfm12_wrt_cmd>:
  b0:	ef 92       	push	r14
  b2:	ff 92       	push	r15
  b4:	0f 93       	push	r16
  b6:	1f 93       	push	r17
  b8:	8c 01       	movw	r16, r24
  ba:	2c 98       	cbi	0x05, 4	; 5
  bc:	89 2f       	mov	r24, r25
  be:	99 27       	eor	r25, r25
  c0:	0e 94 aa 03 	call	0x754	; 0x754 <spi_putc>
  c4:	e8 2e       	mov	r14, r24
  c6:	80 2f       	mov	r24, r16
  c8:	0e 94 aa 03 	call	0x754	; 0x754 <spi_putc>
  cc:	2c 9a       	sbi	0x05, 4	; 5
  ce:	ff 24       	eor	r15, r15
  d0:	fe 2c       	mov	r15, r14
  d2:	ee 24       	eor	r14, r14
  d4:	e8 0e       	add	r14, r24
  d6:	f1 1c       	adc	r15, r1
  d8:	c7 01       	movw	r24, r14
  da:	1f 91       	pop	r17
  dc:	0f 91       	pop	r16
  de:	ff 90       	pop	r15
  e0:	ef 90       	pop	r14
  e2:	08 95       	ret

000000e4 <rfm12_readStatus>:
  e4:	0f 93       	push	r16
  e6:	1f 93       	push	r17
  e8:	2c 98       	cbi	0x05, 4	; 5
  ea:	80 e0       	ldi	r24, 0x00	; 0
  ec:	0e 94 aa 03 	call	0x754	; 0x754 <spi_putc>
  f0:	08 2f       	mov	r16, r24
  f2:	80 e0       	ldi	r24, 0x00	; 0
  f4:	0e 94 aa 03 	call	0x754	; 0x754 <spi_putc>
  f8:	2c 9a       	sbi	0x05, 4	; 5
  fa:	11 27       	eor	r17, r17
  fc:	10 2f       	mov	r17, r16
  fe:	00 27       	eor	r16, r16
 100:	08 0f       	add	r16, r24
 102:	11 1d       	adc	r17, r1
 104:	c8 01       	movw	r24, r16
 106:	1f 91       	pop	r17
 108:	0f 91       	pop	r16
 10a:	08 95       	ret

0000010c <main>:
 10c:	0f 93       	push	r16
 10e:	1f 93       	push	r17
 110:	0e 94 c8 03 	call	0x790	; 0x790 <uart_init>
 114:	2c 9a       	sbi	0x05, 4	; 5
 116:	0e 94 9d 03 	call	0x73a	; 0x73a <spi_init>
 11a:	2c 98       	cbi	0x05, 4	; 5
 11c:	80 e0       	ldi	r24, 0x00	; 0
 11e:	0e 94 aa 03 	call	0x754	; 0x754 <spi_putc>
 122:	08 2f       	mov	r16, r24
 124:	80 e0       	ldi	r24, 0x00	; 0
 126:	0e 94 aa 03 	call	0x754	; 0x754 <spi_putc>
 12a:	2c 9a       	sbi	0x05, 4	; 5
 12c:	11 27       	eor	r17, r17
 12e:	10 2f       	mov	r17, r16
 130:	00 27       	eor	r16, r16
 132:	08 0f       	add	r16, r24
 134:	11 1d       	adc	r17, r1
 136:	c8 01       	movw	r24, r16
 138:	88 27       	eor	r24, r24
 13a:	99 0f       	add	r25, r25
 13c:	88 1f       	adc	r24, r24
 13e:	99 27       	eor	r25, r25
 140:	0e 94 e7 03 	call	0x7ce	; 0x7ce <uart_puti>
 144:	c8 01       	movw	r24, r16
 146:	84 e0       	ldi	r24, 0x04	; 4
 148:	98 9f       	mul	r25, r24
 14a:	81 2d       	mov	r24, r1
 14c:	99 27       	eor	r25, r25
 14e:	11 24       	eor	r1, r1
 150:	81 70       	andi	r24, 0x01	; 1
 152:	90 70       	andi	r25, 0x00	; 0
 154:	0e 94 e7 03 	call	0x7ce	; 0x7ce <uart_puti>
 158:	c8 01       	movw	r24, r16
 15a:	89 2f       	mov	r24, r25
 15c:	99 27       	eor	r25, r25
 15e:	82 95       	swap	r24
 160:	86 95       	lsr	r24
 162:	87 70       	andi	r24, 0x07	; 7
 164:	81 70       	andi	r24, 0x01	; 1
 166:	90 70       	andi	r25, 0x00	; 0
 168:	0e 94 e7 03 	call	0x7ce	; 0x7ce <uart_puti>
 16c:	c8 01       	movw	r24, r16
 16e:	89 2f       	mov	r24, r25
 170:	99 27       	eor	r25, r25
 172:	82 95       	swap	r24
 174:	8f 70       	andi	r24, 0x0F	; 15
 176:	81 70       	andi	r24, 0x01	; 1
 178:	90 70       	andi	r25, 0x00	; 0
 17a:	0e 94 e7 03 	call	0x7ce	; 0x7ce <uart_puti>
 17e:	c8 01       	movw	r24, r16
 180:	89 2f       	mov	r24, r25
 182:	99 27       	eor	r25, r25
 184:	86 95       	lsr	r24
 186:	86 95       	lsr	r24
 188:	86 95       	lsr	r24
 18a:	81 70       	andi	r24, 0x01	; 1
 18c:	90 70       	andi	r25, 0x00	; 0
 18e:	0e 94 e7 03 	call	0x7ce	; 0x7ce <uart_puti>
 192:	c8 01       	movw	r24, r16
 194:	89 2f       	mov	r24, r25
 196:	99 27       	eor	r25, r25
 198:	86 95       	lsr	r24
 19a:	86 95       	lsr	r24
 19c:	81 70       	andi	r24, 0x01	; 1
 19e:	90 70       	andi	r25, 0x00	; 0
 1a0:	0e 94 e7 03 	call	0x7ce	; 0x7ce <uart_puti>
 1a4:	c8 01       	movw	r24, r16
 1a6:	89 2f       	mov	r24, r25
 1a8:	99 27       	eor	r25, r25
 1aa:	86 95       	lsr	r24
 1ac:	81 70       	andi	r24, 0x01	; 1
 1ae:	90 70       	andi	r25, 0x00	; 0
 1b0:	0e 94 e7 03 	call	0x7ce	; 0x7ce <uart_puti>
 1b4:	81 2f       	mov	r24, r17
 1b6:	99 27       	eor	r25, r25
 1b8:	81 70       	andi	r24, 0x01	; 1
 1ba:	90 70       	andi	r25, 0x00	; 0
 1bc:	0e 94 e7 03 	call	0x7ce	; 0x7ce <uart_puti>
 1c0:	c8 01       	movw	r24, r16
 1c2:	88 0f       	add	r24, r24
 1c4:	89 2f       	mov	r24, r25
 1c6:	88 1f       	adc	r24, r24
 1c8:	99 0b       	sbc	r25, r25
 1ca:	91 95       	neg	r25
 1cc:	81 70       	andi	r24, 0x01	; 1
 1ce:	90 70       	andi	r25, 0x00	; 0
 1d0:	0e 94 e7 03 	call	0x7ce	; 0x7ce <uart_puti>
 1d4:	c8 01       	movw	r24, r16
 1d6:	00 24       	eor	r0, r0
 1d8:	88 0f       	add	r24, r24
 1da:	99 1f       	adc	r25, r25
 1dc:	00 1c       	adc	r0, r0
 1de:	88 0f       	add	r24, r24
 1e0:	99 1f       	adc	r25, r25
 1e2:	00 1c       	adc	r0, r0
 1e4:	89 2f       	mov	r24, r25
 1e6:	90 2d       	mov	r25, r0
 1e8:	81 70       	andi	r24, 0x01	; 1
 1ea:	90 70       	andi	r25, 0x00	; 0
 1ec:	0e 94 e7 03 	call	0x7ce	; 0x7ce <uart_puti>
 1f0:	c8 01       	movw	r24, r16
 1f2:	96 95       	lsr	r25
 1f4:	87 95       	ror	r24
 1f6:	92 95       	swap	r25
 1f8:	82 95       	swap	r24
 1fa:	8f 70       	andi	r24, 0x0F	; 15
 1fc:	89 27       	eor	r24, r25
 1fe:	9f 70       	andi	r25, 0x0F	; 15
 200:	89 27       	eor	r24, r25
 202:	81 70       	andi	r24, 0x01	; 1
 204:	90 70       	andi	r25, 0x00	; 0
 206:	0e 94 e7 03 	call	0x7ce	; 0x7ce <uart_puti>
 20a:	c8 01       	movw	r24, r16
 20c:	92 95       	swap	r25
 20e:	82 95       	swap	r24
 210:	8f 70       	andi	r24, 0x0F	; 15
 212:	89 27       	eor	r24, r25
 214:	9f 70       	andi	r25, 0x0F	; 15
 216:	89 27       	eor	r24, r25
 218:	81 70       	andi	r24, 0x01	; 1
 21a:	90 70       	andi	r25, 0x00	; 0
 21c:	0e 94 e7 03 	call	0x7ce	; 0x7ce <uart_puti>
 220:	c8 01       	movw	r24, r16
 222:	96 95       	lsr	r25
 224:	87 95       	ror	r24
 226:	96 95       	lsr	r25
 228:	87 95       	ror	r24
 22a:	96 95       	lsr	r25
 22c:	87 95       	ror	r24
 22e:	81 70       	andi	r24, 0x01	; 1
 230:	90 70       	andi	r25, 0x00	; 0
 232:	0e 94 e7 03 	call	0x7ce	; 0x7ce <uart_puti>
 236:	c8 01       	movw	r24, r16
 238:	96 95       	lsr	r25
 23a:	87 95       	ror	r24
 23c:	96 95       	lsr	r25
 23e:	87 95       	ror	r24
 240:	81 70       	andi	r24, 0x01	; 1
 242:	90 70       	andi	r25, 0x00	; 0
 244:	0e 94 e7 03 	call	0x7ce	; 0x7ce <uart_puti>
 248:	c8 01       	movw	r24, r16
 24a:	96 95       	lsr	r25
 24c:	87 95       	ror	r24
 24e:	81 70       	andi	r24, 0x01	; 1
 250:	90 70       	andi	r25, 0x00	; 0
 252:	0e 94 e7 03 	call	0x7ce	; 0x7ce <uart_puti>
 256:	c8 01       	movw	r24, r16
 258:	81 70       	andi	r24, 0x01	; 1
 25a:	90 70       	andi	r25, 0x00	; 0
 25c:	0e 94 e7 03 	call	0x7ce	; 0x7ce <uart_puti>
 260:	80 e0       	ldi	r24, 0x00	; 0
 262:	91 e0       	ldi	r25, 0x01	; 1
 264:	0e 94 b9 03 	call	0x772	; 0x772 <uart_puts>
 268:	2c 98       	cbi	0x05, 4	; 5
 26a:	80 e8       	ldi	r24, 0x80	; 128
 26c:	0e 94 aa 03 	call	0x754	; 0x754 <spi_putc>
 270:	87 ed       	ldi	r24, 0xD7	; 215
 272:	0e 94 aa 03 	call	0x754	; 0x754 <spi_putc>
 276:	2c 9a       	sbi	0x05, 4	; 5
 278:	2c 98       	cbi	0x05, 4	; 5
 27a:	82 e8       	ldi	r24, 0x82	; 130
 27c:	0e 94 aa 03 	call	0x754	; 0x754 <spi_putc>
 280:	89 e3       	ldi	r24, 0x39	; 57
 282:	0e 94 aa 03 	call	0x754	; 0x754 <spi_putc>
 286:	2c 9a       	sbi	0x05, 4	; 5
 288:	2c 98       	cbi	0x05, 4	; 5
 28a:	81 ea       	ldi	r24, 0xA1	; 161
 28c:	0e 94 aa 03 	call	0x754	; 0x754 <spi_putc>
 290:	80 e4       	ldi	r24, 0x40	; 64
 292:	0e 94 aa 03 	call	0x754	; 0x754 <spi_putc>
 296:	2c 9a       	sbi	0x05, 4	; 5
 298:	2c 98       	cbi	0x05, 4	; 5
 29a:	86 ec       	ldi	r24, 0xC6	; 198
 29c:	0e 94 aa 03 	call	0x754	; 0x754 <spi_putc>
 2a0:	87 e4       	ldi	r24, 0x47	; 71
 2a2:	0e 94 aa 03 	call	0x754	; 0x754 <spi_putc>
 2a6:	2c 9a       	sbi	0x05, 4	; 5
 2a8:	2c 98       	cbi	0x05, 4	; 5
 2aa:	84 e9       	ldi	r24, 0x94	; 148
 2ac:	0e 94 aa 03 	call	0x754	; 0x754 <spi_putc>
 2b0:	80 ea       	ldi	r24, 0xA0	; 160
 2b2:	0e 94 aa 03 	call	0x754	; 0x754 <spi_putc>
 2b6:	2c 9a       	sbi	0x05, 4	; 5
 2b8:	2c 98       	cbi	0x05, 4	; 5
 2ba:	82 ec       	ldi	r24, 0xC2	; 194
 2bc:	0e 94 aa 03 	call	0x754	; 0x754 <spi_putc>
 2c0:	8b ea       	ldi	r24, 0xAB	; 171
 2c2:	0e 94 aa 03 	call	0x754	; 0x754 <spi_putc>
 2c6:	2c 9a       	sbi	0x05, 4	; 5
 2c8:	2c 98       	cbi	0x05, 4	; 5
 2ca:	8a ec       	ldi	r24, 0xCA	; 202
 2cc:	0e 94 aa 03 	call	0x754	; 0x754 <spi_putc>
 2d0:	81 e8       	ldi	r24, 0x81	; 129
 2d2:	0e 94 aa 03 	call	0x754	; 0x754 <spi_putc>
 2d6:	2c 9a       	sbi	0x05, 4	; 5
 2d8:	2c 98       	cbi	0x05, 4	; 5
 2da:	84 ec       	ldi	r24, 0xC4	; 196
 2dc:	0e 94 aa 03 	call	0x754	; 0x754 <spi_putc>
 2e0:	87 ef       	ldi	r24, 0xF7	; 247
 2e2:	0e 94 aa 03 	call	0x754	; 0x754 <spi_putc>
 2e6:	2c 9a       	sbi	0x05, 4	; 5
 2e8:	2c 98       	cbi	0x05, 4	; 5
 2ea:	88 e9       	ldi	r24, 0x98	; 152
 2ec:	0e 94 aa 03 	call	0x754	; 0x754 <spi_putc>
 2f0:	80 e9       	ldi	r24, 0x90	; 144
 2f2:	0e 94 aa 03 	call	0x754	; 0x754 <spi_putc>
 2f6:	2c 9a       	sbi	0x05, 4	; 5
 2f8:	2c 98       	cbi	0x05, 4	; 5
 2fa:	80 ec       	ldi	r24, 0xC0	; 192
 2fc:	0e 94 aa 03 	call	0x754	; 0x754 <spi_putc>
 300:	8c ef       	ldi	r24, 0xFC	; 252
 302:	0e 94 aa 03 	call	0x754	; 0x754 <spi_putc>
 306:	2c 9a       	sbi	0x05, 4	; 5
 308:	2c 98       	cbi	0x05, 4	; 5
 30a:	80 e0       	ldi	r24, 0x00	; 0
 30c:	0e 94 aa 03 	call	0x754	; 0x754 <spi_putc>
 310:	08 2f       	mov	r16, r24
 312:	80 e0       	ldi	r24, 0x00	; 0
 314:	0e 94 aa 03 	call	0x754	; 0x754 <spi_putc>
 318:	2c 9a       	sbi	0x05, 4	; 5
 31a:	11 27       	eor	r17, r17
 31c:	10 2f       	mov	r17, r16
 31e:	00 27       	eor	r16, r16
 320:	08 0f       	add	r16, r24
 322:	11 1d       	adc	r17, r1
 324:	c8 01       	movw	r24, r16
 326:	88 27       	eor	r24, r24
 328:	99 0f       	add	r25, r25
 32a:	88 1f       	adc	r24, r24
 32c:	99 27       	eor	r25, r25
 32e:	0e 94 e7 03 	call	0x7ce	; 0x7ce <uart_puti>
 332:	c8 01       	movw	r24, r16
 334:	84 e0       	ldi	r24, 0x04	; 4
 336:	98 9f       	mul	r25, r24
 338:	81 2d       	mov	r24, r1
 33a:	99 27       	eor	r25, r25
 33c:	11 24       	eor	r1, r1
 33e:	81 70       	andi	r24, 0x01	; 1
 340:	90 70       	andi	r25, 0x00	; 0
 342:	0e 94 e7 03 	call	0x7ce	; 0x7ce <uart_puti>
 346:	c8 01       	movw	r24, r16
 348:	89 2f       	mov	r24, r25
 34a:	99 27       	eor	r25, r25
 34c:	82 95       	swap	r24
 34e:	86 95       	lsr	r24
 350:	87 70       	andi	r24, 0x07	; 7
 352:	81 70       	andi	r24, 0x01	; 1
 354:	90 70       	andi	r25, 0x00	; 0
 356:	0e 94 e7 03 	call	0x7ce	; 0x7ce <uart_puti>
 35a:	c8 01       	movw	r24, r16
 35c:	89 2f       	mov	r24, r25
 35e:	99 27       	eor	r25, r25
 360:	82 95       	swap	r24
 362:	8f 70       	andi	r24, 0x0F	; 15
 364:	81 70       	andi	r24, 0x01	; 1
 366:	90 70       	andi	r25, 0x00	; 0
 368:	0e 94 e7 03 	call	0x7ce	; 0x7ce <uart_puti>
 36c:	c8 01       	movw	r24, r16
 36e:	89 2f       	mov	r24, r25
 370:	99 27       	eor	r25, r25
 372:	86 95       	lsr	r24
 374:	86 95       	lsr	r24
 376:	86 95       	lsr	r24
 378:	81 70       	andi	r24, 0x01	; 1
 37a:	90 70       	andi	r25, 0x00	; 0
 37c:	0e 94 e7 03 	call	0x7ce	; 0x7ce <uart_puti>
 380:	c8 01       	movw	r24, r16
 382:	89 2f       	mov	r24, r25
 384:	99 27       	eor	r25, r25
 386:	86 95       	lsr	r24
 388:	86 95       	lsr	r24
 38a:	81 70       	andi	r24, 0x01	; 1
 38c:	90 70       	andi	r25, 0x00	; 0
 38e:	0e 94 e7 03 	call	0x7ce	; 0x7ce <uart_puti>
 392:	c8 01       	movw	r24, r16
 394:	89 2f       	mov	r24, r25
 396:	99 27       	eor	r25, r25
 398:	86 95       	lsr	r24
 39a:	81 70       	andi	r24, 0x01	; 1
 39c:	90 70       	andi	r25, 0x00	; 0
 39e:	0e 94 e7 03 	call	0x7ce	; 0x7ce <uart_puti>
 3a2:	81 2f       	mov	r24, r17
 3a4:	99 27       	eor	r25, r25
 3a6:	81 70       	andi	r24, 0x01	; 1
 3a8:	90 70       	andi	r25, 0x00	; 0
 3aa:	0e 94 e7 03 	call	0x7ce	; 0x7ce <uart_puti>
 3ae:	c8 01       	movw	r24, r16
 3b0:	88 0f       	add	r24, r24
 3b2:	89 2f       	mov	r24, r25
 3b4:	88 1f       	adc	r24, r24
 3b6:	99 0b       	sbc	r25, r25
 3b8:	91 95       	neg	r25
 3ba:	81 70       	andi	r24, 0x01	; 1
 3bc:	90 70       	andi	r25, 0x00	; 0
 3be:	0e 94 e7 03 	call	0x7ce	; 0x7ce <uart_puti>
 3c2:	c8 01       	movw	r24, r16
 3c4:	00 24       	eor	r0, r0
 3c6:	88 0f       	add	r24, r24
 3c8:	99 1f       	adc	r25, r25
 3ca:	00 1c       	adc	r0, r0
 3cc:	88 0f       	add	r24, r24
 3ce:	99 1f       	adc	r25, r25
 3d0:	00 1c       	adc	r0, r0
 3d2:	89 2f       	mov	r24, r25
 3d4:	90 2d       	mov	r25, r0
 3d6:	81 70       	andi	r24, 0x01	; 1
 3d8:	90 70       	andi	r25, 0x00	; 0
 3da:	0e 94 e7 03 	call	0x7ce	; 0x7ce <uart_puti>
 3de:	c8 01       	movw	r24, r16
 3e0:	96 95       	lsr	r25
 3e2:	87 95       	ror	r24
 3e4:	92 95       	swap	r25
 3e6:	82 95       	swap	r24
 3e8:	8f 70       	andi	r24, 0x0F	; 15
 3ea:	89 27       	eor	r24, r25
 3ec:	9f 70       	andi	r25, 0x0F	; 15
 3ee:	89 27       	eor	r24, r25
 3f0:	81 70       	andi	r24, 0x01	; 1
 3f2:	90 70       	andi	r25, 0x00	; 0
 3f4:	0e 94 e7 03 	call	0x7ce	; 0x7ce <uart_puti>
 3f8:	c8 01       	movw	r24, r16
 3fa:	92 95       	swap	r25
 3fc:	82 95       	swap	r24
 3fe:	8f 70       	andi	r24, 0x0F	; 15
 400:	89 27       	eor	r24, r25
 402:	9f 70       	andi	r25, 0x0F	; 15
 404:	89 27       	eor	r24, r25
 406:	81 70       	andi	r24, 0x01	; 1
 408:	90 70       	andi	r25, 0x00	; 0
 40a:	0e 94 e7 03 	call	0x7ce	; 0x7ce <uart_puti>
 40e:	c8 01       	movw	r24, r16
 410:	96 95       	lsr	r25
 412:	87 95       	ror	r24
 414:	96 95       	lsr	r25
 416:	87 95       	ror	r24
 418:	96 95       	lsr	r25
 41a:	87 95       	ror	r24
 41c:	81 70       	andi	r24, 0x01	; 1
 41e:	90 70       	andi	r25, 0x00	; 0
 420:	0e 94 e7 03 	call	0x7ce	; 0x7ce <uart_puti>
 424:	c8 01       	movw	r24, r16
 426:	96 95       	lsr	r25
 428:	87 95       	ror	r24
 42a:	96 95       	lsr	r25
 42c:	87 95       	ror	r24
 42e:	81 70       	andi	r24, 0x01	; 1
 430:	90 70       	andi	r25, 0x00	; 0
 432:	0e 94 e7 03 	call	0x7ce	; 0x7ce <uart_puti>
 436:	c8 01       	movw	r24, r16
 438:	96 95       	lsr	r25
 43a:	87 95       	ror	r24
 43c:	81 70       	andi	r24, 0x01	; 1
 43e:	90 70       	andi	r25, 0x00	; 0
 440:	0e 94 e7 03 	call	0x7ce	; 0x7ce <uart_puti>
 444:	c8 01       	movw	r24, r16
 446:	81 70       	andi	r24, 0x01	; 1
 448:	90 70       	andi	r25, 0x00	; 0
 44a:	0e 94 e7 03 	call	0x7ce	; 0x7ce <uart_puti>
 44e:	80 e0       	ldi	r24, 0x00	; 0
 450:	91 e0       	ldi	r25, 0x01	; 1
 452:	0e 94 b9 03 	call	0x772	; 0x772 <uart_puts>
 456:	2c 98       	cbi	0x05, 4	; 5
 458:	88 eb       	ldi	r24, 0xB8	; 184
 45a:	0e 94 aa 03 	call	0x754	; 0x754 <spi_putc>
 45e:	8a ea       	ldi	r24, 0xAA	; 170
 460:	0e 94 aa 03 	call	0x754	; 0x754 <spi_putc>
 464:	2c 9a       	sbi	0x05, 4	; 5
 466:	2c 98       	cbi	0x05, 4	; 5
 468:	80 e0       	ldi	r24, 0x00	; 0
 46a:	0e 94 aa 03 	call	0x754	; 0x754 <spi_putc>
 46e:	08 2f       	mov	r16, r24
 470:	80 e0       	ldi	r24, 0x00	; 0
 472:	0e 94 aa 03 	call	0x754	; 0x754 <spi_putc>
 476:	2c 9a       	sbi	0x05, 4	; 5
 478:	11 27       	eor	r17, r17
 47a:	10 2f       	mov	r17, r16
 47c:	00 27       	eor	r16, r16
 47e:	08 0f       	add	r16, r24
 480:	11 1d       	adc	r17, r1
 482:	c8 01       	movw	r24, r16
 484:	88 27       	eor	r24, r24
 486:	99 0f       	add	r25, r25
 488:	88 1f       	adc	r24, r24
 48a:	99 27       	eor	r25, r25
 48c:	0e 94 e7 03 	call	0x7ce	; 0x7ce <uart_puti>
 490:	c8 01       	movw	r24, r16
 492:	84 e0       	ldi	r24, 0x04	; 4
 494:	98 9f       	mul	r25, r24
 496:	81 2d       	mov	r24, r1
 498:	99 27       	eor	r25, r25
 49a:	11 24       	eor	r1, r1
 49c:	81 70       	andi	r24, 0x01	; 1
 49e:	90 70       	andi	r25, 0x00	; 0
 4a0:	0e 94 e7 03 	call	0x7ce	; 0x7ce <uart_puti>
 4a4:	c8 01       	movw	r24, r16
 4a6:	89 2f       	mov	r24, r25
 4a8:	99 27       	eor	r25, r25
 4aa:	82 95       	swap	r24
 4ac:	86 95       	lsr	r24
 4ae:	87 70       	andi	r24, 0x07	; 7
 4b0:	81 70       	andi	r24, 0x01	; 1
 4b2:	90 70       	andi	r25, 0x00	; 0
 4b4:	0e 94 e7 03 	call	0x7ce	; 0x7ce <uart_puti>
 4b8:	c8 01       	movw	r24, r16
 4ba:	89 2f       	mov	r24, r25
 4bc:	99 27       	eor	r25, r25
 4be:	82 95       	swap	r24
 4c0:	8f 70       	andi	r24, 0x0F	; 15
 4c2:	81 70       	andi	r24, 0x01	; 1
 4c4:	90 70       	andi	r25, 0x00	; 0
 4c6:	0e 94 e7 03 	call	0x7ce	; 0x7ce <uart_puti>
 4ca:	c8 01       	movw	r24, r16
 4cc:	89 2f       	mov	r24, r25
 4ce:	99 27       	eor	r25, r25
 4d0:	86 95       	lsr	r24
 4d2:	86 95       	lsr	r24
 4d4:	86 95       	lsr	r24
 4d6:	81 70       	andi	r24, 0x01	; 1
 4d8:	90 70       	andi	r25, 0x00	; 0
 4da:	0e 94 e7 03 	call	0x7ce	; 0x7ce <uart_puti>
 4de:	c8 01       	movw	r24, r16
 4e0:	89 2f       	mov	r24, r25
 4e2:	99 27       	eor	r25, r25
 4e4:	86 95       	lsr	r24
 4e6:	86 95       	lsr	r24
 4e8:	81 70       	andi	r24, 0x01	; 1
 4ea:	90 70       	andi	r25, 0x00	; 0
 4ec:	0e 94 e7 03 	call	0x7ce	; 0x7ce <uart_puti>
 4f0:	c8 01       	movw	r24, r16
 4f2:	89 2f       	mov	r24, r25
 4f4:	99 27       	eor	r25, r25
 4f6:	86 95       	lsr	r24
 4f8:	81 70       	andi	r24, 0x01	; 1
 4fa:	90 70       	andi	r25, 0x00	; 0
 4fc:	0e 94 e7 03 	call	0x7ce	; 0x7ce <uart_puti>
 500:	81 2f       	mov	r24, r17
 502:	99 27       	eor	r25, r25
 504:	81 70       	andi	r24, 0x01	; 1
 506:	90 70       	andi	r25, 0x00	; 0
 508:	0e 94 e7 03 	call	0x7ce	; 0x7ce <uart_puti>
 50c:	c8 01       	movw	r24, r16
 50e:	88 0f       	add	r24, r24
 510:	89 2f       	mov	r24, r25
 512:	88 1f       	adc	r24, r24
 514:	99 0b       	sbc	r25, r25
 516:	91 95       	neg	r25
 518:	81 70       	andi	r24, 0x01	; 1
 51a:	90 70       	andi	r25, 0x00	; 0
 51c:	0e 94 e7 03 	call	0x7ce	; 0x7ce <uart_puti>
 520:	c8 01       	movw	r24, r16
 522:	00 24       	eor	r0, r0
 524:	88 0f       	add	r24, r24
 526:	99 1f       	adc	r25, r25
 528:	00 1c       	adc	r0, r0
 52a:	88 0f       	add	r24, r24
 52c:	99 1f       	adc	r25, r25
 52e:	00 1c       	adc	r0, r0
 530:	89 2f       	mov	r24, r25
 532:	90 2d       	mov	r25, r0
 534:	81 70       	andi	r24, 0x01	; 1
 536:	90 70       	andi	r25, 0x00	; 0
 538:	0e 94 e7 03 	call	0x7ce	; 0x7ce <uart_puti>
 53c:	c8 01       	movw	r24, r16
 53e:	96 95       	lsr	r25
 540:	87 95       	ror	r24
 542:	92 95       	swap	r25
 544:	82 95       	swap	r24
 546:	8f 70       	andi	r24, 0x0F	; 15
 548:	89 27       	eor	r24, r25
 54a:	9f 70       	andi	r25, 0x0F	; 15
 54c:	89 27       	eor	r24, r25
 54e:	81 70       	andi	r24, 0x01	; 1
 550:	90 70       	andi	r25, 0x00	; 0
 552:	0e 94 e7 03 	call	0x7ce	; 0x7ce <uart_puti>
 556:	c8 01       	movw	r24, r16
 558:	92 95       	swap	r25
 55a:	82 95       	swap	r24
 55c:	8f 70       	andi	r24, 0x0F	; 15
 55e:	89 27       	eor	r24, r25
 560:	9f 70       	andi	r25, 0x0F	; 15
 562:	89 27       	eor	r24, r25
 564:	81 70       	andi	r24, 0x01	; 1
 566:	90 70       	andi	r25, 0x00	; 0
 568:	0e 94 e7 03 	call	0x7ce	; 0x7ce <uart_puti>
 56c:	c8 01       	movw	r24, r16
 56e:	96 95       	lsr	r25
 570:	87 95       	ror	r24
 572:	96 95       	lsr	r25
 574:	87 95       	ror	r24
 576:	96 95       	lsr	r25
 578:	87 95       	ror	r24
 57a:	81 70       	andi	r24, 0x01	; 1
 57c:	90 70       	andi	r25, 0x00	; 0
 57e:	0e 94 e7 03 	call	0x7ce	; 0x7ce <uart_puti>
 582:	c8 01       	movw	r24, r16
 584:	96 95       	lsr	r25
 586:	87 95       	ror	r24
 588:	96 95       	lsr	r25
 58a:	87 95       	ror	r24
 58c:	81 70       	andi	r24, 0x01	; 1
 58e:	90 70       	andi	r25, 0x00	; 0
 590:	0e 94 e7 03 	call	0x7ce	; 0x7ce <uart_puti>
 594:	c8 01       	movw	r24, r16
 596:	96 95       	lsr	r25
 598:	87 95       	ror	r24
 59a:	81 70       	andi	r24, 0x01	; 1
 59c:	90 70       	andi	r25, 0x00	; 0
 59e:	0e 94 e7 03 	call	0x7ce	; 0x7ce <uart_puti>
 5a2:	c8 01       	movw	r24, r16
 5a4:	81 70       	andi	r24, 0x01	; 1
 5a6:	90 70       	andi	r25, 0x00	; 0
 5a8:	0e 94 e7 03 	call	0x7ce	; 0x7ce <uart_puti>
 5ac:	80 e0       	ldi	r24, 0x00	; 0
 5ae:	91 e0       	ldi	r25, 0x01	; 1
 5b0:	0e 94 b9 03 	call	0x772	; 0x772 <uart_puts>
 5b4:	80 e0       	ldi	r24, 0x00	; 0
 5b6:	90 e0       	ldi	r25, 0x00	; 0
 5b8:	00 00       	nop
 5ba:	01 96       	adiw	r24, 0x01	; 1
 5bc:	89 3c       	cpi	r24, 0xC9	; 201
 5be:	91 05       	cpc	r25, r1
 5c0:	d9 f7       	brne	.-10     	; 0x5b8 <main+0x4ac>
 5c2:	2c 98       	cbi	0x05, 4	; 5
 5c4:	80 e0       	ldi	r24, 0x00	; 0
 5c6:	0e 94 aa 03 	call	0x754	; 0x754 <spi_putc>
 5ca:	08 2f       	mov	r16, r24
 5cc:	80 e0       	ldi	r24, 0x00	; 0
 5ce:	0e 94 aa 03 	call	0x754	; 0x754 <spi_putc>
 5d2:	2c 9a       	sbi	0x05, 4	; 5
 5d4:	11 27       	eor	r17, r17
 5d6:	10 2f       	mov	r17, r16
 5d8:	00 27       	eor	r16, r16
 5da:	08 0f       	add	r16, r24
 5dc:	11 1d       	adc	r17, r1
 5de:	c8 01       	movw	r24, r16
 5e0:	88 27       	eor	r24, r24
 5e2:	99 0f       	add	r25, r25
 5e4:	88 1f       	adc	r24, r24
 5e6:	99 27       	eor	r25, r25
 5e8:	0e 94 e7 03 	call	0x7ce	; 0x7ce <uart_puti>
 5ec:	c8 01       	movw	r24, r16
 5ee:	84 e0       	ldi	r24, 0x04	; 4
 5f0:	98 9f       	mul	r25, r24
 5f2:	81 2d       	mov	r24, r1
 5f4:	99 27       	eor	r25, r25
 5f6:	11 24       	eor	r1, r1
 5f8:	81 70       	andi	r24, 0x01	; 1
 5fa:	90 70       	andi	r25, 0x00	; 0
 5fc:	0e 94 e7 03 	call	0x7ce	; 0x7ce <uart_puti>
 600:	c8 01       	movw	r24, r16
 602:	89 2f       	mov	r24, r25
 604:	99 27       	eor	r25, r25
 606:	82 95       	swap	r24
 608:	86 95       	lsr	r24
 60a:	87 70       	andi	r24, 0x07	; 7
 60c:	81 70       	andi	r24, 0x01	; 1
 60e:	90 70       	andi	r25, 0x00	; 0
 610:	0e 94 e7 03 	call	0x7ce	; 0x7ce <uart_puti>
 614:	c8 01       	movw	r24, r16
 616:	89 2f       	mov	r24, r25
 618:	99 27       	eor	r25, r25
 61a:	82 95       	swap	r24
 61c:	8f 70       	andi	r24, 0x0F	; 15
 61e:	81 70       	andi	r24, 0x01	; 1
 620:	90 70       	andi	r25, 0x00	; 0
 622:	0e 94 e7 03 	call	0x7ce	; 0x7ce <uart_puti>
 626:	c8 01       	movw	r24, r16
 628:	89 2f       	mov	r24, r25
 62a:	99 27       	eor	r25, r25
 62c:	86 95       	lsr	r24
 62e:	86 95       	lsr	r24
 630:	86 95       	lsr	r24
 632:	81 70       	andi	r24, 0x01	; 1
 634:	90 70       	andi	r25, 0x00	; 0
 636:	0e 94 e7 03 	call	0x7ce	; 0x7ce <uart_puti>
 63a:	c8 01       	movw	r24, r16
 63c:	89 2f       	mov	r24, r25
 63e:	99 27       	eor	r25, r25
 640:	86 95       	lsr	r24
 642:	86 95       	lsr	r24
 644:	81 70       	andi	r24, 0x01	; 1
 646:	90 70       	andi	r25, 0x00	; 0
 648:	0e 94 e7 03 	call	0x7ce	; 0x7ce <uart_puti>
 64c:	c8 01       	movw	r24, r16
 64e:	89 2f       	mov	r24, r25
 650:	99 27       	eor	r25, r25
 652:	86 95       	lsr	r24
 654:	81 70       	andi	r24, 0x01	; 1
 656:	90 70       	andi	r25, 0x00	; 0
 658:	0e 94 e7 03 	call	0x7ce	; 0x7ce <uart_puti>
 65c:	81 2f       	mov	r24, r17
 65e:	99 27       	eor	r25, r25
 660:	81 70       	andi	r24, 0x01	; 1
 662:	90 70       	andi	r25, 0x00	; 0
 664:	0e 94 e7 03 	call	0x7ce	; 0x7ce <uart_puti>
 668:	c8 01       	movw	r24, r16
 66a:	88 0f       	add	r24, r24
 66c:	89 2f       	mov	r24, r25
 66e:	88 1f       	adc	r24, r24
 670:	99 0b       	sbc	r25, r25
 672:	91 95       	neg	r25
 674:	81 70       	andi	r24, 0x01	; 1
 676:	90 70       	andi	r25, 0x00	; 0
 678:	0e 94 e7 03 	call	0x7ce	; 0x7ce <uart_puti>
 67c:	c8 01       	movw	r24, r16
 67e:	00 24       	eor	r0, r0
 680:	88 0f       	add	r24, r24
 682:	99 1f       	adc	r25, r25
 684:	00 1c       	adc	r0, r0
 686:	88 0f       	add	r24, r24
 688:	99 1f       	adc	r25, r25
 68a:	00 1c       	adc	r0, r0
 68c:	89 2f       	mov	r24, r25
 68e:	90 2d       	mov	r25, r0
 690:	81 70       	andi	r24, 0x01	; 1
 692:	90 70       	andi	r25, 0x00	; 0
 694:	0e 94 e7 03 	call	0x7ce	; 0x7ce <uart_puti>
 698:	c8 01       	movw	r24, r16
 69a:	96 95       	lsr	r25
 69c:	87 95       	ror	r24
 69e:	92 95       	swap	r25
 6a0:	82 95       	swap	r24
 6a2:	8f 70       	andi	r24, 0x0F	; 15
 6a4:	89 27       	eor	r24, r25
 6a6:	9f 70       	andi	r25, 0x0F	; 15
 6a8:	89 27       	eor	r24, r25
 6aa:	81 70       	andi	r24, 0x01	; 1
 6ac:	90 70       	andi	r25, 0x00	; 0
 6ae:	0e 94 e7 03 	call	0x7ce	; 0x7ce <uart_puti>
 6b2:	c8 01       	movw	r24, r16
 6b4:	92 95       	swap	r25
 6b6:	82 95       	swap	r24
 6b8:	8f 70       	andi	r24, 0x0F	; 15
 6ba:	89 27       	eor	r24, r25
 6bc:	9f 70       	andi	r25, 0x0F	; 15
 6be:	89 27       	eor	r24, r25
 6c0:	81 70       	andi	r24, 0x01	; 1
 6c2:	90 70       	andi	r25, 0x00	; 0
 6c4:	0e 94 e7 03 	call	0x7ce	; 0x7ce <uart_puti>
 6c8:	c8 01       	movw	r24, r16
 6ca:	96 95       	lsr	r25
 6cc:	87 95       	ror	r24
 6ce:	96 95       	lsr	r25
 6d0:	87 95       	ror	r24
 6d2:	96 95       	lsr	r25
 6d4:	87 95       	ror	r24
 6d6:	81 70       	andi	r24, 0x01	; 1
 6d8:	90 70       	andi	r25, 0x00	; 0
 6da:	0e 94 e7 03 	call	0x7ce	; 0x7ce <uart_puti>
 6de:	c8 01       	movw	r24, r16
 6e0:	96 95       	lsr	r25
 6e2:	87 95       	ror	r24
 6e4:	96 95       	lsr	r25
 6e6:	87 95       	ror	r24
 6e8:	81 70       	andi	r24, 0x01	; 1
 6ea:	90 70       	andi	r25, 0x00	; 0
 6ec:	0e 94 e7 03 	call	0x7ce	; 0x7ce <uart_puti>
 6f0:	c8 01       	movw	r24, r16
 6f2:	96 95       	lsr	r25
 6f4:	87 95       	ror	r24
 6f6:	81 70       	andi	r24, 0x01	; 1
 6f8:	90 70       	andi	r25, 0x00	; 0
 6fa:	0e 94 e7 03 	call	0x7ce	; 0x7ce <uart_puti>
 6fe:	c8 01       	movw	r24, r16
 700:	81 70       	andi	r24, 0x01	; 1
 702:	90 70       	andi	r25, 0x00	; 0
 704:	0e 94 e7 03 	call	0x7ce	; 0x7ce <uart_puti>
 708:	80 e0       	ldi	r24, 0x00	; 0
 70a:	91 e0       	ldi	r25, 0x01	; 1
 70c:	0e 94 b9 03 	call	0x772	; 0x772 <uart_puts>
 710:	2c 98       	cbi	0x05, 4	; 5
 712:	88 eb       	ldi	r24, 0xB8	; 184
 714:	0e 94 aa 03 	call	0x754	; 0x754 <spi_putc>
 718:	8a ea       	ldi	r24, 0xAA	; 170
 71a:	0e 94 aa 03 	call	0x754	; 0x754 <spi_putc>
 71e:	2c 9a       	sbi	0x05, 4	; 5
 720:	2c 98       	cbi	0x05, 4	; 5
 722:	88 eb       	ldi	r24, 0xB8	; 184
 724:	0e 94 aa 03 	call	0x754	; 0x754 <spi_putc>
 728:	8a ea       	ldi	r24, 0xAA	; 170
 72a:	0e 94 aa 03 	call	0x754	; 0x754 <spi_putc>
 72e:	2c 9a       	sbi	0x05, 4	; 5
 730:	80 e0       	ldi	r24, 0x00	; 0
 732:	90 e0       	ldi	r25, 0x00	; 0
 734:	1f 91       	pop	r17
 736:	0f 91       	pop	r16
 738:	08 95       	ret

0000073a <spi_init>:



void spi_init()
{
 73a:	84 b1       	in	r24, 0x04	; 4
 73c:	80 6a       	ori	r24, 0xA0	; 160
 73e:	84 b9       	out	0x04, r24	; 4
	// Aktivieren der Pins für das SPI Interface
	DDR_SPI		|= (1<<SPI_SCLK)|(1<<SPI_MOSI);
	PORT_SPI 	&= ~((1<<SPI_SCLK)|(1<<SPI_MOSI)|(1<<SPI_MISO));
 740:	85 b1       	in	r24, 0x05	; 5
 742:	8f 71       	andi	r24, 0x1F	; 31
 744:	85 b9       	out	0x05, r24	; 5
	
	DDR_SPI_CS	|= (1<<SPI_CS);
 746:	24 9a       	sbi	0x04, 4	; 4
	PORT_SPI_CS &= ~(1<<SPI_CS);
 748:	2c 98       	cbi	0x05, 4	; 5
	
	// Aktivieren des SPI Master Interfases, fosc = fclk / 2;
	SPCR = (1<<SPE)|(1<<MSTR);
 74a:	80 e5       	ldi	r24, 0x50	; 80
 74c:	8c bd       	out	0x2c, r24	; 44
	SPSR = (1<<SPI2X);
 74e:	81 e0       	ldi	r24, 0x01	; 1
 750:	8d bd       	out	0x2d, r24	; 45
 752:	08 95       	ret

00000754 <spi_putc>:
	
}

uint8_t spi_putc( uint8_t data)
{
 754:	8e bd       	out	0x2e, r24	; 46
	// Sendet ein Byte
	SPDR = data;
	
	// Wartet bis Byte gesendet wurde
	while( !( SPSR & (1<<SPIF)))
 756:	0d b4       	in	r0, 0x2d	; 45
 758:	07 fe       	sbrs	r0, 7
 75a:	fd cf       	rjmp	.-6      	; 0x756 <spi_putc+0x2>
		;
	
	return SPDR;
 75c:	8e b5       	in	r24, 0x2e	; 46
}
 75e:	99 27       	eor	r25, r25
 760:	08 95       	ret

00000762 <uart_putc>:
*  uart_putc ('o');
*  \endcode
*****************************************************************************/
void uart_putc(char c)
{
 762:	98 2f       	mov	r25, r24
	/* warten bis der Sendepuffer leer ist */
	while ( !( UCSR0A & (1<<UDRE0)) );
 764:	80 91 c0 00 	lds	r24, 0x00C0
 768:	85 ff       	sbrs	r24, 5
 76a:	fc cf       	rjmp	.-8      	; 0x764 <uart_putc+0x2>
	
	/* Zeichen senden */
	UDR0 = c;
 76c:	90 93 c6 00 	sts	0x00C6, r25
 770:	08 95       	ret

00000772 <uart_puts>:
}


/****************************************************************************/
/*!
*  \brief
*  Senden eines null-terminierten Strings
*  
*  \param[in]
*  s Pointer auf null-terminierten String
*
*  \return
*  nichts
*    
*  \par  Beispiel:
*  (Nur zur Demonstration der Parameter/Returnwerte)
*  \code
*  // Beispiel fuer uart_puts
*  uart_puts ("Hello World!\r\n");
*  \endcode
*****************************************************************************/
void uart_puts(char *s)
{
 772:	fc 01       	movw	r30, r24
	while(*s) // so lange senden, bis das ende des Strings erreicht ist
 774:	90 81       	ld	r25, Z
 776:	99 23       	and	r25, r25
 778:	51 f0       	breq	.+20     	; 0x78e <uart_puts+0x1c>
	{
		uart_putc(*s++);
 77a:	31 96       	adiw	r30, 0x01	; 1
 77c:	80 91 c0 00 	lds	r24, 0x00C0
 780:	85 ff       	sbrs	r24, 5
 782:	fc cf       	rjmp	.-8      	; 0x77c <uart_puts+0xa>
 784:	90 93 c6 00 	sts	0x00C6, r25
 788:	90 81       	ld	r25, Z
 78a:	99 23       	and	r25, r25
 78c:	b1 f7       	brne	.-20     	; 0x77a <uart_puts+0x8>
 78e:	08 95       	ret

00000790 <uart_init>:
 790:	80 91 c0 00 	lds	r24, 0x00C0
 794:	82 60       	ori	r24, 0x02	; 2
 796:	80 93 c0 00 	sts	0x00C0, r24
 79a:	10 92 c5 00 	sts	0x00C5, r1
 79e:	8c e0       	ldi	r24, 0x0C	; 12
 7a0:	80 93 c4 00 	sts	0x00C4, r24
 7a4:	86 e0       	ldi	r24, 0x06	; 6
 7a6:	80 93 c2 00 	sts	0x00C2, r24
 7aa:	88 e9       	ldi	r24, 0x98	; 152
 7ac:	80 93 c1 00 	sts	0x00C1, r24
 7b0:	e3 e0       	ldi	r30, 0x03	; 3
 7b2:	f1 e0       	ldi	r31, 0x01	; 1
 7b4:	90 91 03 01 	lds	r25, 0x0103
 7b8:	31 96       	adiw	r30, 0x01	; 1
 7ba:	80 91 c0 00 	lds	r24, 0x00C0
 7be:	85 ff       	sbrs	r24, 5
 7c0:	fc cf       	rjmp	.-8      	; 0x7ba <uart_init+0x2a>
 7c2:	90 93 c6 00 	sts	0x00C6, r25
 7c6:	90 81       	ld	r25, Z
 7c8:	99 23       	and	r25, r25
 7ca:	b1 f7       	brne	.-20     	; 0x7b8 <uart_init+0x28>
 7cc:	08 95       	ret

000007ce <uart_puti>:
	}
}

/****************************************************************************/
/*!
*  \brief
*  Senden eines null-terminierten Strings der im Flash-Speicher steht
*  
*  \param[in]
*  text Pointer auf Flashadresse
*
*    
*  \par  Beispiel:
*  (Nur zur Demonstration der Parameter/Returnwerte)
*  \code
*  // Beispiel fuer uart_puts
*  uart_puts_p(PSTR("Hallo Herr Mustermann!\r\n"));
*  \endcode
*****************************************************************************/
void uart_puts_p(const char *text)
{
    char Zeichen;
 
    while ((Zeichen = pgm_read_byte(text)))
    {   /* so lange, wie mittels pgm_read_byte ein Zeichen vom Flash gelesen
           werden konnte, welches nicht das "String-Endezeichen" darstellt */
 
        /* Das gelesene Zeichen über die normalen Kanäle verschicken */
        uart_putc(Zeichen);
        text++;
    }
}

/****************************************************************************/
/*!
*  \brief
*  Ausgabe eines Integer Wertes als String ueber die serielle Schnittstelle.
*
*  \param[in]
*  i Auszugebender Integer Wert (16Bit)
*  
*  \return
*  nichts
*
*  \par  Beispiel:
*  (Nur zur Demonstration der Parameter/Returnwerte)
*  \code
*  // Beispiel ausgabe eines Wertes
*  uart_puti( wert[0] );
*  uart_puts("\r\n");
*  \endcode
*****************************************************************************/
void uart_puti(uint16_t i)
{
 7ce:	0f 93       	push	r16
 7d0:	1f 93       	push	r17
 7d2:	cf 93       	push	r28
 7d4:	df 93       	push	r29
 7d6:	cd b7       	in	r28, 0x3d	; 61
 7d8:	de b7       	in	r29, 0x3e	; 62
 7da:	27 97       	sbiw	r28, 0x07	; 7
 7dc:	0f b6       	in	r0, 0x3f	; 63
 7de:	f8 94       	cli
 7e0:	de bf       	out	0x3e, r29	; 62
 7e2:	0f be       	out	0x3f, r0	; 63
 7e4:	cd bf       	out	0x3d, r28	; 61
	char s[7];	// "-12345"
	
	/* Wandeln eines Integers in einen String */
	itoa(i, s, 10);		
 7e6:	4a e0       	ldi	r20, 0x0A	; 10
 7e8:	50 e0       	ldi	r21, 0x00	; 0
 7ea:	8e 01       	movw	r16, r28
 7ec:	0f 5f       	subi	r16, 0xFF	; 255
 7ee:	1f 4f       	sbci	r17, 0xFF	; 255
 7f0:	b8 01       	movw	r22, r16
 7f2:	0e 94 23 04 	call	0x846	; 0x846 <itoa>
 7f6:	99 81       	ldd	r25, Y+1	; 0x01
 7f8:	99 23       	and	r25, r25
 7fa:	59 f0       	breq	.+22     	; 0x812 <uart_puti+0x44>
 7fc:	f8 01       	movw	r30, r16
 7fe:	31 96       	adiw	r30, 0x01	; 1
 800:	80 91 c0 00 	lds	r24, 0x00C0
 804:	85 ff       	sbrs	r24, 5
 806:	fc cf       	rjmp	.-8      	; 0x800 <uart_puti+0x32>
 808:	90 93 c6 00 	sts	0x00C6, r25
 80c:	90 81       	ld	r25, Z
 80e:	99 23       	and	r25, r25
 810:	b1 f7       	brne	.-20     	; 0x7fe <uart_puti+0x30>
 812:	27 96       	adiw	r28, 0x07	; 7
 814:	0f b6       	in	r0, 0x3f	; 63
 816:	f8 94       	cli
 818:	de bf       	out	0x3e, r29	; 62
 81a:	0f be       	out	0x3f, r0	; 63
 81c:	cd bf       	out	0x3d, r28	; 61
 81e:	df 91       	pop	r29
 820:	cf 91       	pop	r28
 822:	1f 91       	pop	r17
 824:	0f 91       	pop	r16
 826:	08 95       	ret

00000828 <uart_puts_p>:
 828:	fc 01       	movw	r30, r24
 82a:	94 91       	lpm	r25, Z
 82c:	99 23       	and	r25, r25
 82e:	51 f0       	breq	.+20     	; 0x844 <uart_puts_p+0x1c>
 830:	80 91 c0 00 	lds	r24, 0x00C0
 834:	85 ff       	sbrs	r24, 5
 836:	fc cf       	rjmp	.-8      	; 0x830 <uart_puts_p+0x8>
 838:	90 93 c6 00 	sts	0x00C6, r25
 83c:	31 96       	adiw	r30, 0x01	; 1
 83e:	94 91       	lpm	r25, Z
 840:	99 23       	and	r25, r25
 842:	b1 f7       	brne	.-20     	; 0x830 <uart_puts_p+0x8>
 844:	08 95       	ret

00000846 <itoa>:
 846:	fb 01       	movw	r30, r22
 848:	9f 01       	movw	r18, r30
 84a:	e8 94       	clt
 84c:	42 30       	cpi	r20, 0x02	; 2
 84e:	c4 f0       	brlt	.+48     	; 0x880 <itoa+0x3a>
 850:	45 32       	cpi	r20, 0x25	; 37
 852:	b4 f4       	brge	.+44     	; 0x880 <itoa+0x3a>
 854:	4a 30       	cpi	r20, 0x0A	; 10
 856:	29 f4       	brne	.+10     	; 0x862 <itoa+0x1c>
 858:	97 fb       	bst	r25, 7
 85a:	1e f4       	brtc	.+6      	; 0x862 <itoa+0x1c>
 85c:	90 95       	com	r25
 85e:	81 95       	neg	r24
 860:	9f 4f       	sbci	r25, 0xFF	; 255
 862:	64 2f       	mov	r22, r20
 864:	77 27       	eor	r23, r23
 866:	0e 94 54 04 	call	0x8a8	; 0x8a8 <__udivmodhi4>
 86a:	80 5d       	subi	r24, 0xD0	; 208
 86c:	8a 33       	cpi	r24, 0x3A	; 58
 86e:	0c f0       	brlt	.+2      	; 0x872 <itoa+0x2c>
 870:	89 5d       	subi	r24, 0xD9	; 217
 872:	81 93       	st	Z+, r24
 874:	cb 01       	movw	r24, r22
 876:	00 97       	sbiw	r24, 0x00	; 0
 878:	a1 f7       	brne	.-24     	; 0x862 <itoa+0x1c>
 87a:	16 f4       	brtc	.+4      	; 0x880 <itoa+0x3a>
 87c:	5d e2       	ldi	r21, 0x2D	; 45
 87e:	51 93       	st	Z+, r21
 880:	10 82       	st	Z, r1
 882:	c9 01       	movw	r24, r18
 884:	0c 94 44 04 	jmp	0x888	; 0x888 <strrev>

00000888 <strrev>:
 888:	dc 01       	movw	r26, r24
 88a:	fc 01       	movw	r30, r24
 88c:	67 2f       	mov	r22, r23
 88e:	71 91       	ld	r23, Z+
 890:	77 23       	and	r23, r23
 892:	e1 f7       	brne	.-8      	; 0x88c <strrev+0x4>
 894:	32 97       	sbiw	r30, 0x02	; 2
 896:	04 c0       	rjmp	.+8      	; 0x8a0 <strrev+0x18>
 898:	7c 91       	ld	r23, X
 89a:	6d 93       	st	X+, r22
 89c:	70 83       	st	Z, r23
 89e:	62 91       	ld	r22, -Z
 8a0:	ae 17       	cp	r26, r30
 8a2:	bf 07       	cpc	r27, r31
 8a4:	c8 f3       	brcs	.-14     	; 0x898 <strrev+0x10>
 8a6:	08 95       	ret

000008a8 <__udivmodhi4>:
 8a8:	aa 1b       	sub	r26, r26
 8aa:	bb 1b       	sub	r27, r27
 8ac:	51 e1       	ldi	r21, 0x11	; 17
 8ae:	07 c0       	rjmp	.+14     	; 0x8be <__udivmodhi4_ep>

000008b0 <__udivmodhi4_loop>:
 8b0:	aa 1f       	adc	r26, r26
 8b2:	bb 1f       	adc	r27, r27
 8b4:	a6 17       	cp	r26, r22
 8b6:	b7 07       	cpc	r27, r23
 8b8:	10 f0       	brcs	.+4      	; 0x8be <__udivmodhi4_ep>
 8ba:	a6 1b       	sub	r26, r22
 8bc:	b7 0b       	sbc	r27, r23

000008be <__udivmodhi4_ep>:
 8be:	88 1f       	adc	r24, r24
 8c0:	99 1f       	adc	r25, r25
 8c2:	5a 95       	dec	r21
 8c4:	a9 f7       	brne	.-22     	; 0x8b0 <__udivmodhi4_loop>
 8c6:	80 95       	com	r24
 8c8:	90 95       	com	r25
 8ca:	bc 01       	movw	r22, r24
 8cc:	cd 01       	movw	r24, r26
 8ce:	08 95       	ret

000008d0 <_exit>:
 8d0:	ff cf       	rjmp	.-2      	; 0x8d0 <_exit>
