   1               		.file	"command.c"
   2               	__SREG__ = 0x3f
   3               	__SP_H__ = 0x3e
   4               	__SP_L__ = 0x3d
   5               	__tmp_reg__ = 0
   6               	__zero_reg__ = 1
   7               		.global __do_copy_data
   8               		.global __do_clear_bss
  16               	.Ltext0:
  17               	.global	command_get
  19               	command_get:
  20               	.LFB7:
  21               	.LM1:
  22               	/* prologue: frame size=0 */
  23               	/* prologue end (size=0) */
  24 0000 8091 0000 		lds r24,command
  25               	.LM2:
  26 0004 90E0      		ldi r25,lo8(0)
  27               	/* epilogue: frame size=0 */
  28 0006 0895      		ret
  29               	/* epilogue end (size=1) */
  30               	/* function command_get size 4 (3) */
  31               	.LFE7:
  33               	.global	command_text
  35               	command_text:
  36               	.LFB8:
  37               	.LM3:
  38               	/* prologue: frame size=0 */
  39               	/* prologue end (size=0) */
  40               	.LM4:
  41 0008 80E0      		ldi r24,lo8(text)
  42 000a 90E0      		ldi r25,hi8(text)
  43               	/* epilogue: frame size=0 */
  44 000c 0895      		ret
  45               	/* epilogue end (size=1) */
  46               	/* function command_text size 3 (2) */
  47               	.LFE8:
  49               	.global	uart_puts_p
  51               	uart_puts_p:
  52               	.LFB10:
  53               	.LM5:
  54               	/* prologue: frame size=1 */
  55 000e EF92      		push r14
  56 0010 FF92      		push r15
  57 0012 0F93      		push r16
  58 0014 1F93      		push r17
  59 0016 CF93      		push r28
  60 0018 DF93      		push r29
  61 001a CDB7      		in r28,__SP_L__
  62 001c DEB7      		in r29,__SP_H__
  63 001e 2197      		sbiw r28,1
  64 0020 0FB6      		in __tmp_reg__,__SREG__
  65 0022 F894      		cli
  66 0024 DEBF      		out __SP_H__,r29
  67 0026 0FBE      		out __SREG__,__tmp_reg__
  68 0028 CDBF      		out __SP_L__,r28
  69               	/* prologue end (size=14) */
  70               	.LVL0:
  71 002a 8C01      		movw r16,r24
  72               	.LBB4:
  73               	.LM6:
  74 002c FC01      		movw r30,r24
  75               	/* #APP */
  76 002e 8491      		lpm r24, Z
  77               		
  78               	.LVL1:
  79               	/* #NOAPP */
  80               	.LBE4:
  81 0030 8823      		tst r24
  82 0032 01F0      		breq .L9
  83               	.LM7:
  84 0034 8983      		std Y+1,r24
  85               	.LVL2:
  86 0036 7E01      		movw r14,r28
  87 0038 0894      		sec
  88 003a E11C      		adc r14,__zero_reg__
  89 003c F11C      		adc r15,__zero_reg__
  90               	.L8:
  91               	.LM8:
  92 003e 61E0      		ldi r22,lo8(1)
  93 0040 C701      		movw r24,r14
  94               	.LVL3:
  95 0042 0E94 0000 		call rf12_txdata
  96               	.LM9:
  97 0046 0F5F      		subi r16,lo8(-(1))
  98 0048 1F4F      		sbci r17,hi8(-(1))
  99               	.LBB5:
 100               	.LM10:
 101 004a F801      		movw r30,r16
 102               	/* #APP */
 103 004c 8491      		lpm r24, Z
 104               		
 105               	.LVL4:
 106               	/* #NOAPP */
 107               	.LBE5:
 108 004e 8983      		std Y+1,r24
 109               	.LVL5:
 110 0050 8823      		tst r24
 111 0052 01F4      		brne .L8
 112               	.L9:
 113               	/* epilogue: frame size=1 */
 114 0054 2196      		adiw r28,1
 115 0056 0FB6      		in __tmp_reg__,__SREG__
 116 0058 F894      		cli
 117 005a DEBF      		out __SP_H__,r29
 118 005c 0FBE      		out __SREG__,__tmp_reg__
 119 005e CDBF      		out __SP_L__,r28
 120 0060 DF91      		pop r29
 121 0062 CF91      		pop r28
 122 0064 1F91      		pop r17
 123 0066 0F91      		pop r16
 124 0068 FF90      		pop r15
 125 006a EF90      		pop r14
 126 006c 0895      		ret
 127               	/* epilogue end (size=13) */
 128               	/* function uart_puts_p size 54 (27) */
 129               	.LFE10:
 131               		.data
 132               	.LC0:
 133 0000 3F00      		.string	"?"
 134               	.LC1:
 135 0002 6865 6C70 		.string	"help"
 135      00
 136               	.LC2:
 137 0007 7374 6174 		.string	"status"
 137      7573 00
 138               	.LC3:
 139 000e 636C 7300 		.string	"cls"
 140               	.LC4:
 141 0012 6D6F 7665 		.string	"move"
 141      00
 142               	.LC5:
 143 0017 6465 6D6F 		.string	"demo"
 143      00
 144               	.LC6:
 145 001c 6465 6275 		.string	"debug"
 145      6700 
 146               	.LC7:
 147 0022 6465 6275 		.string	"debug cmd"
 147      6720 636D 
 147      6400 
 148               	.LC8:
 149 002c 6465 6275 		.string	"debug enc"
 149      6720 656E 
 149      6300 
 150               	.LC9:
 151 0036 6465 6275 		.string	"debug reg"
 151      6720 7265 
 151      6700 
 152               		.text
 153               	.global	command_put
 155               	command_put:
 156               	.LFB6:
 157               	.LM11:
 158               	/* prologue: frame size=1 */
 159 006e 0F93      		push r16
 160 0070 1F93      		push r17
 161 0072 CF93      		push r28
 162 0074 DF93      		push r29
 163 0076 CDB7      		in r28,__SP_L__
 164 0078 DEB7      		in r29,__SP_H__
 165 007a 2197      		sbiw r28,1
 166 007c 0FB6      		in __tmp_reg__,__SREG__
 167 007e F894      		cli
 168 0080 DEBF      		out __SP_H__,r29
 169 0082 0FBE      		out __SREG__,__tmp_reg__
 170 0084 CDBF      		out __SP_L__,r28
 171               	/* prologue end (size=12) */
 172               	.LVL6:
 173 0086 8983      		std Y+1,r24
 174               	.LM12:
 175 0088 982F      		mov r25,r24
 176 008a 8F3F      		cpi r24,lo8(-1)
 177               	.LVL7:
 178 008c 01F0      		breq .L13
 179               	.LM13:
 180 008e 8D30      		cpi r24,lo8(13)
 181 0090 01F0      		breq .L63
 182               	.LM14:
 183 0092 8B31      		cpi r24,lo8(27)
 184 0094 01F4      		brne .+2
 185 0096 00C0      		rjmp .L64
 186               	.LM15:
 187 0098 8A30      		cpi r24,lo8(10)
 188 009a 01F0      		breq .L13
 189 009c 8830      		cpi r24,lo8(8)
 190 009e 01F0      		breq .L13
 191 00a0 8091 0000 		lds r24,nText
 192 00a4 8036      		cpi r24,lo8(96)
 193 00a6 01F0      		breq .L13
 194               	.LM16:
 195 00a8 E091 0000 		lds r30,ptext
 196 00ac F091 0000 		lds r31,(ptext)+1
 197 00b0 9193      		st Z+,r25
 198 00b2 F093 0000 		sts (ptext)+1,r31
 199 00b6 E093 0000 		sts ptext,r30
 200               	.LM17:
 201 00ba 61E0      		ldi r22,lo8(1)
 202 00bc CE01      		movw r24,r28
 203 00be 0196      		adiw r24,1
 204 00c0 0E94 0000 		call rf12_txdata
 205               	.LM18:
 206 00c4 8091 0000 		lds r24,nText
 207 00c8 8F5F      		subi r24,lo8(-(1))
 208 00ca 8093 0000 		sts nText,r24
 209               	.LM19:
 210 00ce 1092 0000 		sts command,__zero_reg__
 211 00d2 00C0      		rjmp .L55
 212               	.LVL8:
 213               	.L56:
 214               	.LM20:
 215 00d4 C801      		movw r24,r16
 216               	.LVL9:
 217 00d6 0E94 0000 		call rf12_rxdata
 218 00da 8823      		tst r24
 219 00dc 01F0      		breq .L56
 220               	.LM21:
 221 00de 8981      		ldd r24,Y+1
 222 00e0 8134      		cpi r24,lo8(65)
 223 00e2 01F0      		breq .L62
 224               	.LM22:
 225 00e4 8234      		cpi r24,lo8(66)
 226 00e6 01F0      		breq .L62
 227               	.LM23:
 228 00e8 8334      		cpi r24,lo8(67)
 229 00ea 01F4      		brne .+2
 230 00ec 00C0      		rjmp .L65
 231               	.LM24:
 232 00ee 8434      		cpi r24,lo8(68)
 233 00f0 01F0      		breq .L62
 234               	.L13:
 235               	.LM25:
 236 00f2 1092 0000 		sts command,__zero_reg__
 237 00f6 00C0      		rjmp .L55
 238               	.L63:
 239               	.LM26:
 240 00f8 E091 0000 		lds r30,ptext
 241 00fc F091 0000 		lds r31,(ptext)+1
 242 0100 1082      		st Z,__zero_reg__
 243               	.LM27:
 244 0102 00E0      		ldi r16,lo8(text)
 245 0104 10E0      		ldi r17,hi8(text)
 246 0106 1093 0000 		sts (ptext)+1,r17
 247 010a 0093 0000 		sts ptext,r16
 248               	.LM28:
 249 010e 1092 0000 		sts nText,__zero_reg__
 250               	.LM29:
 251 0112 60E0      		ldi r22,lo8(.LC0)
 252 0114 70E0      		ldi r23,hi8(.LC0)
 253 0116 C801      		movw r24,r16
 254 0118 0E94 0000 		call strcmp
 255 011c 892B      		or r24,r25
 256 011e 01F4      		brne .L66
 257               	.L17:
 258               	.LM30:
 259 0120 84E0      		ldi r24,lo8(4)
 260 0122 8093 0000 		sts command,r24
 261 0126 00C0      		rjmp .L55
 262               	.L64:
 263               	.LM31:
 264 0128 8E01      		movw r16,r28
 265 012a 0F5F      		subi r16,lo8(-(1))
 266 012c 1F4F      		sbci r17,hi8(-(1))
 267               	.L39:
 268               	.LM32:
 269 012e C801      		movw r24,r16
 270 0130 0E94 0000 		call rf12_rxdata
 271 0134 8823      		tst r24
 272 0136 01F0      		breq .L39
 273               	.LM33:
 274 0138 8981      		ldd r24,Y+1
 275 013a 8B35      		cpi r24,lo8(91)
 276 013c 01F0      		breq .L56
 277               	.LVL10:
 278               	.LM34:
 279 013e 8BE1      		ldi r24,lo8(27)
 280               	.LVL11:
 281               	.L62:
 282 0140 8093 0000 		sts command,r24
 283 0144 00C0      		rjmp .L55
 284               	.L66:
 285               	.LM35:
 286 0146 60E0      		ldi r22,lo8(.LC1)
 287 0148 70E0      		ldi r23,hi8(.LC1)
 288 014a C801      		movw r24,r16
 289 014c 0E94 0000 		call strcmp
 290 0150 892B      		or r24,r25
 291 0152 01F0      		breq .L17
 292               	.LM36:
 293 0154 60E0      		ldi r22,lo8(.LC2)
 294 0156 70E0      		ldi r23,hi8(.LC2)
 295 0158 C801      		movw r24,r16
 296 015a 0E94 0000 		call strcmp
 297 015e 892B      		or r24,r25
 298 0160 01F4      		brne .L21
 299               	.LM37:
 300 0162 83E0      		ldi r24,lo8(3)
 301 0164 8093 0000 		sts command,r24
 302 0168 00C0      		rjmp .L55
 303               	.L21:
 304               	.LM38:
 305 016a 60E0      		ldi r22,lo8(.LC3)
 306 016c 70E0      		ldi r23,hi8(.LC3)
 307 016e C801      		movw r24,r16
 308 0170 0E94 0000 		call strcmp
 309 0174 892B      		or r24,r25
 310 0176 01F4      		brne .L23
 311               	.LM39:
 312 0178 82E0      		ldi r24,lo8(2)
 313 017a 8093 0000 		sts command,r24
 314 017e 00C0      		rjmp .L55
 315               	.L65:
 316               	.LM40:
 317 0180 85E4      		ldi r24,lo8(69)
 318 0182 8093 0000 		sts command,r24
 319 0186 00C0      		rjmp .L55
 320               	.L23:
 321               	.LM41:
 322 0188 60E0      		ldi r22,lo8(.LC4)
 323 018a 70E0      		ldi r23,hi8(.LC4)
 324 018c C801      		movw r24,r16
 325 018e 0E94 0000 		call strcmp
 326 0192 892B      		or r24,r25
 327 0194 01F4      		brne .L25
 328               	.LM42:
 329 0196 85E0      		ldi r24,lo8(5)
 330 0198 8093 0000 		sts command,r24
 331 019c 00C0      		rjmp .L55
 332               	.L25:
 333               	.LM43:
 334 019e 60E0      		ldi r22,lo8(.LC5)
 335 01a0 70E0      		ldi r23,hi8(.LC5)
 336 01a2 C801      		movw r24,r16
 337 01a4 0E94 0000 		call strcmp
 338 01a8 892B      		or r24,r25
 339 01aa 01F4      		brne .L27
 340               	.LM44:
 341 01ac 86E0      		ldi r24,lo8(6)
 342 01ae 8093 0000 		sts command,r24
 343 01b2 00C0      		rjmp .L55
 344               	.L27:
 345               	.LM45:
 346 01b4 60E0      		ldi r22,lo8(.LC6)
 347 01b6 70E0      		ldi r23,hi8(.LC6)
 348 01b8 C801      		movw r24,r16
 349 01ba 0E94 0000 		call strcmp
 350 01be 892B      		or r24,r25
 351 01c0 01F4      		brne .L29
 352               	.LM46:
 353 01c2 8AE0      		ldi r24,lo8(10)
 354 01c4 8093 0000 		sts command,r24
 355 01c8 00C0      		rjmp .L55
 356               	.L29:
 357               	.LM47:
 358 01ca 60E0      		ldi r22,lo8(.LC7)
 359 01cc 70E0      		ldi r23,hi8(.LC7)
 360 01ce C801      		movw r24,r16
 361 01d0 0E94 0000 		call strcmp
 362 01d4 892B      		or r24,r25
 363 01d6 01F4      		brne .L31
 364               	.LM48:
 365 01d8 8BE0      		ldi r24,lo8(11)
 366 01da 8093 0000 		sts command,r24
 367 01de 00C0      		rjmp .L55
 368               	.L31:
 369               	.LM49:
 370 01e0 60E0      		ldi r22,lo8(.LC8)
 371 01e2 70E0      		ldi r23,hi8(.LC8)
 372 01e4 C801      		movw r24,r16
 373 01e6 0E94 0000 		call strcmp
 374 01ea 892B      		or r24,r25
 375 01ec 01F4      		brne .L33
 376               	.LM50:
 377 01ee 8CE0      		ldi r24,lo8(12)
 378 01f0 8093 0000 		sts command,r24
 379 01f4 00C0      		rjmp .L55
 380               	.L33:
 381               	.LM51:
 382 01f6 60E0      		ldi r22,lo8(.LC9)
 383 01f8 70E0      		ldi r23,hi8(.LC9)
 384 01fa 80E0      		ldi r24,lo8(text)
 385 01fc 90E0      		ldi r25,hi8(text)
 386 01fe 0E94 0000 		call strcmp
 387 0202 892B      		or r24,r25
 388 0204 01F4      		brne .L35
 389               	.LM52:
 390 0206 8DE0      		ldi r24,lo8(13)
 391 0208 8093 0000 		sts command,r24
 392 020c 00C0      		rjmp .L55
 393               	.L35:
 394               	.LM53:
 395 020e 81E0      		ldi r24,lo8(1)
 396 0210 8093 0000 		sts command,r24
 397               	.L55:
 398               	/* epilogue: frame size=1 */
 399 0214 2196      		adiw r28,1
 400 0216 0FB6      		in __tmp_reg__,__SREG__
 401 0218 F894      		cli
 402 021a DEBF      		out __SP_H__,r29
 403 021c 0FBE      		out __SREG__,__tmp_reg__
 404 021e CDBF      		out __SP_L__,r28
 405 0220 DF91      		pop r29
 406 0222 CF91      		pop r28
 407 0224 1F91      		pop r17
 408 0226 0F91      		pop r16
 409 0228 0895      		ret
 410               	/* epilogue end (size=11) */
 411               	/* function command_put size 222 (199) */
 412               	.LFE6:
 414               	.global	command_prompt
 416               	command_prompt:
 417               	.LFB9:
 418               	.LM54:
 419               	/* prologue: frame size=1 */
 420 022a CF92      		push r12
 421 022c DF92      		push r13
 422 022e EF92      		push r14
 423 0230 FF92      		push r15
 424 0232 0F93      		push r16
 425 0234 1F93      		push r17
 426 0236 CF93      		push r28
 427 0238 DF93      		push r29
 428 023a CDB7      		in r28,__SP_L__
 429 023c DEB7      		in r29,__SP_H__
 430 023e 2197      		sbiw r28,1
 431 0240 0FB6      		in __tmp_reg__,__SREG__
 432 0242 F894      		cli
 433 0244 DEBF      		out __SP_H__,r29
 434 0246 0FBE      		out __SREG__,__tmp_reg__
 435 0248 CDBF      		out __SP_L__,r28
 436               	/* prologue end (size=16) */
 437               	.LVL12:
 438               	.LM55:
 439 024a 8A30      		cpi r24,lo8(10)
 440 024c 01F4      		brne .+2
 441 024e 00C0      		rjmp .L76
 442               	.LM56:
 443 0250 8B30      		cpi r24,lo8(11)
 444 0252 00F0      		brlo .+2
 445 0254 00C0      		rjmp .L78
 446 0256 8330      		cpi r24,lo8(3)
 447 0258 01F4      		brne .+2
 448 025a 00C0      		rjmp .L72
 449 025c 8430      		cpi r24,lo8(4)
 450 025e 00F4      		brsh .+2
 451 0260 00C0      		rjmp .L269
 452 0262 8530      		cpi r24,lo8(5)
 453 0264 01F4      		brne .+2
 454 0266 00C0      		rjmp .L74
 455 0268 8530      		cpi r24,lo8(5)
 456 026a 00F4      		brsh .+2
 457 026c 00C0      		rjmp .L73
 458 026e 8630      		cpi r24,lo8(6)
 459 0270 01F0      		breq .+2
 460 0272 00C0      		rjmp .L68
 461               	.LBB185:
 462               	.LBB186:
 463               	.LBB187:
 464               	.LM57:
 465 0274 E0E0      		ldi r30,lo8(__c.1876)
 466 0276 F0E0      		ldi r31,hi8(__c.1876)
 467               	.LM58:
 468               	/* #APP */
 469 0278 8491      		lpm r24, Z
 470               		
 471               	.LVL13:
 472               	/* #NOAPP */
 473               	.LBE187:
 474 027a 8983      		std Y+1,r24
 475               	.LVL14:
 476 027c 8823      		tst r24
 477 027e 01F0      		breq .L92
 478               	.LBE186:
 479               	.LBE185:
 480               	.LBB190:
 481               	.LBB191:
 482 0280 7E01      		movw r14,r28
 483 0282 0894      		sec
 484 0284 E11C      		adc r14,__zero_reg__
 485 0286 F11C      		adc r15,__zero_reg__
 486               	.LM59:
 487 0288 8F01      		movw r16,r30
 488               	.LVL15:
 489               	.L185:
 490               	.LBE191:
 491               	.LBE190:
 492               	.LBB195:
 493               	.LBB189:
 494               	.LM60:
 495 028a 61E0      		ldi r22,lo8(1)
 496 028c C701      		movw r24,r14
 497               	.LVL16:
 498 028e 0E94 0000 		call rf12_txdata
 499               	.LM61:
 500 0292 0F5F      		subi r16,lo8(-(1))
 501 0294 1F4F      		sbci r17,hi8(-(1))
 502               	.LBB188:
 503               	.LM62:
 504 0296 F801      		movw r30,r16
 505               	/* #APP */
 506 0298 8491      		lpm r24, Z
 507               		
 508               	.LVL17:
 509               	/* #NOAPP */
 510               	.LBE188:
 511 029a 8983      		std Y+1,r24
 512               	.LVL18:
 513 029c 8823      		tst r24
 514 029e 01F4      		brne .L185
 515               	.L92:
 516               	.LBE189:
 517               	.LBE195:
 518               	.LBB196:
 519               	.LBB197:
 520               	.LBB198:
 521               	.LM63:
 522 02a0 E0E0      		ldi r30,lo8(__c.1878)
 523 02a2 F0E0      		ldi r31,hi8(__c.1878)
 524               	.LM64:
 525               	/* #APP */
 526 02a4 8491      		lpm r24, Z
 527               		
 528               	.LVL19:
 529               	/* #NOAPP */
 530               	.LBE198:
 531 02a6 8983      		std Y+1,r24
 532               	.LVL20:
 533 02a8 8823      		tst r24
 534 02aa 01F0      		breq .L186
 535 02ac 7E01      		movw r14,r28
 536 02ae 0894      		sec
 537 02b0 E11C      		adc r14,__zero_reg__
 538 02b2 F11C      		adc r15,__zero_reg__
 539               	.LM65:
 540 02b4 8F01      		movw r16,r30
 541               	.LVL21:
 542               	.L188:
 543               	.LM66:
 544 02b6 61E0      		ldi r22,lo8(1)
 545 02b8 C701      		movw r24,r14
 546               	.LVL22:
 547 02ba 0E94 0000 		call rf12_txdata
 548               	.LM67:
 549 02be 0F5F      		subi r16,lo8(-(1))
 550 02c0 1F4F      		sbci r17,hi8(-(1))
 551               	.LBB199:
 552               	.LM68:
 553 02c2 F801      		movw r30,r16
 554               	/* #APP */
 555 02c4 8491      		lpm r24, Z
 556               		
 557               	.LVL23:
 558               	/* #NOAPP */
 559               	.LBE199:
 560 02c6 8983      		std Y+1,r24
 561               	.LVL24:
 562 02c8 8823      		tst r24
 563 02ca 01F4      		brne .L188
 564               	.LVL25:
 565               	.L186:
 566               	.LBE197:
 567               	.LBE196:
 568               	.LBB200:
 569               	.LBB201:
 570               	.LBB203:
 571               	.LM69:
 572 02cc E0E0      		ldi r30,lo8(__c.1880)
 573 02ce F0E0      		ldi r31,hi8(__c.1880)
 574               	.LM70:
 575               	/* #APP */
 576 02d0 8491      		lpm r24, Z
 577               		
 578               	.LVL26:
 579               	/* #NOAPP */
 580               	.LBE203:
 581 02d2 8823      		tst r24
 582 02d4 01F4      		brne .+2
 583 02d6 00C0      		rjmp .L219
 584 02d8 8983      		std Y+1,r24
 585               	.LVL27:
 586 02da 7E01      		movw r14,r28
 587 02dc 0894      		sec
 588 02de E11C      		adc r14,__zero_reg__
 589 02e0 F11C      		adc r15,__zero_reg__
 590               	.LM71:
 591 02e2 8F01      		movw r16,r30
 592               	.LVL28:
 593               	.L190:
 594               	.LM72:
 595 02e4 61E0      		ldi r22,lo8(1)
 596 02e6 C701      		movw r24,r14
 597               	.LVL29:
 598 02e8 0E94 0000 		call rf12_txdata
 599               	.LM73:
 600 02ec 0F5F      		subi r16,lo8(-(1))
 601 02ee 1F4F      		sbci r17,hi8(-(1))
 602               	.LBB202:
 603               	.LM74:
 604 02f0 F801      		movw r30,r16
 605               	/* #APP */
 606 02f2 8491      		lpm r24, Z
 607               		
 608               	.LVL30:
 609               	/* #NOAPP */
 610               	.LBE202:
 611 02f4 8983      		std Y+1,r24
 612               	.LVL31:
 613 02f6 8823      		tst r24
 614 02f8 01F4      		brne .L190
 615 02fa 00C0      		rjmp .L219
 616               	.LVL32:
 617               	.L78:
 618               	.LBE201:
 619               	.LBE200:
 620               	.LM75:
 621 02fc 8334      		cpi r24,lo8(67)
 622 02fe 00F0      		brlo .L270
 623 0300 8454      		subi r24,lo8(-(-68))
 624               	.LVL33:
 625 0302 8230      		cpi r24,lo8(2)
 626 0304 00F4      		brsh .+2
 627 0306 00C0      		rjmp .L219
 628               	.L68:
 629               	.LBB205:
 630               	.LBB206:
 631               	.LBB208:
 632               	.LM76:
 633 0308 E0E0      		ldi r30,lo8(__c.1909)
 634 030a F0E0      		ldi r31,hi8(__c.1909)
 635               	.LM77:
 636               	/* #APP */
 637 030c 8491      		lpm r24, Z
 638               		
 639               	.LVL34:
 640               	/* #NOAPP */
 641               	.LBE208:
 642 030e 8823      		tst r24
 643 0310 01F4      		brne .+2
 644 0312 00C0      		rjmp .L219
 645 0314 8983      		std Y+1,r24
 646               	.LVL35:
 647 0316 7E01      		movw r14,r28
 648 0318 0894      		sec
 649 031a E11C      		adc r14,__zero_reg__
 650 031c F11C      		adc r15,__zero_reg__
 651               	.LM78:
 652 031e 8F01      		movw r16,r30
 653               	.LVL36:
 654               	.L218:
 655               	.LM79:
 656 0320 61E0      		ldi r22,lo8(1)
 657 0322 C701      		movw r24,r14
 658               	.LVL37:
 659 0324 0E94 0000 		call rf12_txdata
 660               	.LM80:
 661 0328 0F5F      		subi r16,lo8(-(1))
 662 032a 1F4F      		sbci r17,hi8(-(1))
 663               	.LBB207:
 664               	.LM81:
 665 032c F801      		movw r30,r16
 666               	/* #APP */
 667 032e 8491      		lpm r24, Z
 668               		
 669               	.LVL38:
 670               	/* #NOAPP */
 671               	.LBE207:
 672 0330 8983      		std Y+1,r24
 673               	.LVL39:
 674 0332 8823      		tst r24
 675 0334 01F4      		brne .L218
 676 0336 00C0      		rjmp .L219
 677               	.LVL40:
 678               	.L270:
 679               	.LBE206:
 680               	.LBE205:
 681               	.LM82:
 682 0338 8134      		cpi r24,lo8(65)
 683 033a 00F0      		brlo .+2
 684 033c 00C0      		rjmp .L219
 685 033e 8E30      		cpi r24,lo8(14)
 686 0340 00F4      		brsh .+2
 687 0342 00C0      		rjmp .L219
 688 0344 8B31      		cpi r24,lo8(27)
 689 0346 01F4      		brne .L68
 690               	.LBB210:
 691               	.LBB211:
 692               	.LBB212:
 693               	.LM83:
 694 0348 E0E0      		ldi r30,lo8(Str_CR)
 695 034a F0E0      		ldi r31,hi8(Str_CR)
 696               	.LVL41:
 697               	/* #APP */
 698 034c 8491      		lpm r24, Z
 699               		
 700               	.LVL42:
 701               	/* #NOAPP */
 702               	.LBE212:
 703 034e 8983      		std Y+1,r24
 704               	.LVL43:
 705 0350 8823      		tst r24
 706 0352 01F0      		breq .L96
 707               	.LBE211:
 708               	.LBE210:
 709               	.LBB215:
 710               	.LBB216:
 711 0354 7E01      		movw r14,r28
 712 0356 0894      		sec
 713 0358 E11C      		adc r14,__zero_reg__
 714 035a F11C      		adc r15,__zero_reg__
 715 035c 8F01      		movw r16,r30
 716               	.LVL44:
 717               	.L215:
 718               	.LBE216:
 719               	.LBE215:
 720               	.LBB220:
 721               	.LBB214:
 722               	.LM84:
 723 035e 61E0      		ldi r22,lo8(1)
 724 0360 C701      		movw r24,r14
 725               	.LVL45:
 726 0362 0E94 0000 		call rf12_txdata
 727               	.LVL46:
 728               	.LM85:
 729 0366 0F5F      		subi r16,lo8(-(1))
 730 0368 1F4F      		sbci r17,hi8(-(1))
 731               	.LBB213:
 732               	.LM86:
 733 036a F801      		movw r30,r16
 734               	/* #APP */
 735 036c 8491      		lpm r24, Z
 736               		
 737               	.LVL47:
 738               	/* #NOAPP */
 739               	.LBE213:
 740 036e 8983      		std Y+1,r24
 741               	.LVL48:
 742 0370 8823      		tst r24
 743 0372 01F4      		brne .L215
 744               	.LVL49:
 745               	.L96:
 746               	.LBE214:
 747               	.LBE220:
 748               	.LBB221:
 749               	.LBB222:
 750               	.LBB223:
 751 0374 E0E0      		ldi r30,lo8(Str_BOT)
 752 0376 F0E0      		ldi r31,hi8(Str_BOT)
 753               	.LVL50:
 754               	/* #APP */
 755 0378 8491      		lpm r24, Z
 756               		
 757               	.LVL51:
 758               	/* #NOAPP */
 759               	.LBE223:
 760 037a 8823      		tst r24
 761 037c 01F4      		brne .+2
 762 037e 00C0      		rjmp .L219
 763 0380 8983      		std Y+1,r24
 764               	.LVL52:
 765 0382 7E01      		movw r14,r28
 766 0384 0894      		sec
 767 0386 E11C      		adc r14,__zero_reg__
 768 0388 F11C      		adc r15,__zero_reg__
 769 038a 8F01      		movw r16,r30
 770               	.LVL53:
 771               	.L217:
 772               	.LM87:
 773 038c 61E0      		ldi r22,lo8(1)
 774 038e C701      		movw r24,r14
 775               	.LVL54:
 776 0390 0E94 0000 		call rf12_txdata
 777               	.LM88:
 778 0394 0F5F      		subi r16,lo8(-(1))
 779 0396 1F4F      		sbci r17,hi8(-(1))
 780               	.LBB224:
 781               	.LM89:
 782 0398 F801      		movw r30,r16
 783               	/* #APP */
 784 039a 8491      		lpm r24, Z
 785               		
 786               	.LVL55:
 787               	/* #NOAPP */
 788               	.LBE224:
 789 039c 8983      		std Y+1,r24
 790               	.LVL56:
 791 039e 8823      		tst r24
 792 03a0 01F4      		brne .L217
 793 03a2 00C0      		rjmp .L219
 794               	.LVL57:
 795               	.L269:
 796               	.LBE222:
 797               	.LBE221:
 798               	.LM90:
 799 03a4 8130      		cpi r24,lo8(1)
 800 03a6 01F4      		brne .+2
 801 03a8 00C0      		rjmp .L70
 802 03aa 8230      		cpi r24,lo8(2)
 803 03ac 00F4      		brsh .+2
 804 03ae 00C0      		rjmp .L219
 805               	.LBB225:
 806               	.LBB226:
 807               	.LBB227:
 808               	.LM91:
 809 03b0 E0E0      		ldi r30,lo8(__c.1898)
 810 03b2 F0E0      		ldi r31,hi8(__c.1898)
 811               	.LM92:
 812               	/* #APP */
 813 03b4 8491      		lpm r24, Z
 814               		
 815               	.LVL58:
 816               	/* #NOAPP */
 817               	.LBE227:
 818 03b6 8983      		std Y+1,r24
 819               	.LVL59:
 820 03b8 8823      		tst r24
 821 03ba 01F0      		breq .L84
 822               	.LBE226:
 823               	.LBE225:
 824               	.LBB230:
 825               	.LBB231:
 826 03bc 7E01      		movw r14,r28
 827 03be 0894      		sec
 828 03c0 E11C      		adc r14,__zero_reg__
 829 03c2 F11C      		adc r15,__zero_reg__
 830               	.LM93:
 831 03c4 8F01      		movw r16,r30
 832               	.LVL60:
 833               	.L212:
 834               	.LBE231:
 835               	.LBE230:
 836               	.LBB235:
 837               	.LBB229:
 838               	.LM94:
 839 03c6 61E0      		ldi r22,lo8(1)
 840 03c8 C701      		movw r24,r14
 841               	.LVL61:
 842 03ca 0E94 0000 		call rf12_txdata
 843               	.LM95:
 844 03ce 0F5F      		subi r16,lo8(-(1))
 845 03d0 1F4F      		sbci r17,hi8(-(1))
 846               	.LBB228:
 847               	.LM96:
 848 03d2 F801      		movw r30,r16
 849               	/* #APP */
 850 03d4 8491      		lpm r24, Z
 851               		
 852               	.LVL62:
 853               	/* #NOAPP */
 854               	.LBE228:
 855 03d6 8983      		std Y+1,r24
 856               	.LVL63:
 857 03d8 8823      		tst r24
 858 03da 01F4      		brne .L212
 859               	.L84:
 860               	.LBE229:
 861               	.LBE235:
 862               	.LBB236:
 863               	.LBB219:
 864               	.LBB217:
 865 03dc E0E0      		ldi r30,lo8(Str_BOT)
 866 03de F0E0      		ldi r31,hi8(Str_BOT)
 867               	/* #APP */
 868 03e0 8491      		lpm r24, Z
 869               		
 870               	.LVL64:
 871               	/* #NOAPP */
 872               	.LBE217:
 873 03e2 8823      		tst r24
 874 03e4 01F4      		brne .+2
 875 03e6 00C0      		rjmp .L219
 876 03e8 8983      		std Y+1,r24
 877               	.LVL65:
 878 03ea 7E01      		movw r14,r28
 879 03ec 0894      		sec
 880 03ee E11C      		adc r14,__zero_reg__
 881 03f0 F11C      		adc r15,__zero_reg__
 882 03f2 8F01      		movw r16,r30
 883               	.LVL66:
 884               	.L214:
 885               	.LM97:
 886 03f4 61E0      		ldi r22,lo8(1)
 887 03f6 C701      		movw r24,r14
 888               	.LVL67:
 889 03f8 0E94 0000 		call rf12_txdata
 890               	.LM98:
 891 03fc 0F5F      		subi r16,lo8(-(1))
 892 03fe 1F4F      		sbci r17,hi8(-(1))
 893               	.LBB218:
 894               	.LM99:
 895 0400 F801      		movw r30,r16
 896               	/* #APP */
 897 0402 8491      		lpm r24, Z
 898               		
 899               	.LVL68:
 900               	/* #NOAPP */
 901               	.LBE218:
 902 0404 8983      		std Y+1,r24
 903               	.LVL69:
 904 0406 8823      		tst r24
 905 0408 01F4      		brne .L214
 906 040a 00C0      		rjmp .L219
 907               	.LVL70:
 908               	.L73:
 909               	.LBE219:
 910               	.LBE236:
 911               	.LBB237:
 912               	.LBB238:
 913               	.LBB239:
 914               	.LM100:
 915 040c E0E0      		ldi r30,lo8(__c.1839)
 916 040e F0E0      		ldi r31,hi8(__c.1839)
 917               	.LM101:
 918               	/* #APP */
 919 0410 8491      		lpm r24, Z
 920               		
 921               	.LVL71:
 922               	/* #NOAPP */
 923               	.LBE239:
 924 0412 8983      		std Y+1,r24
 925               	.LVL72:
 926 0414 8823      		tst r24
 927 0416 01F0      		breq .L88
 928               	.LBE238:
 929               	.LBE237:
 930               	.LBB242:
 931               	.LBB243:
 932 0418 7E01      		movw r14,r28
 933 041a 0894      		sec
 934 041c E11C      		adc r14,__zero_reg__
 935 041e F11C      		adc r15,__zero_reg__
 936               	.LM102:
 937 0420 8F01      		movw r16,r30
 938               	.LVL73:
 939               	.L110:
 940               	.LBE243:
 941               	.LBE242:
 942               	.LBB247:
 943               	.LBB241:
 944               	.LM103:
 945 0422 61E0      		ldi r22,lo8(1)
 946 0424 C701      		movw r24,r14
 947               	.LVL74:
 948 0426 0E94 0000 		call rf12_txdata
 949               	.LM104:
 950 042a 0F5F      		subi r16,lo8(-(1))
 951 042c 1F4F      		sbci r17,hi8(-(1))
 952               	.LBB240:
 953               	.LM105:
 954 042e F801      		movw r30,r16
 955               	/* #APP */
 956 0430 8491      		lpm r24, Z
 957               		
 958               	.LVL75:
 959               	/* #NOAPP */
 960               	.LBE240:
 961 0432 8983      		std Y+1,r24
 962               	.LVL76:
 963 0434 8823      		tst r24
 964 0436 01F4      		brne .L110
 965               	.L88:
 966               	.LBE241:
 967               	.LBE247:
 968               	.LBB248:
 969               	.LBB249:
 970               	.LBB250:
 971 0438 80E0      		ldi r24,lo8(Str_CR)
 972 043a C82E      		mov r12,r24
 973 043c 80E0      		ldi r24,hi8(Str_CR)
 974 043e D82E      		mov r13,r24
 975               	.LVL77:
 976 0440 F601      		movw r30,r12
 977               	/* #APP */
 978 0442 8491      		lpm r24, Z
 979               		
 980               	.LVL78:
 981               	/* #NOAPP */
 982               	.LBE250:
 983 0444 8983      		std Y+1,r24
 984               	.LVL79:
 985 0446 8823      		tst r24
 986 0448 01F0      		breq .L111
 987 044a 7E01      		movw r14,r28
 988 044c 0894      		sec
 989 044e E11C      		adc r14,__zero_reg__
 990 0450 F11C      		adc r15,__zero_reg__
 991 0452 8601      		movw r16,r12
 992               	.LVL80:
 993               	.L113:
 994               	.LM106:
 995 0454 61E0      		ldi r22,lo8(1)
 996 0456 C701      		movw r24,r14
 997               	.LVL81:
 998 0458 0E94 0000 		call rf12_txdata
 999               	.LM107:
 1000 045c 0F5F      		subi r16,lo8(-(1))
 1001 045e 1F4F      		sbci r17,hi8(-(1))
 1002               	.LBB251:
 1003               	.LM108:
 1004 0460 F801      		movw r30,r16
 1005               	/* #APP */
 1006 0462 8491      		lpm r24, Z
 1007               		
 1008               	.LVL82:
 1009               	/* #NOAPP */
 1010               	.LBE251:
 1011 0464 8983      		std Y+1,r24
 1012               	.LVL83:
 1013 0466 8823      		tst r24
 1014 0468 01F4      		brne .L113
 1015               	.LVL84:
 1016               	.L111:
 1017               	.LBE249:
 1018               	.LBE248:
 1019               	.LBB252:
 1020               	.LBB253:
 1021               	.LBB254:
 1022               	.LM109:
 1023 046a E0E0      		ldi r30,lo8(__c.1841)
 1024 046c F0E0      		ldi r31,hi8(__c.1841)
 1025               	.LM110:
 1026               	/* #APP */
 1027 046e 8491      		lpm r24, Z
 1028               		
 1029               	.LVL85:
 1030               	/* #NOAPP */
 1031               	.LBE254:
 1032 0470 8983      		std Y+1,r24
 1033               	.LVL86:
 1034 0472 8823      		tst r24
 1035 0474 01F0      		breq .L114
 1036 0476 7E01      		movw r14,r28
 1037 0478 0894      		sec
 1038 047a E11C      		adc r14,__zero_reg__
 1039 047c F11C      		adc r15,__zero_reg__
 1040               	.LM111:
 1041 047e 8F01      		movw r16,r30
 1042               	.LVL87:
 1043               	.L116:
 1044               	.LM112:
 1045 0480 61E0      		ldi r22,lo8(1)
 1046 0482 C701      		movw r24,r14
 1047               	.LVL88:
 1048 0484 0E94 0000 		call rf12_txdata
 1049               	.LM113:
 1050 0488 0F5F      		subi r16,lo8(-(1))
 1051 048a 1F4F      		sbci r17,hi8(-(1))
 1052               	.LBB255:
 1053               	.LM114:
 1054 048c F801      		movw r30,r16
 1055               	/* #APP */
 1056 048e 8491      		lpm r24, Z
 1057               		
 1058               	.LVL89:
 1059               	/* #NOAPP */
 1060               	.LBE255:
 1061 0490 8983      		std Y+1,r24
 1062               	.LVL90:
 1063 0492 8823      		tst r24
 1064 0494 01F4      		brne .L116
 1065               	.LVL91:
 1066               	.L114:
 1067               	.LBE253:
 1068               	.LBE252:
 1069               	.LBB256:
 1070               	.LBB257:
 1071               	.LBB258:
 1072 0496 F601      		movw r30,r12
 1073               	/* #APP */
 1074 0498 8491      		lpm r24, Z
 1075               		
 1076               	.LVL92:
 1077               	/* #NOAPP */
 1078               	.LBE258:
 1079 049a 8983      		std Y+1,r24
 1080               	.LVL93:
 1081 049c 8823      		tst r24
 1082 049e 01F0      		breq .L117
 1083 04a0 7E01      		movw r14,r28
 1084 04a2 0894      		sec
 1085 04a4 E11C      		adc r14,__zero_reg__
 1086 04a6 F11C      		adc r15,__zero_reg__
 1087 04a8 00E0      		ldi r16,lo8(Str_CR)
 1088 04aa 10E0      		ldi r17,hi8(Str_CR)
 1089               	.LVL94:
 1090               	.L119:
 1091               	.LM115:
 1092 04ac 61E0      		ldi r22,lo8(1)
 1093 04ae C701      		movw r24,r14
 1094               	.LVL95:
 1095 04b0 0E94 0000 		call rf12_txdata
 1096               	.LM116:
 1097 04b4 0F5F      		subi r16,lo8(-(1))
 1098 04b6 1F4F      		sbci r17,hi8(-(1))
 1099               	.LBB259:
 1100               	.LM117:
 1101 04b8 F801      		movw r30,r16
 1102               	/* #APP */
 1103 04ba 8491      		lpm r24, Z
 1104               		
 1105               	.LVL96:
 1106               	/* #NOAPP */
 1107               	.LBE259:
 1108 04bc 8983      		std Y+1,r24
 1109               	.LVL97:
 1110 04be 8823      		tst r24
 1111 04c0 01F4      		brne .L119
 1112               	.LVL98:
 1113               	.L117:
 1114               	.LBE257:
 1115               	.LBE256:
 1116               	.LBB260:
 1117               	.LBB261:
 1118               	.LBB262:
 1119               	.LM118:
 1120 04c2 E0E0      		ldi r30,lo8(__c.1843)
 1121 04c4 F0E0      		ldi r31,hi8(__c.1843)
 1122               	.LM119:
 1123               	/* #APP */
 1124 04c6 8491      		lpm r24, Z
 1125               		
 1126               	.LVL99:
 1127               	/* #NOAPP */
 1128               	.LBE262:
 1129 04c8 8983      		std Y+1,r24
 1130               	.LVL100:
 1131 04ca 8823      		tst r24
 1132 04cc 01F0      		breq .L120
 1133 04ce 7E01      		movw r14,r28
 1134 04d0 0894      		sec
 1135 04d2 E11C      		adc r14,__zero_reg__
 1136 04d4 F11C      		adc r15,__zero_reg__
 1137               	.LM120:
 1138 04d6 8F01      		movw r16,r30
 1139               	.LVL101:
 1140               	.L122:
 1141               	.LM121:
 1142 04d8 61E0      		ldi r22,lo8(1)
 1143 04da C701      		movw r24,r14
 1144               	.LVL102:
 1145 04dc 0E94 0000 		call rf12_txdata
 1146               	.LM122:
 1147 04e0 0F5F      		subi r16,lo8(-(1))
 1148 04e2 1F4F      		sbci r17,hi8(-(1))
 1149               	.LBB263:
 1150               	.LM123:
 1151 04e4 F801      		movw r30,r16
 1152               	/* #APP */
 1153 04e6 8491      		lpm r24, Z
 1154               		
 1155               	.LVL103:
 1156               	/* #NOAPP */
 1157               	.LBE263:
 1158 04e8 8983      		std Y+1,r24
 1159               	.LVL104:
 1160 04ea 8823      		tst r24
 1161 04ec 01F4      		brne .L122
 1162               	.LVL105:
 1163               	.L120:
 1164               	.LBE261:
 1165               	.LBE260:
 1166               	.LBB264:
 1167               	.LBB265:
 1168               	.LBB266:
 1169 04ee F601      		movw r30,r12
 1170               	/* #APP */
 1171 04f0 8491      		lpm r24, Z
 1172               		
 1173               	.LVL106:
 1174               	/* #NOAPP */
 1175               	.LBE266:
 1176 04f2 8983      		std Y+1,r24
 1177               	.LVL107:
 1178 04f4 8823      		tst r24
 1179 04f6 01F0      		breq .L123
 1180 04f8 7E01      		movw r14,r28
 1181 04fa 0894      		sec
 1182 04fc E11C      		adc r14,__zero_reg__
 1183 04fe F11C      		adc r15,__zero_reg__
 1184 0500 00E0      		ldi r16,lo8(Str_CR)
 1185 0502 10E0      		ldi r17,hi8(Str_CR)
 1186               	.LVL108:
 1187               	.L125:
 1188               	.LM124:
 1189 0504 61E0      		ldi r22,lo8(1)
 1190 0506 C701      		movw r24,r14
 1191               	.LVL109:
 1192 0508 0E94 0000 		call rf12_txdata
 1193               	.LM125:
 1194 050c 0F5F      		subi r16,lo8(-(1))
 1195 050e 1F4F      		sbci r17,hi8(-(1))
 1196               	.LBB267:
 1197               	.LM126:
 1198 0510 F801      		movw r30,r16
 1199               	/* #APP */
 1200 0512 8491      		lpm r24, Z
 1201               		
 1202               	.LVL110:
 1203               	/* #NOAPP */
 1204               	.LBE267:
 1205 0514 8983      		std Y+1,r24
 1206               	.LVL111:
 1207 0516 8823      		tst r24
 1208 0518 01F4      		brne .L125
 1209               	.LVL112:
 1210               	.L123:
 1211               	.LBE265:
 1212               	.LBE264:
 1213               	.LBB268:
 1214               	.LBB269:
 1215               	.LBB270:
 1216               	.LM127:
 1217 051a E0E0      		ldi r30,lo8(__c.1845)
 1218 051c F0E0      		ldi r31,hi8(__c.1845)
 1219               	.LM128:
 1220               	/* #APP */
 1221 051e 8491      		lpm r24, Z
 1222               		
 1223               	.LVL113:
 1224               	/* #NOAPP */
 1225               	.LBE270:
 1226 0520 8983      		std Y+1,r24
 1227               	.LVL114:
 1228 0522 8823      		tst r24
 1229 0524 01F0      		breq .L126
 1230 0526 7E01      		movw r14,r28
 1231 0528 0894      		sec
 1232 052a E11C      		adc r14,__zero_reg__
 1233 052c F11C      		adc r15,__zero_reg__
 1234               	.LM129:
 1235 052e 8F01      		movw r16,r30
 1236               	.LVL115:
 1237               	.L128:
 1238               	.LM130:
 1239 0530 61E0      		ldi r22,lo8(1)
 1240 0532 C701      		movw r24,r14
 1241               	.LVL116:
 1242 0534 0E94 0000 		call rf12_txdata
 1243               	.LM131:
 1244 0538 0F5F      		subi r16,lo8(-(1))
 1245 053a 1F4F      		sbci r17,hi8(-(1))
 1246               	.LBB271:
 1247               	.LM132:
 1248 053c F801      		movw r30,r16
 1249               	/* #APP */
 1250 053e 8491      		lpm r24, Z
 1251               		
 1252               	.LVL117:
 1253               	/* #NOAPP */
 1254               	.LBE271:
 1255 0540 8983      		std Y+1,r24
 1256               	.LVL118:
 1257 0542 8823      		tst r24
 1258 0544 01F4      		brne .L128
 1259               	.LVL119:
 1260               	.L126:
 1261               	.LBE269:
 1262               	.LBE268:
 1263               	.LBB272:
 1264               	.LBB273:
 1265               	.LBB274:
 1266 0546 F601      		movw r30,r12
 1267               	/* #APP */
 1268 0548 8491      		lpm r24, Z
 1269               		
 1270               	.LVL120:
 1271               	/* #NOAPP */
 1272               	.LBE274:
 1273 054a 8983      		std Y+1,r24
 1274               	.LVL121:
 1275 054c 8823      		tst r24
 1276 054e 01F0      		breq .L129
 1277 0550 7E01      		movw r14,r28
 1278 0552 0894      		sec
 1279 0554 E11C      		adc r14,__zero_reg__
 1280 0556 F11C      		adc r15,__zero_reg__
 1281 0558 00E0      		ldi r16,lo8(Str_CR)
 1282 055a 10E0      		ldi r17,hi8(Str_CR)
 1283               	.LVL122:
 1284               	.L131:
 1285               	.LM133:
 1286 055c 61E0      		ldi r22,lo8(1)
 1287 055e C701      		movw r24,r14
 1288               	.LVL123:
 1289 0560 0E94 0000 		call rf12_txdata
 1290               	.LM134:
 1291 0564 0F5F      		subi r16,lo8(-(1))
 1292 0566 1F4F      		sbci r17,hi8(-(1))
 1293               	.LBB275:
 1294               	.LM135:
 1295 0568 F801      		movw r30,r16
 1296               	/* #APP */
 1297 056a 8491      		lpm r24, Z
 1298               		
 1299               	.LVL124:
 1300               	/* #NOAPP */
 1301               	.LBE275:
 1302 056c 8983      		std Y+1,r24
 1303               	.LVL125:
 1304 056e 8823      		tst r24
 1305 0570 01F4      		brne .L131
 1306               	.LVL126:
 1307               	.L129:
 1308               	.LBE273:
 1309               	.LBE272:
 1310               	.LBB276:
 1311               	.LBB277:
 1312               	.LBB278:
 1313               	.LM136:
 1314 0572 E0E0      		ldi r30,lo8(__c.1847)
 1315 0574 F0E0      		ldi r31,hi8(__c.1847)
 1316               	.LM137:
 1317               	/* #APP */
 1318 0576 8491      		lpm r24, Z
 1319               		
 1320               	.LVL127:
 1321               	/* #NOAPP */
 1322               	.LBE278:
 1323 0578 8983      		std Y+1,r24
 1324               	.LVL128:
 1325 057a 8823      		tst r24
 1326 057c 01F0      		breq .L132
 1327 057e 7E01      		movw r14,r28
 1328 0580 0894      		sec
 1329 0582 E11C      		adc r14,__zero_reg__
 1330 0584 F11C      		adc r15,__zero_reg__
 1331               	.LM138:
 1332 0586 8F01      		movw r16,r30
 1333               	.LVL129:
 1334               	.L134:
 1335               	.LM139:
 1336 0588 61E0      		ldi r22,lo8(1)
 1337 058a C701      		movw r24,r14
 1338               	.LVL130:
 1339 058c 0E94 0000 		call rf12_txdata
 1340               	.LM140:
 1341 0590 0F5F      		subi r16,lo8(-(1))
 1342 0592 1F4F      		sbci r17,hi8(-(1))
 1343               	.LBB279:
 1344               	.LM141:
 1345 0594 F801      		movw r30,r16
 1346               	/* #APP */
 1347 0596 8491      		lpm r24, Z
 1348               		
 1349               	.LVL131:
 1350               	/* #NOAPP */
 1351               	.LBE279:
 1352 0598 8983      		std Y+1,r24
 1353               	.LVL132:
 1354 059a 8823      		tst r24
 1355 059c 01F4      		brne .L134
 1356               	.LVL133:
 1357               	.L132:
 1358               	.LBE277:
 1359               	.LBE276:
 1360               	.LBB280:
 1361               	.LBB281:
 1362               	.LBB282:
 1363 059e F601      		movw r30,r12
 1364               	/* #APP */
 1365 05a0 8491      		lpm r24, Z
 1366               		
 1367               	.LVL134:
 1368               	/* #NOAPP */
 1369               	.LBE282:
 1370 05a2 8983      		std Y+1,r24
 1371               	.LVL135:
 1372 05a4 8823      		tst r24
 1373 05a6 01F0      		breq .L135
 1374 05a8 7E01      		movw r14,r28
 1375 05aa 0894      		sec
 1376 05ac E11C      		adc r14,__zero_reg__
 1377 05ae F11C      		adc r15,__zero_reg__
 1378 05b0 00E0      		ldi r16,lo8(Str_CR)
 1379 05b2 10E0      		ldi r17,hi8(Str_CR)
 1380               	.LVL136:
 1381               	.L137:
 1382               	.LM142:
 1383 05b4 61E0      		ldi r22,lo8(1)
 1384 05b6 C701      		movw r24,r14
 1385               	.LVL137:
 1386 05b8 0E94 0000 		call rf12_txdata
 1387               	.LM143:
 1388 05bc 0F5F      		subi r16,lo8(-(1))
 1389 05be 1F4F      		sbci r17,hi8(-(1))
 1390               	.LBB283:
 1391               	.LM144:
 1392 05c0 F801      		movw r30,r16
 1393               	/* #APP */
 1394 05c2 8491      		lpm r24, Z
 1395               		
 1396               	.LVL138:
 1397               	/* #NOAPP */
 1398               	.LBE283:
 1399 05c4 8983      		std Y+1,r24
 1400               	.LVL139:
 1401 05c6 8823      		tst r24
 1402 05c8 01F4      		brne .L137
 1403               	.LVL140:
 1404               	.L135:
 1405               	.LBE281:
 1406               	.LBE280:
 1407               	.LBB284:
 1408               	.LBB285:
 1409               	.LBB286:
 1410               	.LM145:
 1411 05ca E0E0      		ldi r30,lo8(__c.1849)
 1412 05cc F0E0      		ldi r31,hi8(__c.1849)
 1413               	.LM146:
 1414               	/* #APP */
 1415 05ce 8491      		lpm r24, Z
 1416               		
 1417               	.LVL141:
 1418               	/* #NOAPP */
 1419               	.LBE286:
 1420 05d0 8983      		std Y+1,r24
 1421               	.LVL142:
 1422 05d2 8823      		tst r24
 1423 05d4 01F0      		breq .L138
 1424 05d6 7E01      		movw r14,r28
 1425 05d8 0894      		sec
 1426 05da E11C      		adc r14,__zero_reg__
 1427 05dc F11C      		adc r15,__zero_reg__
 1428               	.LM147:
 1429 05de 8F01      		movw r16,r30
 1430               	.LVL143:
 1431               	.L140:
 1432               	.LM148:
 1433 05e0 61E0      		ldi r22,lo8(1)
 1434 05e2 C701      		movw r24,r14
 1435               	.LVL144:
 1436 05e4 0E94 0000 		call rf12_txdata
 1437               	.LM149:
 1438 05e8 0F5F      		subi r16,lo8(-(1))
 1439 05ea 1F4F      		sbci r17,hi8(-(1))
 1440               	.LBB287:
 1441               	.LM150:
 1442 05ec F801      		movw r30,r16
 1443               	/* #APP */
 1444 05ee 8491      		lpm r24, Z
 1445               		
 1446               	.LVL145:
 1447               	/* #NOAPP */
 1448               	.LBE287:
 1449 05f0 8983      		std Y+1,r24
 1450               	.LVL146:
 1451 05f2 8823      		tst r24
 1452 05f4 01F4      		brne .L140
 1453               	.LVL147:
 1454               	.L138:
 1455               	.LBE285:
 1456               	.LBE284:
 1457               	.LBB288:
 1458               	.LBB289:
 1459               	.LBB290:
 1460 05f6 F601      		movw r30,r12
 1461               	/* #APP */
 1462 05f8 8491      		lpm r24, Z
 1463               		
 1464               	.LVL148:
 1465               	/* #NOAPP */
 1466               	.LBE290:
 1467 05fa 8983      		std Y+1,r24
 1468               	.LVL149:
 1469 05fc 8823      		tst r24
 1470 05fe 01F0      		breq .L141
 1471 0600 7E01      		movw r14,r28
 1472 0602 0894      		sec
 1473 0604 E11C      		adc r14,__zero_reg__
 1474 0606 F11C      		adc r15,__zero_reg__
 1475 0608 00E0      		ldi r16,lo8(Str_CR)
 1476 060a 10E0      		ldi r17,hi8(Str_CR)
 1477               	.LVL150:
 1478               	.L143:
 1479               	.LM151:
 1480 060c 61E0      		ldi r22,lo8(1)
 1481 060e C701      		movw r24,r14
 1482               	.LVL151:
 1483 0610 0E94 0000 		call rf12_txdata
 1484               	.LM152:
 1485 0614 0F5F      		subi r16,lo8(-(1))
 1486 0616 1F4F      		sbci r17,hi8(-(1))
 1487               	.LBB291:
 1488               	.LM153:
 1489 0618 F801      		movw r30,r16
 1490               	/* #APP */
 1491 061a 8491      		lpm r24, Z
 1492               		
 1493               	.LVL152:
 1494               	/* #NOAPP */
 1495               	.LBE291:
 1496 061c 8983      		std Y+1,r24
 1497               	.LVL153:
 1498 061e 8823      		tst r24
 1499 0620 01F4      		brne .L143
 1500               	.LVL154:
 1501               	.L141:
 1502               	.LBE289:
 1503               	.LBE288:
 1504               	.LBB292:
 1505               	.LBB293:
 1506               	.LBB294:
 1507               	.LM154:
 1508 0622 E0E0      		ldi r30,lo8(__c.1851)
 1509 0624 F0E0      		ldi r31,hi8(__c.1851)
 1510               	.LM155:
 1511               	/* #APP */
 1512 0626 8491      		lpm r24, Z
 1513               		
 1514               	.LVL155:
 1515               	/* #NOAPP */
 1516               	.LBE294:
 1517 0628 8983      		std Y+1,r24
 1518               	.LVL156:
 1519 062a 8823      		tst r24
 1520 062c 01F0      		breq .L144
 1521 062e 7E01      		movw r14,r28
 1522 0630 0894      		sec
 1523 0632 E11C      		adc r14,__zero_reg__
 1524 0634 F11C      		adc r15,__zero_reg__
 1525               	.LM156:
 1526 0636 8F01      		movw r16,r30
 1527               	.LVL157:
 1528               	.L146:
 1529               	.LM157:
 1530 0638 61E0      		ldi r22,lo8(1)
 1531 063a C701      		movw r24,r14
 1532               	.LVL158:
 1533 063c 0E94 0000 		call rf12_txdata
 1534               	.LM158:
 1535 0640 0F5F      		subi r16,lo8(-(1))
 1536 0642 1F4F      		sbci r17,hi8(-(1))
 1537               	.LBB295:
 1538               	.LM159:
 1539 0644 F801      		movw r30,r16
 1540               	/* #APP */
 1541 0646 8491      		lpm r24, Z
 1542               		
 1543               	.LVL159:
 1544               	/* #NOAPP */
 1545               	.LBE295:
 1546 0648 8983      		std Y+1,r24
 1547               	.LVL160:
 1548 064a 8823      		tst r24
 1549 064c 01F4      		brne .L146
 1550               	.LVL161:
 1551               	.L144:
 1552               	.LBE293:
 1553               	.LBE292:
 1554               	.LBB296:
 1555               	.LBB297:
 1556               	.LBB298:
 1557 064e F601      		movw r30,r12
 1558               	/* #APP */
 1559 0650 8491      		lpm r24, Z
 1560               		
 1561               	.LVL162:
 1562               	/* #NOAPP */
 1563               	.LBE298:
 1564 0652 8983      		std Y+1,r24
 1565               	.LVL163:
 1566 0654 8823      		tst r24
 1567 0656 01F0      		breq .L147
 1568 0658 7E01      		movw r14,r28
 1569 065a 0894      		sec
 1570 065c E11C      		adc r14,__zero_reg__
 1571 065e F11C      		adc r15,__zero_reg__
 1572 0660 00E0      		ldi r16,lo8(Str_CR)
 1573 0662 10E0      		ldi r17,hi8(Str_CR)
 1574               	.LVL164:
 1575               	.L149:
 1576               	.LM160:
 1577 0664 61E0      		ldi r22,lo8(1)
 1578 0666 C701      		movw r24,r14
 1579               	.LVL165:
 1580 0668 0E94 0000 		call rf12_txdata
 1581               	.LM161:
 1582 066c 0F5F      		subi r16,lo8(-(1))
 1583 066e 1F4F      		sbci r17,hi8(-(1))
 1584               	.LBB299:
 1585               	.LM162:
 1586 0670 F801      		movw r30,r16
 1587               	/* #APP */
 1588 0672 8491      		lpm r24, Z
 1589               		
 1590               	.LVL166:
 1591               	/* #NOAPP */
 1592               	.LBE299:
 1593 0674 8983      		std Y+1,r24
 1594               	.LVL167:
 1595 0676 8823      		tst r24
 1596 0678 01F4      		brne .L149
 1597               	.LVL168:
 1598               	.L147:
 1599               	.LBE297:
 1600               	.LBE296:
 1601               	.LBB300:
 1602               	.LBB301:
 1603               	.LBB302:
 1604               	.LM163:
 1605 067a E0E0      		ldi r30,lo8(__c.1853)
 1606 067c F0E0      		ldi r31,hi8(__c.1853)
 1607               	.LM164:
 1608               	/* #APP */
 1609 067e 8491      		lpm r24, Z
 1610               		
 1611               	.LVL169:
 1612               	/* #NOAPP */
 1613               	.LBE302:
 1614 0680 8983      		std Y+1,r24
 1615               	.LVL170:
 1616 0682 8823      		tst r24
 1617 0684 01F0      		breq .L150
 1618 0686 7E01      		movw r14,r28
 1619 0688 0894      		sec
 1620 068a E11C      		adc r14,__zero_reg__
 1621 068c F11C      		adc r15,__zero_reg__
 1622               	.LM165:
 1623 068e 8F01      		movw r16,r30
 1624               	.LVL171:
 1625               	.L152:
 1626               	.LM166:
 1627 0690 61E0      		ldi r22,lo8(1)
 1628 0692 C701      		movw r24,r14
 1629               	.LVL172:
 1630 0694 0E94 0000 		call rf12_txdata
 1631               	.LM167:
 1632 0698 0F5F      		subi r16,lo8(-(1))
 1633 069a 1F4F      		sbci r17,hi8(-(1))
 1634               	.LBB303:
 1635               	.LM168:
 1636 069c F801      		movw r30,r16
 1637               	/* #APP */
 1638 069e 8491      		lpm r24, Z
 1639               		
 1640               	.LVL173:
 1641               	/* #NOAPP */
 1642               	.LBE303:
 1643 06a0 8983      		std Y+1,r24
 1644               	.LVL174:
 1645 06a2 8823      		tst r24
 1646 06a4 01F4      		brne .L152
 1647               	.LVL175:
 1648               	.L150:
 1649               	.LBE301:
 1650               	.LBE300:
 1651               	.LBB304:
 1652               	.LBB305:
 1653               	.LBB306:
 1654 06a6 F601      		movw r30,r12
 1655               	/* #APP */
 1656 06a8 8491      		lpm r24, Z
 1657               		
 1658               	.LVL176:
 1659               	/* #NOAPP */
 1660               	.LBE306:
 1661 06aa 8983      		std Y+1,r24
 1662               	.LVL177:
 1663 06ac 8823      		tst r24
 1664 06ae 01F0      		breq .L153
 1665 06b0 7E01      		movw r14,r28
 1666 06b2 0894      		sec
 1667 06b4 E11C      		adc r14,__zero_reg__
 1668 06b6 F11C      		adc r15,__zero_reg__
 1669 06b8 00E0      		ldi r16,lo8(Str_CR)
 1670 06ba 10E0      		ldi r17,hi8(Str_CR)
 1671               	.LVL178:
 1672               	.L155:
 1673               	.LM169:
 1674 06bc 61E0      		ldi r22,lo8(1)
 1675 06be C701      		movw r24,r14
 1676               	.LVL179:
 1677 06c0 0E94 0000 		call rf12_txdata
 1678               	.LM170:
 1679 06c4 0F5F      		subi r16,lo8(-(1))
 1680 06c6 1F4F      		sbci r17,hi8(-(1))
 1681               	.LBB307:
 1682               	.LM171:
 1683 06c8 F801      		movw r30,r16
 1684               	/* #APP */
 1685 06ca 8491      		lpm r24, Z
 1686               		
 1687               	.LVL180:
 1688               	/* #NOAPP */
 1689               	.LBE307:
 1690 06cc 8983      		std Y+1,r24
 1691               	.LVL181:
 1692 06ce 8823      		tst r24
 1693 06d0 01F4      		brne .L155
 1694               	.LVL182:
 1695               	.L153:
 1696               	.LBE305:
 1697               	.LBE304:
 1698               	.LBB308:
 1699               	.LBB309:
 1700               	.LBB310:
 1701               	.LM172:
 1702 06d2 E0E0      		ldi r30,lo8(__c.1855)
 1703 06d4 F0E0      		ldi r31,hi8(__c.1855)
 1704               	.LM173:
 1705               	/* #APP */
 1706 06d6 8491      		lpm r24, Z
 1707               		
 1708               	.LVL183:
 1709               	/* #NOAPP */
 1710               	.LBE310:
 1711 06d8 8983      		std Y+1,r24
 1712               	.LVL184:
 1713 06da 8823      		tst r24
 1714 06dc 01F0      		breq .L156
 1715 06de 7E01      		movw r14,r28
 1716 06e0 0894      		sec
 1717 06e2 E11C      		adc r14,__zero_reg__
 1718 06e4 F11C      		adc r15,__zero_reg__
 1719               	.LM174:
 1720 06e6 8F01      		movw r16,r30
 1721               	.LVL185:
 1722               	.L158:
 1723               	.LM175:
 1724 06e8 61E0      		ldi r22,lo8(1)
 1725 06ea C701      		movw r24,r14
 1726               	.LVL186:
 1727 06ec 0E94 0000 		call rf12_txdata
 1728               	.LM176:
 1729 06f0 0F5F      		subi r16,lo8(-(1))
 1730 06f2 1F4F      		sbci r17,hi8(-(1))
 1731               	.LBB311:
 1732               	.LM177:
 1733 06f4 F801      		movw r30,r16
 1734               	/* #APP */
 1735 06f6 8491      		lpm r24, Z
 1736               		
 1737               	.LVL187:
 1738               	/* #NOAPP */
 1739               	.LBE311:
 1740 06f8 8983      		std Y+1,r24
 1741               	.LVL188:
 1742 06fa 8823      		tst r24
 1743 06fc 01F4      		brne .L158
 1744               	.LVL189:
 1745               	.L156:
 1746               	.LBE309:
 1747               	.LBE308:
 1748               	.LBB312:
 1749               	.LBB313:
 1750               	.LBB314:
 1751 06fe F601      		movw r30,r12
 1752               	/* #APP */
 1753 0700 8491      		lpm r24, Z
 1754               		
 1755               	.LVL190:
 1756               	/* #NOAPP */
 1757               	.LBE314:
 1758 0702 8983      		std Y+1,r24
 1759               	.LVL191:
 1760 0704 8823      		tst r24
 1761 0706 01F0      		breq .L159
 1762 0708 7E01      		movw r14,r28
 1763 070a 0894      		sec
 1764 070c E11C      		adc r14,__zero_reg__
 1765 070e F11C      		adc r15,__zero_reg__
 1766 0710 00E0      		ldi r16,lo8(Str_CR)
 1767 0712 10E0      		ldi r17,hi8(Str_CR)
 1768               	.LVL192:
 1769               	.L161:
 1770               	.LM178:
 1771 0714 61E0      		ldi r22,lo8(1)
 1772 0716 C701      		movw r24,r14
 1773               	.LVL193:
 1774 0718 0E94 0000 		call rf12_txdata
 1775               	.LM179:
 1776 071c 0F5F      		subi r16,lo8(-(1))
 1777 071e 1F4F      		sbci r17,hi8(-(1))
 1778               	.LBB315:
 1779               	.LM180:
 1780 0720 F801      		movw r30,r16
 1781               	/* #APP */
 1782 0722 8491      		lpm r24, Z
 1783               		
 1784               	.LVL194:
 1785               	/* #NOAPP */
 1786               	.LBE315:
 1787 0724 8983      		std Y+1,r24
 1788               	.LVL195:
 1789 0726 8823      		tst r24
 1790 0728 01F4      		brne .L161
 1791               	.LVL196:
 1792               	.L159:
 1793               	.LBE313:
 1794               	.LBE312:
 1795               	.LBB316:
 1796               	.LBB317:
 1797               	.LBB319:
 1798 072a E0E0      		ldi r30,lo8(Str_BOT)
 1799 072c F0E0      		ldi r31,hi8(Str_BOT)
 1800               	/* #APP */
 1801 072e 8491      		lpm r24, Z
 1802               		
 1803               	.LVL197:
 1804               	/* #NOAPP */
 1805               	.LBE319:
 1806 0730 8823      		tst r24
 1807 0732 01F4      		brne .+2
 1808 0734 00C0      		rjmp .L219
 1809 0736 8983      		std Y+1,r24
 1810               	.LVL198:
 1811 0738 7E01      		movw r14,r28
 1812 073a 0894      		sec
 1813 073c E11C      		adc r14,__zero_reg__
 1814 073e F11C      		adc r15,__zero_reg__
 1815 0740 8F01      		movw r16,r30
 1816               	.LVL199:
 1817               	.L163:
 1818               	.LM181:
 1819 0742 61E0      		ldi r22,lo8(1)
 1820 0744 C701      		movw r24,r14
 1821               	.LVL200:
 1822 0746 0E94 0000 		call rf12_txdata
 1823               	.LM182:
 1824 074a 0F5F      		subi r16,lo8(-(1))
 1825 074c 1F4F      		sbci r17,hi8(-(1))
 1826               	.LBB318:
 1827               	.LM183:
 1828 074e F801      		movw r30,r16
 1829               	/* #APP */
 1830 0750 8491      		lpm r24, Z
 1831               		
 1832               	.LVL201:
 1833               	/* #NOAPP */
 1834               	.LBE318:
 1835 0752 8983      		std Y+1,r24
 1836               	.LVL202:
 1837 0754 8823      		tst r24
 1838 0756 01F4      		brne .L163
 1839 0758 00C0      		rjmp .L219
 1840               	.LVL203:
 1841               	.L74:
 1842               	.LBE317:
 1843               	.LBE316:
 1844               	.LBB321:
 1845               	.LBB322:
 1846               	.LBB323:
 1847               	.LM184:
 1848 075a E0E0      		ldi r30,lo8(__c.1869)
 1849 075c F0E0      		ldi r31,hi8(__c.1869)
 1850               	.LM185:
 1851               	/* #APP */
 1852 075e 8491      		lpm r24, Z
 1853               		
 1854               	.LVL204:
 1855               	/* #NOAPP */
 1856               	.LBE323:
 1857 0760 8983      		std Y+1,r24
 1858               	.LVL205:
 1859 0762 8823      		tst r24
 1860 0764 01F0      		breq .L90
 1861               	.LBE322:
 1862               	.LBE321:
 1863               	.LBB326:
 1864               	.LBB327:
 1865 0766 7E01      		movw r14,r28
 1866 0768 0894      		sec
 1867 076a E11C      		adc r14,__zero_reg__
 1868 076c F11C      		adc r15,__zero_reg__
 1869               	.LM186:
 1870 076e 8F01      		movw r16,r30
 1871               	.LVL206:
 1872               	.L179:
 1873               	.LBE327:
 1874               	.LBE326:
 1875               	.LBB331:
 1876               	.LBB325:
 1877               	.LM187:
 1878 0770 61E0      		ldi r22,lo8(1)
 1879 0772 C701      		movw r24,r14
 1880               	.LVL207:
 1881 0774 0E94 0000 		call rf12_txdata
 1882               	.LM188:
 1883 0778 0F5F      		subi r16,lo8(-(1))
 1884 077a 1F4F      		sbci r17,hi8(-(1))
 1885               	.LBB324:
 1886               	.LM189:
 1887 077c F801      		movw r30,r16
 1888               	/* #APP */
 1889 077e 8491      		lpm r24, Z
 1890               		
 1891               	.LVL208:
 1892               	/* #NOAPP */
 1893               	.LBE324:
 1894 0780 8983      		std Y+1,r24
 1895               	.LVL209:
 1896 0782 8823      		tst r24
 1897 0784 01F4      		brne .L179
 1898               	.L90:
 1899               	.LBE325:
 1900               	.LBE331:
 1901               	.LBB332:
 1902               	.LBB333:
 1903               	.LBB334:
 1904               	.LM190:
 1905 0786 E0E0      		ldi r30,lo8(__c.1871)
 1906 0788 F0E0      		ldi r31,hi8(__c.1871)
 1907               	.LM191:
 1908               	/* #APP */
 1909 078a 8491      		lpm r24, Z
 1910               		
 1911               	.LVL210:
 1912               	/* #NOAPP */
 1913               	.LBE334:
 1914 078c 8983      		std Y+1,r24
 1915               	.LVL211:
 1916 078e 8823      		tst r24
 1917 0790 01F0      		breq .L180
 1918 0792 7E01      		movw r14,r28
 1919 0794 0894      		sec
 1920 0796 E11C      		adc r14,__zero_reg__
 1921 0798 F11C      		adc r15,__zero_reg__
 1922               	.LM192:
 1923 079a 8F01      		movw r16,r30
 1924               	.LVL212:
 1925               	.L182:
 1926               	.LM193:
 1927 079c 61E0      		ldi r22,lo8(1)
 1928 079e C701      		movw r24,r14
 1929               	.LVL213:
 1930 07a0 0E94 0000 		call rf12_txdata
 1931               	.LM194:
 1932 07a4 0F5F      		subi r16,lo8(-(1))
 1933 07a6 1F4F      		sbci r17,hi8(-(1))
 1934               	.LBB335:
 1935               	.LM195:
 1936 07a8 F801      		movw r30,r16
 1937               	/* #APP */
 1938 07aa 8491      		lpm r24, Z
 1939               		
 1940               	.LVL214:
 1941               	/* #NOAPP */
 1942               	.LBE335:
 1943 07ac 8983      		std Y+1,r24
 1944               	.LVL215:
 1945 07ae 8823      		tst r24
 1946 07b0 01F4      		brne .L182
 1947               	.LVL216:
 1948               	.L180:
 1949               	.LBE333:
 1950               	.LBE332:
 1951               	.LBB336:
 1952               	.LBB194:
 1953               	.LBB192:
 1954               	.LM196:
 1955 07b2 E0E0      		ldi r30,lo8(__c.1873)
 1956 07b4 F0E0      		ldi r31,hi8(__c.1873)
 1957               	.LM197:
 1958               	/* #APP */
 1959 07b6 8491      		lpm r24, Z
 1960               		
 1961               	.LVL217:
 1962               	/* #NOAPP */
 1963               	.LBE192:
 1964 07b8 8823      		tst r24
 1965 07ba 01F4      		brne .+2
 1966 07bc 00C0      		rjmp .L219
 1967 07be 8983      		std Y+1,r24
 1968               	.LVL218:
 1969 07c0 7E01      		movw r14,r28
 1970 07c2 0894      		sec
 1971 07c4 E11C      		adc r14,__zero_reg__
 1972 07c6 F11C      		adc r15,__zero_reg__
 1973               	.LM198:
 1974 07c8 8F01      		movw r16,r30
 1975               	.LVL219:
 1976               	.L184:
 1977               	.LM199:
 1978 07ca 61E0      		ldi r22,lo8(1)
 1979 07cc C701      		movw r24,r14
 1980               	.LVL220:
 1981 07ce 0E94 0000 		call rf12_txdata
 1982               	.LM200:
 1983 07d2 0F5F      		subi r16,lo8(-(1))
 1984 07d4 1F4F      		sbci r17,hi8(-(1))
 1985               	.LBB193:
 1986               	.LM201:
 1987 07d6 F801      		movw r30,r16
 1988               	/* #APP */
 1989 07d8 8491      		lpm r24, Z
 1990               		
 1991               	.LVL221:
 1992               	/* #NOAPP */
 1993               	.LBE193:
 1994 07da 8983      		std Y+1,r24
 1995               	.LVL222:
 1996 07dc 8823      		tst r24
 1997 07de 01F4      		brne .L184
 1998 07e0 00C0      		rjmp .L219
 1999               	.LVL223:
 2000               	.L70:
 2001               	.LBE194:
 2002               	.LBE336:
 2003               	.LBB337:
 2004               	.LBB338:
 2005               	.LBB339:
 2006               	.LM202:
 2007 07e2 E0E0      		ldi r30,lo8(__c.1832)
 2008 07e4 F0E0      		ldi r31,hi8(__c.1832)
 2009               	.LM203:
 2010               	/* #APP */
 2011 07e6 8491      		lpm r24, Z
 2012               		
 2013               	.LVL224:
 2014               	/* #NOAPP */
 2015               	.LBE339:
 2016 07e8 8983      		std Y+1,r24
 2017               	.LVL225:
 2018 07ea 8823      		tst r24
 2019 07ec 01F0      		breq .L82
 2020               	.LBE338:
 2021               	.LBE337:
 2022               	.LBB342:
 2023               	.LBB209:
 2024 07ee 7E01      		movw r14,r28
 2025 07f0 0894      		sec
 2026 07f2 E11C      		adc r14,__zero_reg__
 2027 07f4 F11C      		adc r15,__zero_reg__
 2028               	.LM204:
 2029 07f6 8F01      		movw r16,r30
 2030               	.LVL226:
 2031               	.L98:
 2032               	.LBE209:
 2033               	.LBE342:
 2034               	.LBB343:
 2035               	.LBB341:
 2036               	.LM205:
 2037 07f8 61E0      		ldi r22,lo8(1)
 2038 07fa C701      		movw r24,r14
 2039               	.LVL227:
 2040 07fc 0E94 0000 		call rf12_txdata
 2041               	.LM206:
 2042 0800 0F5F      		subi r16,lo8(-(1))
 2043 0802 1F4F      		sbci r17,hi8(-(1))
 2044               	.LBB340:
 2045               	.LM207:
 2046 0804 F801      		movw r30,r16
 2047               	/* #APP */
 2048 0806 8491      		lpm r24, Z
 2049               		
 2050               	.LVL228:
 2051               	/* #NOAPP */
 2052               	.LBE340:
 2053 0808 8983      		std Y+1,r24
 2054               	.LVL229:
 2055 080a 8823      		tst r24
 2056 080c 01F4      		brne .L98
 2057               	.L82:
 2058               	.LBE341:
 2059               	.LBE343:
 2060               	.LBB344:
 2061               	.LBB345:
 2062               	.LBB346:
 2063               	.LM208:
 2064 080e E0E0      		ldi r30,lo8(__c.1834)
 2065 0810 F0E0      		ldi r31,hi8(__c.1834)
 2066               	.LM209:
 2067               	/* #APP */
 2068 0812 8491      		lpm r24, Z
 2069               		
 2070               	.LVL230:
 2071               	/* #NOAPP */
 2072               	.LBE346:
 2073 0814 8983      		std Y+1,r24
 2074               	.LVL231:
 2075 0816 8823      		tst r24
 2076 0818 01F0      		breq .L99
 2077 081a 7E01      		movw r14,r28
 2078 081c 0894      		sec
 2079 081e E11C      		adc r14,__zero_reg__
 2080 0820 F11C      		adc r15,__zero_reg__
 2081               	.LM210:
 2082 0822 8F01      		movw r16,r30
 2083               	.LVL232:
 2084               	.L101:
 2085               	.LM211:
 2086 0824 61E0      		ldi r22,lo8(1)
 2087 0826 C701      		movw r24,r14
 2088               	.LVL233:
 2089 0828 0E94 0000 		call rf12_txdata
 2090               	.LM212:
 2091 082c 0F5F      		subi r16,lo8(-(1))
 2092 082e 1F4F      		sbci r17,hi8(-(1))
 2093               	.LBB347:
 2094               	.LM213:
 2095 0830 F801      		movw r30,r16
 2096               	/* #APP */
 2097 0832 8491      		lpm r24, Z
 2098               		
 2099               	.LVL234:
 2100               	/* #NOAPP */
 2101               	.LBE347:
 2102 0834 8983      		std Y+1,r24
 2103               	.LVL235:
 2104 0836 8823      		tst r24
 2105 0838 01F4      		brne .L101
 2106               	.LVL236:
 2107               	.L99:
 2108               	.LBE345:
 2109               	.LBE344:
 2110               	.LM214:
 2111 083a E0E0      		ldi r30,lo8(text)
 2112 083c F0E0      		ldi r31,hi8(text)
 2113 083e DF01      		movw r26,r30
 2114 0840 0D90      		ld __tmp_reg__,X+
 2115 0842 0020      		tst __tmp_reg__
 2116 0844 01F4      		brne .-6
 2117 0846 1197      		sbiw r26,1
 2118 0848 AE1B      		sub r26,r30
 2119 084a BF0B      		sbc r27,r31
 2120 084c 6A2F      		mov r22,r26
 2121 084e CF01      		movw r24,r30
 2122               	.LVL237:
 2123 0850 0E94 0000 		call rf12_txdata
 2124               	.LBB348:
 2125               	.LBB349:
 2126               	.LBB350:
 2127               	.LM215:
 2128 0854 E0E0      		ldi r30,lo8(__c.1836)
 2129 0856 F0E0      		ldi r31,hi8(__c.1836)
 2130               	.LM216:
 2131               	/* #APP */
 2132 0858 8491      		lpm r24, Z
 2133               		
 2134               	.LVL238:
 2135               	/* #NOAPP */
 2136               	.LBE350:
 2137 085a 8983      		std Y+1,r24
 2138               	.LVL239:
 2139 085c 8823      		tst r24
 2140 085e 01F0      		breq .L102
 2141 0860 7E01      		movw r14,r28
 2142 0862 0894      		sec
 2143 0864 E11C      		adc r14,__zero_reg__
 2144 0866 F11C      		adc r15,__zero_reg__
 2145               	.LM217:
 2146 0868 8F01      		movw r16,r30
 2147               	.LVL240:
 2148               	.L104:
 2149               	.LM218:
 2150 086a 61E0      		ldi r22,lo8(1)
 2151 086c C701      		movw r24,r14
 2152               	.LVL241:
 2153 086e 0E94 0000 		call rf12_txdata
 2154               	.LM219:
 2155 0872 0F5F      		subi r16,lo8(-(1))
 2156 0874 1F4F      		sbci r17,hi8(-(1))
 2157               	.LBB351:
 2158               	.LM220:
 2159 0876 F801      		movw r30,r16
 2160               	/* #APP */
 2161 0878 8491      		lpm r24, Z
 2162               		
 2163               	.LVL242:
 2164               	/* #NOAPP */
 2165               	.LBE351:
 2166 087a 8983      		std Y+1,r24
 2167               	.LVL243:
 2168 087c 8823      		tst r24
 2169 087e 01F4      		brne .L104
 2170               	.LVL244:
 2171               	.L102:
 2172               	.LBE349:
 2173               	.LBE348:
 2174               	.LBB352:
 2175               	.LBB353:
 2176               	.LBB354:
 2177 0880 E0E0      		ldi r30,lo8(Str_CR)
 2178 0882 F0E0      		ldi r31,hi8(Str_CR)
 2179               	.LVL245:
 2180               	/* #APP */
 2181 0884 8491      		lpm r24, Z
 2182               		
 2183               	.LVL246:
 2184               	/* #NOAPP */
 2185               	.LBE354:
 2186 0886 8983      		std Y+1,r24
 2187               	.LVL247:
 2188 0888 8823      		tst r24
 2189 088a 01F0      		breq .L105
 2190 088c 7E01      		movw r14,r28
 2191 088e 0894      		sec
 2192 0890 E11C      		adc r14,__zero_reg__
 2193 0892 F11C      		adc r15,__zero_reg__
 2194 0894 8F01      		movw r16,r30
 2195               	.LVL248:
 2196               	.L107:
 2197               	.LM221:
 2198 0896 61E0      		ldi r22,lo8(1)
 2199 0898 C701      		movw r24,r14
 2200               	.LVL249:
 2201 089a 0E94 0000 		call rf12_txdata
 2202               	.LVL250:
 2203               	.LM222:
 2204 089e 0F5F      		subi r16,lo8(-(1))
 2205 08a0 1F4F      		sbci r17,hi8(-(1))
 2206               	.LBB355:
 2207               	.LM223:
 2208 08a2 F801      		movw r30,r16
 2209               	/* #APP */
 2210 08a4 8491      		lpm r24, Z
 2211               		
 2212               	.LVL251:
 2213               	/* #NOAPP */
 2214               	.LBE355:
 2215 08a6 8983      		std Y+1,r24
 2216               	.LVL252:
 2217 08a8 8823      		tst r24
 2218 08aa 01F4      		brne .L107
 2219               	.LVL253:
 2220               	.L105:
 2221               	.LBE353:
 2222               	.LBE352:
 2223               	.LBB356:
 2224               	.LBB246:
 2225               	.LBB244:
 2226 08ac E0E0      		ldi r30,lo8(Str_BOT)
 2227 08ae F0E0      		ldi r31,hi8(Str_BOT)
 2228               	.LVL254:
 2229               	/* #APP */
 2230 08b0 8491      		lpm r24, Z
 2231               		
 2232               	.LVL255:
 2233               	/* #NOAPP */
 2234               	.LBE244:
 2235 08b2 8823      		tst r24
 2236 08b4 01F4      		brne .+2
 2237 08b6 00C0      		rjmp .L219
 2238 08b8 8983      		std Y+1,r24
 2239               	.LVL256:
 2240 08ba 7E01      		movw r14,r28
 2241 08bc 0894      		sec
 2242 08be E11C      		adc r14,__zero_reg__
 2243 08c0 F11C      		adc r15,__zero_reg__
 2244 08c2 8F01      		movw r16,r30
 2245               	.LVL257:
 2246               	.L109:
 2247               	.LM224:
 2248 08c4 61E0      		ldi r22,lo8(1)
 2249 08c6 C701      		movw r24,r14
 2250               	.LVL258:
 2251 08c8 0E94 0000 		call rf12_txdata
 2252               	.LM225:
 2253 08cc 0F5F      		subi r16,lo8(-(1))
 2254 08ce 1F4F      		sbci r17,hi8(-(1))
 2255               	.LBB245:
 2256               	.LM226:
 2257 08d0 F801      		movw r30,r16
 2258               	/* #APP */
 2259 08d2 8491      		lpm r24, Z
 2260               		
 2261               	.LVL259:
 2262               	/* #NOAPP */
 2263               	.LBE245:
 2264 08d4 8983      		std Y+1,r24
 2265               	.LVL260:
 2266 08d6 8823      		tst r24
 2267 08d8 01F4      		brne .L109
 2268 08da 00C0      		rjmp .L219
 2269               	.LVL261:
 2270               	.L72:
 2271               	.LBE246:
 2272               	.LBE356:
 2273               	.LBB357:
 2274               	.LBB358:
 2275               	.LBB359:
 2276               	.LM227:
 2277 08dc E0E0      		ldi r30,lo8(__c.1858)
 2278 08de F0E0      		ldi r31,hi8(__c.1858)
 2279               	.LM228:
 2280               	/* #APP */
 2281 08e0 8491      		lpm r24, Z
 2282               		
 2283               	.LVL262:
 2284               	/* #NOAPP */
 2285               	.LBE359:
 2286 08e2 8983      		std Y+1,r24
 2287               	.LVL263:
 2288 08e4 8823      		tst r24
 2289 08e6 01F0      		breq .L86
 2290               	.LBE358:
 2291               	.LBE357:
 2292               	.LBB362:
 2293               	.LBB320:
 2294 08e8 7E01      		movw r14,r28
 2295 08ea 0894      		sec
 2296 08ec E11C      		adc r14,__zero_reg__
 2297 08ee F11C      		adc r15,__zero_reg__
 2298               	.LM229:
 2299 08f0 8F01      		movw r16,r30
 2300               	.LVL264:
 2301               	.L164:
 2302               	.LBE320:
 2303               	.LBE362:
 2304               	.LBB363:
 2305               	.LBB361:
 2306               	.LM230:
 2307 08f2 61E0      		ldi r22,lo8(1)
 2308 08f4 C701      		movw r24,r14
 2309               	.LVL265:
 2310 08f6 0E94 0000 		call rf12_txdata
 2311               	.LM231:
 2312 08fa 0F5F      		subi r16,lo8(-(1))
 2313 08fc 1F4F      		sbci r17,hi8(-(1))
 2314               	.LBB360:
 2315               	.LM232:
 2316 08fe F801      		movw r30,r16
 2317               	/* #APP */
 2318 0900 8491      		lpm r24, Z
 2319               		
 2320               	.LVL266:
 2321               	/* #NOAPP */
 2322               	.LBE360:
 2323 0902 8983      		std Y+1,r24
 2324               	.LVL267:
 2325 0904 8823      		tst r24
 2326 0906 01F4      		brne .L164
 2327               	.L86:
 2328               	.LBE361:
 2329               	.LBE363:
 2330               	.LBB364:
 2331               	.LBB365:
 2332               	.LBB366:
 2333               	.LM233:
 2334 0908 E0E0      		ldi r30,lo8(__c.1860)
 2335 090a F0E0      		ldi r31,hi8(__c.1860)
 2336               	.LM234:
 2337               	/* #APP */
 2338 090c 8491      		lpm r24, Z
 2339               		
 2340               	.LVL268:
 2341               	/* #NOAPP */
 2342               	.LBE366:
 2343 090e 8983      		std Y+1,r24
 2344               	.LVL269:
 2345 0910 8823      		tst r24
 2346 0912 01F0      		breq .L165
 2347 0914 7E01      		movw r14,r28
 2348 0916 0894      		sec
 2349 0918 E11C      		adc r14,__zero_reg__
 2350 091a F11C      		adc r15,__zero_reg__
 2351               	.LM235:
 2352 091c 8F01      		movw r16,r30
 2353               	.LVL270:
 2354               	.L167:
 2355               	.LM236:
 2356 091e 61E0      		ldi r22,lo8(1)
 2357 0920 C701      		movw r24,r14
 2358               	.LVL271:
 2359 0922 0E94 0000 		call rf12_txdata
 2360               	.LM237:
 2361 0926 0F5F      		subi r16,lo8(-(1))
 2362 0928 1F4F      		sbci r17,hi8(-(1))
 2363               	.LBB367:
 2364               	.LM238:
 2365 092a F801      		movw r30,r16
 2366               	/* #APP */
 2367 092c 8491      		lpm r24, Z
 2368               		
 2369               	.LVL272:
 2370               	/* #NOAPP */
 2371               	.LBE367:
 2372 092e 8983      		std Y+1,r24
 2373               	.LVL273:
 2374 0930 8823      		tst r24
 2375 0932 01F4      		brne .L167
 2376               	.LVL274:
 2377               	.L165:
 2378               	.LBE365:
 2379               	.LBE364:
 2380               	.LBB368:
 2381               	.LBB369:
 2382               	.LBB370:
 2383               	.LM239:
 2384 0934 E0E0      		ldi r30,lo8(__c.1862)
 2385 0936 F0E0      		ldi r31,hi8(__c.1862)
 2386               	.LM240:
 2387               	/* #APP */
 2388 0938 8491      		lpm r24, Z
 2389               		
 2390               	.LVL275:
 2391               	/* #NOAPP */
 2392               	.LBE370:
 2393 093a 8983      		std Y+1,r24
 2394               	.LVL276:
 2395 093c 8823      		tst r24
 2396 093e 01F0      		breq .L168
 2397 0940 7E01      		movw r14,r28
 2398 0942 0894      		sec
 2399 0944 E11C      		adc r14,__zero_reg__
 2400 0946 F11C      		adc r15,__zero_reg__
 2401               	.LM241:
 2402 0948 8F01      		movw r16,r30
 2403               	.LVL277:
 2404               	.L170:
 2405               	.LM242:
 2406 094a 61E0      		ldi r22,lo8(1)
 2407 094c C701      		movw r24,r14
 2408               	.LVL278:
 2409 094e 0E94 0000 		call rf12_txdata
 2410               	.LM243:
 2411 0952 0F5F      		subi r16,lo8(-(1))
 2412 0954 1F4F      		sbci r17,hi8(-(1))
 2413               	.LBB371:
 2414               	.LM244:
 2415 0956 F801      		movw r30,r16
 2416               	/* #APP */
 2417 0958 8491      		lpm r24, Z
 2418               		
 2419               	.LVL279:
 2420               	/* #NOAPP */
 2421               	.LBE371:
 2422 095a 8983      		std Y+1,r24
 2423               	.LVL280:
 2424 095c 8823      		tst r24
 2425 095e 01F4      		brne .L170
 2426               	.LVL281:
 2427               	.L168:
 2428               	.LBE369:
 2429               	.LBE368:
 2430               	.LBB372:
 2431               	.LBB373:
 2432               	.LBB374:
 2433               	.LM245:
 2434 0960 E0E0      		ldi r30,lo8(__c.1864)
 2435 0962 F0E0      		ldi r31,hi8(__c.1864)
 2436               	.LM246:
 2437               	/* #APP */
 2438 0964 8491      		lpm r24, Z
 2439               		
 2440               	.LVL282:
 2441               	/* #NOAPP */
 2442               	.LBE374:
 2443 0966 8983      		std Y+1,r24
 2444               	.LVL283:
 2445 0968 8823      		tst r24
 2446 096a 01F0      		breq .L171
 2447 096c 7E01      		movw r14,r28
 2448 096e 0894      		sec
 2449 0970 E11C      		adc r14,__zero_reg__
 2450 0972 F11C      		adc r15,__zero_reg__
 2451               	.LM247:
 2452 0974 8F01      		movw r16,r30
 2453               	.LVL284:
 2454               	.L173:
 2455               	.LM248:
 2456 0976 61E0      		ldi r22,lo8(1)
 2457 0978 C701      		movw r24,r14
 2458               	.LVL285:
 2459 097a 0E94 0000 		call rf12_txdata
 2460               	.LM249:
 2461 097e 0F5F      		subi r16,lo8(-(1))
 2462 0980 1F4F      		sbci r17,hi8(-(1))
 2463               	.LBB375:
 2464               	.LM250:
 2465 0982 F801      		movw r30,r16
 2466               	/* #APP */
 2467 0984 8491      		lpm r24, Z
 2468               		
 2469               	.LVL286:
 2470               	/* #NOAPP */
 2471               	.LBE375:
 2472 0986 8983      		std Y+1,r24
 2473               	.LVL287:
 2474 0988 8823      		tst r24
 2475 098a 01F4      		brne .L173
 2476               	.LVL288:
 2477               	.L171:
 2478               	.LBE373:
 2479               	.LBE372:
 2480               	.LBB376:
 2481               	.LBB377:
 2482               	.LBB378:
 2483               	.LM251:
 2484 098c E0E0      		ldi r30,lo8(__c.1866)
 2485 098e F0E0      		ldi r31,hi8(__c.1866)
 2486               	.LM252:
 2487               	/* #APP */
 2488 0990 8491      		lpm r24, Z
 2489               		
 2490               	.LVL289:
 2491               	/* #NOAPP */
 2492               	.LBE378:
 2493 0992 8983      		std Y+1,r24
 2494               	.LVL290:
 2495 0994 8823      		tst r24
 2496 0996 01F0      		breq .L174
 2497 0998 7E01      		movw r14,r28
 2498 099a 0894      		sec
 2499 099c E11C      		adc r14,__zero_reg__
 2500 099e F11C      		adc r15,__zero_reg__
 2501               	.LM253:
 2502 09a0 8F01      		movw r16,r30
 2503               	.LVL291:
 2504               	.L176:
 2505               	.LM254:
 2506 09a2 61E0      		ldi r22,lo8(1)
 2507 09a4 C701      		movw r24,r14
 2508               	.LVL292:
 2509 09a6 0E94 0000 		call rf12_txdata
 2510               	.LM255:
 2511 09aa 0F5F      		subi r16,lo8(-(1))
 2512 09ac 1F4F      		sbci r17,hi8(-(1))
 2513               	.LBB379:
 2514               	.LM256:
 2515 09ae F801      		movw r30,r16
 2516               	/* #APP */
 2517 09b0 8491      		lpm r24, Z
 2518               		
 2519               	.LVL293:
 2520               	/* #NOAPP */
 2521               	.LBE379:
 2522 09b2 8983      		std Y+1,r24
 2523               	.LVL294:
 2524 09b4 8823      		tst r24
 2525 09b6 01F4      		brne .L176
 2526               	.LVL295:
 2527               	.L174:
 2528               	.LBE377:
 2529               	.LBE376:
 2530               	.LBB380:
 2531               	.LBB330:
 2532               	.LBB328:
 2533 09b8 E0E0      		ldi r30,lo8(Str_BOT)
 2534 09ba F0E0      		ldi r31,hi8(Str_BOT)
 2535               	/* #APP */
 2536 09bc 8491      		lpm r24, Z
 2537               		
 2538               	.LVL296:
 2539               	/* #NOAPP */
 2540               	.LBE328:
 2541 09be 8823      		tst r24
 2542 09c0 01F4      		brne .+2
 2543 09c2 00C0      		rjmp .L219
 2544 09c4 8983      		std Y+1,r24
 2545               	.LVL297:
 2546 09c6 7E01      		movw r14,r28
 2547 09c8 0894      		sec
 2548 09ca E11C      		adc r14,__zero_reg__
 2549 09cc F11C      		adc r15,__zero_reg__
 2550 09ce 8F01      		movw r16,r30
 2551               	.LVL298:
 2552               	.L178:
 2553               	.LM257:
 2554 09d0 61E0      		ldi r22,lo8(1)
 2555 09d2 C701      		movw r24,r14
 2556               	.LVL299:
 2557 09d4 0E94 0000 		call rf12_txdata
 2558               	.LM258:
 2559 09d8 0F5F      		subi r16,lo8(-(1))
 2560 09da 1F4F      		sbci r17,hi8(-(1))
 2561               	.LBB329:
 2562               	.LM259:
 2563 09dc F801      		movw r30,r16
 2564               	/* #APP */
 2565 09de 8491      		lpm r24, Z
 2566               		
 2567               	.LVL300:
 2568               	/* #NOAPP */
 2569               	.LBE329:
 2570 09e0 8983      		std Y+1,r24
 2571               	.LVL301:
 2572 09e2 8823      		tst r24
 2573 09e4 01F4      		brne .L178
 2574 09e6 00C0      		rjmp .L219
 2575               	.LVL302:
 2576               	.L76:
 2577               	.LBE330:
 2578               	.LBE380:
 2579               	.LBB381:
 2580               	.LBB382:
 2581               	.LBB383:
 2582               	.LM260:
 2583 09e8 E0E0      		ldi r30,lo8(__c.1883)
 2584 09ea F0E0      		ldi r31,hi8(__c.1883)
 2585               	.LM261:
 2586               	/* #APP */
 2587 09ec 8491      		lpm r24, Z
 2588               		
 2589               	.LVL303:
 2590               	/* #NOAPP */
 2591               	.LBE383:
 2592 09ee 8983      		std Y+1,r24
 2593               	.LVL304:
 2594 09f0 8823      		tst r24
 2595 09f2 01F0      		breq .L94
 2596               	.LBE382:
 2597               	.LBE381:
 2598               	.LBB386:
 2599               	.LBB204:
 2600 09f4 7E01      		movw r14,r28
 2601 09f6 0894      		sec
 2602 09f8 E11C      		adc r14,__zero_reg__
 2603 09fa F11C      		adc r15,__zero_reg__
 2604               	.LM262:
 2605 09fc 8F01      		movw r16,r30
 2606               	.LVL305:
 2607               	.L191:
 2608               	.LBE204:
 2609               	.LBE386:
 2610               	.LBB387:
 2611               	.LBB385:
 2612               	.LM263:
 2613 09fe 61E0      		ldi r22,lo8(1)
 2614 0a00 C701      		movw r24,r14
 2615               	.LVL306:
 2616 0a02 0E94 0000 		call rf12_txdata
 2617               	.LM264:
 2618 0a06 0F5F      		subi r16,lo8(-(1))
 2619 0a08 1F4F      		sbci r17,hi8(-(1))
 2620               	.LBB384:
 2621               	.LM265:
 2622 0a0a F801      		movw r30,r16
 2623               	/* #APP */
 2624 0a0c 8491      		lpm r24, Z
 2625               		
 2626               	.LVL307:
 2627               	/* #NOAPP */
 2628               	.LBE384:
 2629 0a0e 8983      		std Y+1,r24
 2630               	.LVL308:
 2631 0a10 8823      		tst r24
 2632 0a12 01F4      		brne .L191
 2633               	.L94:
 2634               	.LBE385:
 2635               	.LBE387:
 2636               	.LBB388:
 2637               	.LBB389:
 2638               	.LBB390:
 2639               	.LM266:
 2640 0a14 E0E0      		ldi r30,lo8(__c.1885)
 2641 0a16 F0E0      		ldi r31,hi8(__c.1885)
 2642               	.LM267:
 2643               	/* #APP */
 2644 0a18 8491      		lpm r24, Z
 2645               		
 2646               	.LVL309:
 2647               	/* #NOAPP */
 2648               	.LBE390:
 2649 0a1a 8983      		std Y+1,r24
 2650               	.LVL310:
 2651 0a1c 8823      		tst r24
 2652 0a1e 01F0      		breq .L192
 2653 0a20 7E01      		movw r14,r28
 2654 0a22 0894      		sec
 2655 0a24 E11C      		adc r14,__zero_reg__
 2656 0a26 F11C      		adc r15,__zero_reg__
 2657               	.LM268:
 2658 0a28 8F01      		movw r16,r30
 2659               	.LVL311:
 2660               	.L194:
 2661               	.LM269:
 2662 0a2a 61E0      		ldi r22,lo8(1)
 2663 0a2c C701      		movw r24,r14
 2664               	.LVL312:
 2665 0a2e 0E94 0000 		call rf12_txdata
 2666               	.LM270:
 2667 0a32 0F5F      		subi r16,lo8(-(1))
 2668 0a34 1F4F      		sbci r17,hi8(-(1))
 2669               	.LBB391:
 2670               	.LM271:
 2671 0a36 F801      		movw r30,r16
 2672               	/* #APP */
 2673 0a38 8491      		lpm r24, Z
 2674               		
 2675               	.LVL313:
 2676               	/* #NOAPP */
 2677               	.LBE391:
 2678 0a3a 8983      		std Y+1,r24
 2679               	.LVL314:
 2680 0a3c 8823      		tst r24
 2681 0a3e 01F4      		brne .L194
 2682               	.LVL315:
 2683               	.L192:
 2684               	.LBE389:
 2685               	.LBE388:
 2686               	.LBB392:
 2687               	.LBB393:
 2688               	.LBB394:
 2689               	.LM272:
 2690 0a40 E0E0      		ldi r30,lo8(__c.1887)
 2691 0a42 F0E0      		ldi r31,hi8(__c.1887)
 2692               	.LM273:
 2693               	/* #APP */
 2694 0a44 8491      		lpm r24, Z
 2695               		
 2696               	.LVL316:
 2697               	/* #NOAPP */
 2698               	.LBE394:
 2699 0a46 8983      		std Y+1,r24
 2700               	.LVL317:
 2701 0a48 8823      		tst r24
 2702 0a4a 01F0      		breq .L195
 2703 0a4c 7E01      		movw r14,r28
 2704 0a4e 0894      		sec
 2705 0a50 E11C      		adc r14,__zero_reg__
 2706 0a52 F11C      		adc r15,__zero_reg__
 2707               	.LM274:
 2708 0a54 8F01      		movw r16,r30
 2709               	.LVL318:
 2710               	.L197:
 2711               	.LM275:
 2712 0a56 61E0      		ldi r22,lo8(1)
 2713 0a58 C701      		movw r24,r14
 2714               	.LVL319:
 2715 0a5a 0E94 0000 		call rf12_txdata
 2716               	.LM276:
 2717 0a5e 0F5F      		subi r16,lo8(-(1))
 2718 0a60 1F4F      		sbci r17,hi8(-(1))
 2719               	.LBB395:
 2720               	.LM277:
 2721 0a62 F801      		movw r30,r16
 2722               	/* #APP */
 2723 0a64 8491      		lpm r24, Z
 2724               		
 2725               	.LVL320:
 2726               	/* #NOAPP */
 2727               	.LBE395:
 2728 0a66 8983      		std Y+1,r24
 2729               	.LVL321:
 2730 0a68 8823      		tst r24
 2731 0a6a 01F4      		brne .L197
 2732               	.LVL322:
 2733               	.L195:
 2734               	.LBE393:
 2735               	.LBE392:
 2736               	.LBB396:
 2737               	.LBB397:
 2738               	.LBB398:
 2739               	.LM278:
 2740 0a6c E0E0      		ldi r30,lo8(__c.1889)
 2741 0a6e F0E0      		ldi r31,hi8(__c.1889)
 2742               	.LM279:
 2743               	/* #APP */
 2744 0a70 8491      		lpm r24, Z
 2745               		
 2746               	.LVL323:
 2747               	/* #NOAPP */
 2748               	.LBE398:
 2749 0a72 8983      		std Y+1,r24
 2750               	.LVL324:
 2751 0a74 8823      		tst r24
 2752 0a76 01F0      		breq .L198
 2753 0a78 7E01      		movw r14,r28
 2754 0a7a 0894      		sec
 2755 0a7c E11C      		adc r14,__zero_reg__
 2756 0a7e F11C      		adc r15,__zero_reg__
 2757               	.LM280:
 2758 0a80 8F01      		movw r16,r30
 2759               	.LVL325:
 2760               	.L200:
 2761               	.LM281:
 2762 0a82 61E0      		ldi r22,lo8(1)
 2763 0a84 C701      		movw r24,r14
 2764               	.LVL326:
 2765 0a86 0E94 0000 		call rf12_txdata
 2766               	.LM282:
 2767 0a8a 0F5F      		subi r16,lo8(-(1))
 2768 0a8c 1F4F      		sbci r17,hi8(-(1))
 2769               	.LBB399:
 2770               	.LM283:
 2771 0a8e F801      		movw r30,r16
 2772               	/* #APP */
 2773 0a90 8491      		lpm r24, Z
 2774               		
 2775               	.LVL327:
 2776               	/* #NOAPP */
 2777               	.LBE399:
 2778 0a92 8983      		std Y+1,r24
 2779               	.LVL328:
 2780 0a94 8823      		tst r24
 2781 0a96 01F4      		brne .L200
 2782               	.LVL329:
 2783               	.L198:
 2784               	.LBE397:
 2785               	.LBE396:
 2786               	.LBB400:
 2787               	.LBB401:
 2788               	.LBB402:
 2789               	.LM284:
 2790 0a98 E0E0      		ldi r30,lo8(__c.1891)
 2791 0a9a F0E0      		ldi r31,hi8(__c.1891)
 2792               	.LM285:
 2793               	/* #APP */
 2794 0a9c 8491      		lpm r24, Z
 2795               		
 2796               	.LVL330:
 2797               	/* #NOAPP */
 2798               	.LBE402:
 2799 0a9e 8983      		std Y+1,r24
 2800               	.LVL331:
 2801 0aa0 8823      		tst r24
 2802 0aa2 01F0      		breq .L201
 2803 0aa4 7E01      		movw r14,r28
 2804 0aa6 0894      		sec
 2805 0aa8 E11C      		adc r14,__zero_reg__
 2806 0aaa F11C      		adc r15,__zero_reg__
 2807               	.LM286:
 2808 0aac 8F01      		movw r16,r30
 2809               	.LVL332:
 2810               	.L203:
 2811               	.LM287:
 2812 0aae 61E0      		ldi r22,lo8(1)
 2813 0ab0 C701      		movw r24,r14
 2814               	.LVL333:
 2815 0ab2 0E94 0000 		call rf12_txdata
 2816               	.LM288:
 2817 0ab6 0F5F      		subi r16,lo8(-(1))
 2818 0ab8 1F4F      		sbci r17,hi8(-(1))
 2819               	.LBB403:
 2820               	.LM289:
 2821 0aba F801      		movw r30,r16
 2822               	/* #APP */
 2823 0abc 8491      		lpm r24, Z
 2824               		
 2825               	.LVL334:
 2826               	/* #NOAPP */
 2827               	.LBE403:
 2828 0abe 8983      		std Y+1,r24
 2829               	.LVL335:
 2830 0ac0 8823      		tst r24
 2831 0ac2 01F4      		brne .L203
 2832               	.LVL336:
 2833               	.L201:
 2834               	.LBE401:
 2835               	.LBE400:
 2836               	.LBB404:
 2837               	.LBB405:
 2838               	.LBB406:
 2839               	.LM290:
 2840 0ac4 E0E0      		ldi r30,lo8(__c.1893)
 2841 0ac6 F0E0      		ldi r31,hi8(__c.1893)
 2842               	.LM291:
 2843               	/* #APP */
 2844 0ac8 8491      		lpm r24, Z
 2845               		
 2846               	.LVL337:
 2847               	/* #NOAPP */
 2848               	.LBE406:
 2849 0aca 8983      		std Y+1,r24
 2850               	.LVL338:
 2851 0acc 8823      		tst r24
 2852 0ace 01F0      		breq .L204
 2853 0ad0 7E01      		movw r14,r28
 2854 0ad2 0894      		sec
 2855 0ad4 E11C      		adc r14,__zero_reg__
 2856 0ad6 F11C      		adc r15,__zero_reg__
 2857               	.LM292:
 2858 0ad8 8F01      		movw r16,r30
 2859               	.LVL339:
 2860               	.L206:
 2861               	.LM293:
 2862 0ada 61E0      		ldi r22,lo8(1)
 2863 0adc C701      		movw r24,r14
 2864               	.LVL340:
 2865 0ade 0E94 0000 		call rf12_txdata
 2866               	.LM294:
 2867 0ae2 0F5F      		subi r16,lo8(-(1))
 2868 0ae4 1F4F      		sbci r17,hi8(-(1))
 2869               	.LBB407:
 2870               	.LM295:
 2871 0ae6 F801      		movw r30,r16
 2872               	/* #APP */
 2873 0ae8 8491      		lpm r24, Z
 2874               		
 2875               	.LVL341:
 2876               	/* #NOAPP */
 2877               	.LBE407:
 2878 0aea 8983      		std Y+1,r24
 2879               	.LVL342:
 2880 0aec 8823      		tst r24
 2881 0aee 01F4      		brne .L206
 2882               	.LVL343:
 2883               	.L204:
 2884               	.LBE405:
 2885               	.LBE404:
 2886               	.LBB408:
 2887               	.LBB409:
 2888               	.LBB410:
 2889               	.LM296:
 2890 0af0 E0E0      		ldi r30,lo8(__c.1895)
 2891 0af2 F0E0      		ldi r31,hi8(__c.1895)
 2892               	.LM297:
 2893               	/* #APP */
 2894 0af4 8491      		lpm r24, Z
 2895               		
 2896               	.LVL344:
 2897               	/* #NOAPP */
 2898               	.LBE410:
 2899 0af6 8983      		std Y+1,r24
 2900               	.LVL345:
 2901 0af8 8823      		tst r24
 2902 0afa 01F0      		breq .L207
 2903 0afc 7E01      		movw r14,r28
 2904 0afe 0894      		sec
 2905 0b00 E11C      		adc r14,__zero_reg__
 2906 0b02 F11C      		adc r15,__zero_reg__
 2907               	.LM298:
 2908 0b04 8F01      		movw r16,r30
 2909               	.LVL346:
 2910               	.L209:
 2911               	.LM299:
 2912 0b06 61E0      		ldi r22,lo8(1)
 2913 0b08 C701      		movw r24,r14
 2914               	.LVL347:
 2915 0b0a 0E94 0000 		call rf12_txdata
 2916               	.LM300:
 2917 0b0e 0F5F      		subi r16,lo8(-(1))
 2918 0b10 1F4F      		sbci r17,hi8(-(1))
 2919               	.LBB411:
 2920               	.LM301:
 2921 0b12 F801      		movw r30,r16
 2922               	/* #APP */
 2923 0b14 8491      		lpm r24, Z
 2924               		
 2925               	.LVL348:
 2926               	/* #NOAPP */
 2927               	.LBE411:
 2928 0b16 8983      		std Y+1,r24
 2929               	.LVL349:
 2930 0b18 8823      		tst r24
 2931 0b1a 01F4      		brne .L209
 2932               	.LVL350:
 2933               	.L207:
 2934               	.LBE409:
 2935               	.LBE408:
 2936               	.LBB412:
 2937               	.LBB234:
 2938               	.LBB232:
 2939 0b1c E0E0      		ldi r30,lo8(Str_BOT)
 2940 0b1e F0E0      		ldi r31,hi8(Str_BOT)
 2941               	/* #APP */
 2942 0b20 8491      		lpm r24, Z
 2943               		
 2944               	.LVL351:
 2945               	/* #NOAPP */
 2946               	.LBE232:
 2947 0b22 8823      		tst r24
 2948 0b24 01F0      		breq .L219
 2949 0b26 8983      		std Y+1,r24
 2950               	.LVL352:
 2951 0b28 7E01      		movw r14,r28
 2952 0b2a 0894      		sec
 2953 0b2c E11C      		adc r14,__zero_reg__
 2954 0b2e F11C      		adc r15,__zero_reg__
 2955 0b30 8F01      		movw r16,r30
 2956               	.LVL353:
 2957               	.L211:
 2958               	.LM302:
 2959 0b32 61E0      		ldi r22,lo8(1)
 2960 0b34 C701      		movw r24,r14
 2961               	.LVL354:
 2962 0b36 0E94 0000 		call rf12_txdata
 2963               	.LM303:
 2964 0b3a 0F5F      		subi r16,lo8(-(1))
 2965 0b3c 1F4F      		sbci r17,hi8(-(1))
 2966               	.LBB233:
 2967               	.LM304:
 2968 0b3e F801      		movw r30,r16
 2969               	/* #APP */
 2970 0b40 8491      		lpm r24, Z
 2971               		
 2972               	.LVL355:
 2973               	/* #NOAPP */
 2974               	.LBE233:
 2975 0b42 8983      		std Y+1,r24
 2976               	.LVL356:
 2977 0b44 8823      		tst r24
 2978 0b46 01F4      		brne .L211
 2979               	.LVL357:
 2980               	.L219:
 2981               	.LBE234:
 2982               	.LBE412:
 2983               	/* epilogue: frame size=1 */
 2984 0b48 2196      		adiw r28,1
 2985 0b4a 0FB6      		in __tmp_reg__,__SREG__
 2986 0b4c F894      		cli
 2987 0b4e DEBF      		out __SP_H__,r29
 2988 0b50 0FBE      		out __SREG__,__tmp_reg__
 2989 0b52 CDBF      		out __SP_L__,r28
 2990 0b54 DF91      		pop r29
 2991 0b56 CF91      		pop r28
 2992 0b58 1F91      		pop r17
 2993 0b5a 0F91      		pop r16
 2994 0b5c FF90      		pop r15
 2995 0b5e EF90      		pop r14
 2996 0b60 DF90      		pop r13
 2997 0b62 CF90      		pop r12
 2998 0b64 0895      		ret
 2999               	/* epilogue end (size=15) */
 3000               	/* function command_prompt size 1476 (1445) */
 3001               	.LFE9:
 3003               	.global	ptext
 3004               		.data
 3007               	ptext:
 3008 0040 0000      		.word	text
 3009               	.global	command
 3010               	.global	command
 3011               		.section .bss
 3014               	command:
 3015 0000 00        		.skip 1,0
 3016               	.global	Str_CR
 3017               		.section	.progmem.data,"a",@progbits
 3020               	Str_CR:
 3021 0000 0D0A 00   		.string	"\r\n"
 3022               	.global	Str_BOT
 3025               	Str_BOT:
 3026 0003 424F 543A 		.string	"BOT:\\>"
 3026      5C3E 00
 3029               	__c.1909:
 3030 000a 0C20 4665 		.string	"\f Fehler in der Commandline!!\r\n"
 3030      686C 6572 
 3030      2069 6E20 
 3030      6465 7220 
 3030      436F 6D6D 
 3033               	__c.1898:
 3034 002a 0C00      		.string	"\f"
 3037               	__c.1895:
 3038 002c 202D 2044 		.string	" - Die Anzeige beendest du mit escape.\r\n"
 3038      6965 2041 
 3038      6E7A 6569 
 3038      6765 2062 
 3038      6565 6E64 
 3041               	__c.1893:
 3042 0055 202D 2064 		.string	" - debug reg      gebe ich dir aktuelle Reglerwerte aus.\r\n"
 3042      6562 7567 
 3042      2072 6567 
 3042      2020 2020 
 3042      2020 6765 
 3045               	__c.1891:
 3046 0090 202D 2064 		.string	" - debug enc      gebe ich die die aktuellen Encoderwerte aus.\r\n"
 3046      6562 7567 
 3046      2065 6E63 
 3046      2020 2020 
 3046      2020 6765 
 3049               	__c.1889:
 3050 00d1 202D 2064 		.string	" - debug cmd      gebe ich dir alle gesendete Zeichen aus.\r\n"
 3050      6562 7567 
 3050      2063 6D64 
 3050      2020 2020 
 3050      2020 6765 
 3053               	__c.1887:
 3054 010e 204D 6974 		.string	" Mit dem Befehl:\r\n"
 3054      2064 656D 
 3054      2042 6566 
 3054      6568 6C3A 
 3054      0D0A 00
 3057               	__c.1885:
 3058 0121 2049 6368 		.string	" Ich kann dir verschiedene DEBUGinfomationen ausgeben:\r\n"
 3058      206B 616E 
 3058      6E20 6469 
 3058      7220 7665 
 3058      7273 6368 
 3061               	__c.1883:
 3062 015a 0C20 2A2A 		.string	"\f *** DEBUG *** \r\n"
 3062      2A20 4445 
 3062      4255 4720 
 3062      2A2A 2A20 
 3062      0D0A 00
 3065               	__c.1880:
 3066 016d 204D 6974 		.string	" Mit Esc beendest du die Fahrt."
 3066      2045 7363 
 3066      2062 6565 
 3066      6E64 6573 
 3066      7420 6475 
 3069               	__c.1878:
 3070 018d 2049 6368 		.string	" Ich fahre ein wenig hin und her.\r\n"
 3070      2066 6168 
 3070      7265 2065 
 3070      696E 2077 
 3070      656E 6967 
 3073               	__c.1876:
 3074 01b1 0C20 2A2A 		.string	"\f *** DEMO *** \r\n"
 3074      2A20 4445 
 3074      4D4F 202A 
 3074      2A2A 200D 
 3074      0A00 
 3077               	__c.1873:
 3078 01c3 204D 6974 		.string	" Mit Esc beendest du die Fahrt."
 3078      2045 7363 
 3078      2062 6565 
 3078      6E64 6573 
 3078      7420 6475 
 3081               	__c.1871:
 3082 01e3 204D 6974 		.string	" Mit den Pfeiltasten kannst du mich nun steuern.\r\n"
 3082      2064 656E 
 3082      2050 6665 
 3082      696C 7461 
 3082      7374 656E 
 3085               	__c.1869:
 3086 0216 0C20 2A2A 		.string	"\f *** Gib Gas! ***\r\n"
 3086      2A20 4769 
 3086      6220 4761 
 3086      7321 202A 
 3086      2A2A 0D0A 
 3089               	__c.1866:
 3090 022b 2031 3256 		.string	" 12V\r\n"
 3090      0D0A 00
 3093               	__c.1864:
 3094 0232 2049 6368 		.string	" Ich fuehle mich gut und meine Akkuspannung betraegt noch:"
 3094      2066 7565 
 3094      686C 6520 
 3094      6D69 6368 
 3094      2067 7574 
 3097               	__c.1862:
 3098 026d 2075 6E74 		.string	" unterwegs.\r\n"
 3098      6572 7765 
 3098      6773 2E0D 
 3098      0A00 
 3101               	__c.1860:
 3102 027b 2049 6368 		.string	" Ich bin heute schon seit "
 3102      2062 696E 
 3102      2068 6575 
 3102      7465 2073 
 3102      6368 6F6E 
 3105               	__c.1858:
 3106 0296 0C20 2A2A 		.string	"\f *** Hi! ***\r\n"
 3106      2A20 4869 
 3106      2120 2A2A 
 3106      2A0D 0A00 
 3109               	__c.1855:
 3110 02a6 202D 2064 		.string	" - debug   Zeige ich dir Aktuelle Statusmeldungen."
 3110      6562 7567 
 3110      2020 205A 
 3110      6569 6765 
 3110      2069 6368 
 3113               	__c.1853:
 3114 02d9 202D 2064 		.string	" - demo    fahre ich ein wenig hin und her."
 3114      656D 6F20 
 3114      2020 2066 
 3114      6168 7265 
 3114      2069 6368 
 3117               	__c.1851:
 3118 0305 202D 206D 		.string	" - move    kannst du mich fahren lassen."
 3118      6F76 6520 
 3118      2020 206B 
 3118      616E 6E73 
 3118      7420 6475 
 3121               	__c.1849:
 3122 032e 202D 2063 		.string	" - cls     loescht du den Bildschirm."
 3122      6C73 2020 
 3122      2020 206C 
 3122      6F65 7363 
 3122      6874 2064 
 3125               	__c.1847:
 3126 0354 202D 2073 		.string	" - status  kannst du sehen, wie ich mich fuehle."
 3126      7461 7475 
 3126      7320 206B 
 3126      616E 6E73 
 3126      7420 6475 
 3129               	__c.1845:
 3130 0385 202D 203F 		.string	" - ?       Zeige ich die alle Befehle die ich verstehe."
 3130      2020 2020 
 3130      2020 205A 
 3130      6569 6765 
 3130      2069 6368 
 3133               	__c.1843:
 3134 03bd 204D 6974 		.string	" Mit dem Befehl:"
 3134      2064 656D 
 3134      2042 6566 
 3134      6568 6C3A 
 3134      00
 3137               	__c.1841:
 3138 03ce 2049 6368 		.string	" Ich bin ein kleiner Roboter. Was moechtest du mit mir machen?"
 3138      2062 696E 
 3138      2065 696E 
 3138      206B 6C65 
 3138      696E 6572 
 3141               	__c.1839:
 3142 040d 0C20 2A2A 		.string	"\f *** Hallo! ***"
 3142      2A20 4861 
 3142      6C6C 6F21 
 3142      202A 2A2A 
 3142      00
 3145               	__c.1836:
 3146 041e 2220 6569 		.string	"\" eingegeben. "
 3146      6E67 6567 
 3146      6562 656E 
 3146      2E20 00
 3149               	__c.1834:
 3150 042d 2044 7520 		.string	" Du hast \""
 3150      6861 7374 
 3150      2022 00
 3153               	__c.1832:
 3154 0438 0D0A 2044 		.string	"\r\n Diesen Befehl kenne ich nicht.\r\n"
 3154      6965 7365 
 3154      6E20 4265 
 3154      6665 686C 
 3154      206B 656E 
 3155               		.comm text,100,1
 3156               		.comm nText,1,1
 3213               	.Letext0:
DEFINED SYMBOLS
                            *ABS*:00000000 command.c
C:\DOKUME~1\Olaf\LOKALE~1\Temp/ccq5pod7.s:2      *ABS*:0000003f __SREG__
C:\DOKUME~1\Olaf\LOKALE~1\Temp/ccq5pod7.s:3      *ABS*:0000003e __SP_H__
C:\DOKUME~1\Olaf\LOKALE~1\Temp/ccq5pod7.s:4      *ABS*:0000003d __SP_L__
C:\DOKUME~1\Olaf\LOKALE~1\Temp/ccq5pod7.s:5      *ABS*:00000000 __tmp_reg__
C:\DOKUME~1\Olaf\LOKALE~1\Temp/ccq5pod7.s:6      *ABS*:00000001 __zero_reg__
C:\DOKUME~1\Olaf\LOKALE~1\Temp/ccq5pod7.s:19     .text:00000000 command_get
C:\DOKUME~1\Olaf\LOKALE~1\Temp/ccq5pod7.s:3014   .bss:00000000 command
C:\DOKUME~1\Olaf\LOKALE~1\Temp/ccq5pod7.s:35     .text:00000008 command_text
                            *COM*:00000064 text
C:\DOKUME~1\Olaf\LOKALE~1\Temp/ccq5pod7.s:51     .text:0000000e uart_puts_p
C:\DOKUME~1\Olaf\LOKALE~1\Temp/ccq5pod7.s:155    .text:0000006e command_put
                            *COM*:00000001 nText
C:\DOKUME~1\Olaf\LOKALE~1\Temp/ccq5pod7.s:3007   .data:00000040 ptext
C:\DOKUME~1\Olaf\LOKALE~1\Temp/ccq5pod7.s:416    .text:0000022a command_prompt
C:\DOKUME~1\Olaf\LOKALE~1\Temp/ccq5pod7.s:3073   .progmem.data:000001b1 __c.1876
C:\DOKUME~1\Olaf\LOKALE~1\Temp/ccq5pod7.s:3069   .progmem.data:0000018d __c.1878
C:\DOKUME~1\Olaf\LOKALE~1\Temp/ccq5pod7.s:3065   .progmem.data:0000016d __c.1880
C:\DOKUME~1\Olaf\LOKALE~1\Temp/ccq5pod7.s:3029   .progmem.data:0000000a __c.1909
C:\DOKUME~1\Olaf\LOKALE~1\Temp/ccq5pod7.s:3020   .progmem.data:00000000 Str_CR
C:\DOKUME~1\Olaf\LOKALE~1\Temp/ccq5pod7.s:3025   .progmem.data:00000003 Str_BOT
C:\DOKUME~1\Olaf\LOKALE~1\Temp/ccq5pod7.s:3033   .progmem.data:0000002a __c.1898
C:\DOKUME~1\Olaf\LOKALE~1\Temp/ccq5pod7.s:3141   .progmem.data:0000040d __c.1839
C:\DOKUME~1\Olaf\LOKALE~1\Temp/ccq5pod7.s:3137   .progmem.data:000003ce __c.1841
C:\DOKUME~1\Olaf\LOKALE~1\Temp/ccq5pod7.s:3133   .progmem.data:000003bd __c.1843
C:\DOKUME~1\Olaf\LOKALE~1\Temp/ccq5pod7.s:3129   .progmem.data:00000385 __c.1845
C:\DOKUME~1\Olaf\LOKALE~1\Temp/ccq5pod7.s:3125   .progmem.data:00000354 __c.1847
C:\DOKUME~1\Olaf\LOKALE~1\Temp/ccq5pod7.s:3121   .progmem.data:0000032e __c.1849
C:\DOKUME~1\Olaf\LOKALE~1\Temp/ccq5pod7.s:3117   .progmem.data:00000305 __c.1851
C:\DOKUME~1\Olaf\LOKALE~1\Temp/ccq5pod7.s:3113   .progmem.data:000002d9 __c.1853
C:\DOKUME~1\Olaf\LOKALE~1\Temp/ccq5pod7.s:3109   .progmem.data:000002a6 __c.1855
C:\DOKUME~1\Olaf\LOKALE~1\Temp/ccq5pod7.s:3085   .progmem.data:00000216 __c.1869
C:\DOKUME~1\Olaf\LOKALE~1\Temp/ccq5pod7.s:3081   .progmem.data:000001e3 __c.1871
C:\DOKUME~1\Olaf\LOKALE~1\Temp/ccq5pod7.s:3077   .progmem.data:000001c3 __c.1873
C:\DOKUME~1\Olaf\LOKALE~1\Temp/ccq5pod7.s:3153   .progmem.data:00000438 __c.1832
C:\DOKUME~1\Olaf\LOKALE~1\Temp/ccq5pod7.s:3149   .progmem.data:0000042d __c.1834
C:\DOKUME~1\Olaf\LOKALE~1\Temp/ccq5pod7.s:3145   .progmem.data:0000041e __c.1836
C:\DOKUME~1\Olaf\LOKALE~1\Temp/ccq5pod7.s:3105   .progmem.data:00000296 __c.1858
C:\DOKUME~1\Olaf\LOKALE~1\Temp/ccq5pod7.s:3101   .progmem.data:0000027b __c.1860
C:\DOKUME~1\Olaf\LOKALE~1\Temp/ccq5pod7.s:3097   .progmem.data:0000026d __c.1862
C:\DOKUME~1\Olaf\LOKALE~1\Temp/ccq5pod7.s:3093   .progmem.data:00000232 __c.1864
C:\DOKUME~1\Olaf\LOKALE~1\Temp/ccq5pod7.s:3089   .progmem.data:0000022b __c.1866
C:\DOKUME~1\Olaf\LOKALE~1\Temp/ccq5pod7.s:3061   .progmem.data:0000015a __c.1883
C:\DOKUME~1\Olaf\LOKALE~1\Temp/ccq5pod7.s:3057   .progmem.data:00000121 __c.1885
C:\DOKUME~1\Olaf\LOKALE~1\Temp/ccq5pod7.s:3053   .progmem.data:0000010e __c.1887
C:\DOKUME~1\Olaf\LOKALE~1\Temp/ccq5pod7.s:3049   .progmem.data:000000d1 __c.1889
C:\DOKUME~1\Olaf\LOKALE~1\Temp/ccq5pod7.s:3045   .progmem.data:00000090 __c.1891
C:\DOKUME~1\Olaf\LOKALE~1\Temp/ccq5pod7.s:3041   .progmem.data:00000055 __c.1893
C:\DOKUME~1\Olaf\LOKALE~1\Temp/ccq5pod7.s:3037   .progmem.data:0000002c __c.1895

UNDEFINED SYMBOLS
__do_copy_data
__do_clear_bss
rf12_txdata
rf12_rxdata
strcmp
