   1               		.file	"main.c"
   2               		.arch atmega16
   3               	__SREG__ = 0x3f
   4               	__SP_H__ = 0x3e
   5               	__SP_L__ = 0x3d
   6               	__tmp_reg__ = 0
   7               	__zero_reg__ = 1
   8               		.global __do_copy_data
   9               		.global __do_clear_bss
  17               	.Ltext0:
  18               	.global	rfm12_wrt_cmd
  20               	rfm12_wrt_cmd:
  21               	.LFB9:
  22               	.LM1:
  23               	/* prologue: frame size=0 */
  24 0000 EF92      		push r14
  25 0002 FF92      		push r15
  26 0004 0F93      		push r16
  27 0006 1F93      		push r17
  28               	/* prologue end (size=4) */
  29               	.LVL0:
  30 0008 8C01      		movw r16,r24
  31               	.LM2:
  32 000a C498      		cbi 56-0x20,4
  33               	.LM3:
  34 000c 892F      		mov r24,r25
  35 000e 9927      		clr r25
  36               	.LVL1:
  37 0010 0E94 0000 		call spi_putc
  38 0014 E82E      		mov r14,r24
  39               	.LVL2:
  40               	.LM4:
  41 0016 802F      		mov r24,r16
  42 0018 0E94 0000 		call spi_putc
  43               	.LM5:
  44 001c C49A      		sbi 56-0x20,4
  45 001e FF24      		clr r15
  46 0020 FE2C      		mov r15,r14
  47 0022 EE24      		clr r14
  48               	.LVL3:
  49               	.LM6:
  50 0024 E80E      		add r14,r24
  51 0026 F11C      		adc r15,__zero_reg__
  52 0028 C701      		movw r24,r14
  53               	/* epilogue: frame size=0 */
  54 002a 1F91      		pop r17
  55 002c 0F91      		pop r16
  56 002e FF90      		pop r15
  57 0030 EF90      		pop r14
  58 0032 0895      		ret
  59               	/* epilogue end (size=5) */
  60               	/* function rfm12_wrt_cmd size 26 (17) */
  61               	.LFE9:
  63               	.global	rfm12_readStatus
  65               	rfm12_readStatus:
  66               	.LFB8:
  67               	.LM7:
  68               	/* prologue: frame size=0 */
  69 0034 0F93      		push r16
  70 0036 1F93      		push r17
  71               	/* prologue end (size=2) */
  72               	.LM8:
  73 0038 C498      		cbi 56-0x20,4
  74               	.LM9:
  75 003a 80E0      		ldi r24,lo8(0)
  76 003c 0E94 0000 		call spi_putc
  77 0040 082F      		mov r16,r24
  78               	.LVL4:
  79               	.LM10:
  80 0042 80E0      		ldi r24,lo8(0)
  81 0044 0E94 0000 		call spi_putc
  82               	.LM11:
  83 0048 C49A      		sbi 56-0x20,4
  84 004a 1127      		clr r17
  85 004c 102F      		mov r17,r16
  86 004e 0027      		clr r16
  87               	.LVL5:
  88               	.LM12:
  89 0050 080F      		add r16,r24
  90 0052 111D      		adc r17,__zero_reg__
  91 0054 C801      		movw r24,r16
  92               	/* epilogue: frame size=0 */
  93 0056 1F91      		pop r17
  94 0058 0F91      		pop r16
  95 005a 0895      		ret
  96               	/* epilogue end (size=3) */
  97               	/* function rfm12_readStatus size 20 (15) */
  98               	.LFE8:
 100               	.global	rfm12_ready
 102               	rfm12_ready:
 103               	.LFB10:
 104               	.LM13:
 105               	/* prologue: frame size=0 */
 106 005c FF92      		push r15
 107 005e 0F93      		push r16
 108 0060 1F93      		push r17
 109               	/* prologue end (size=3) */
 110               	.LM14:
 111 0062 C498      		cbi 56-0x20,4
 112               	.LM15:
 113               	/* #APP */
 114 0064 0000      		nop
 115               	/* #NOAPP */
 116 0066 54E2      		ldi r21,lo8(36)
 117 0068 F52E      		mov r15,r21
 118 006a 00C0      		rjmp .L6
 119               	.L7:
 120               	.LBB14:
 121               	.LBB15:
 122               	.LBB16:
 123               	.LBB17:
 124               	.LM16:
 125 006c 8F2D      		mov r24,r15
 126               	.LVL6:
 127               	/* #APP */
 128 006e 8A95      		1: dec r24
 129 0070 01F4      		brne 1b
 130               	/* #NOAPP */
 131               	.L6:
 132               	.LBE17:
 133               	.LBE16:
 134               	.LBE15:
 135               	.LBE14:
 136               	.LBB18:
 137               	.LBB19:
 138               	.LM17:
 139 0072 C498      		cbi 56-0x20,4
 140               	.LBE19:
 141               	.LM18:
 142 0074 80E0      		ldi r24,lo8(0)
 143               	.LVL7:
 144 0076 0E94 0000 		call spi_putc
 145 007a 082F      		mov r16,r24
 146               	.LVL8:
 147               	.LM19:
 148 007c 80E0      		ldi r24,lo8(0)
 149 007e 0E94 0000 		call spi_putc
 150               	.LBB20:
 151               	.LM20:
 152 0082 C49A      		sbi 56-0x20,4
 153               	.LBE20:
 154               	.LBE18:
 155               	.LM21:
 156 0084 1127      		clr r17
 157 0086 102F      		mov r17,r16
 158 0088 0027      		clr r16
 159               	.LVL9:
 160 008a 080F      		add r16,r24
 161 008c 111D      		adc r17,__zero_reg__
 162 008e 17FF      		sbrs r17,7
 163 0090 00C0      		rjmp .L7
 164               	.LM22:
 165 0092 C49A      		sbi 56-0x20,4
 166               	/* epilogue: frame size=0 */
 167 0094 1F91      		pop r17
 168 0096 0F91      		pop r16
 169 0098 FF90      		pop r15
 170 009a 0895      		ret
 171               	/* epilogue end (size=4) */
 172               	/* function rfm12_ready size 35 (28) */
 173               	.LFE10:
 175               	.global	rfm12_rxdata
 177               	rfm12_rxdata:
 178               	.LFB12:
 179               	.LM23:
 180               	/* prologue: frame size=0 */
 181 009c DF92      		push r13
 182 009e EF92      		push r14
 183 00a0 FF92      		push r15
 184 00a2 0F93      		push r16
 185 00a4 1F93      		push r17
 186 00a6 CF93      		push r28
 187 00a8 DF93      		push r29
 188               	/* prologue end (size=7) */
 189               	.LVL10:
 190 00aa EC01      		movw r28,r24
 191 00ac D62E      		mov r13,r22
 192               	.LM24:
 193 00ae 6623      		tst r22
 194 00b0 01F0      		breq .L19
 195               	.LVL11:
 196               	.LM25:
 197 00b2 EE24      		clr r14
 198               	.LVL12:
 199               	.LVL13:
 200               	.L14:
 201               	.LBB31:
 202               	.LBB32:
 203               	.LM26:
 204 00b4 C498      		cbi 56-0x20,4
 205               	.LM27:
 206               	/* #APP */
 207 00b6 0000      		nop
 208               	/* #NOAPP */
 209 00b8 74E2      		ldi r23,lo8(36)
 210 00ba F72E      		mov r15,r23
 211 00bc 00C0      		rjmp .L15
 212               	.LVL14:
 213               	.L16:
 214               	.LBB33:
 215               	.LBB34:
 216               	.LBB35:
 217               	.LBB36:
 218               	.LM28:
 219 00be 8F2D      		mov r24,r15
 220               	.LVL15:
 221               	/* #APP */
 222 00c0 8A95      		1: dec r24
 223 00c2 01F4      		brne 1b
 224               	.LVL16:
 225               	/* #NOAPP */
 226               	.L15:
 227               	.LBE36:
 228               	.LBE35:
 229               	.LBE34:
 230               	.LBE33:
 231               	.LBB37:
 232               	.LBB38:
 233               	.LM29:
 234 00c4 C498      		cbi 56-0x20,4
 235               	.LBE38:
 236               	.LM30:
 237 00c6 80E0      		ldi r24,lo8(0)
 238               	.LVL17:
 239 00c8 0E94 0000 		call spi_putc
 240 00cc 082F      		mov r16,r24
 241               	.LVL18:
 242               	.LM31:
 243 00ce 80E0      		ldi r24,lo8(0)
 244 00d0 0E94 0000 		call spi_putc
 245               	.LBB39:
 246               	.LM32:
 247 00d4 C49A      		sbi 56-0x20,4
 248               	.LBE39:
 249               	.LBE37:
 250               	.LM33:
 251 00d6 1127      		clr r17
 252 00d8 102F      		mov r17,r16
 253 00da 0027      		clr r16
 254               	.LVL19:
 255 00dc 080F      		add r16,r24
 256 00de 111D      		adc r17,__zero_reg__
 257 00e0 17FF      		sbrs r17,7
 258 00e2 00C0      		rjmp .L16
 259               	.LM34:
 260 00e4 C49A      		sbi 56-0x20,4
 261               	.LBE32:
 262               	.LBE31:
 263               	.LBB40:
 264               	.LBB41:
 265               	.LM35:
 266 00e6 C498      		cbi 56-0x20,4
 267               	.LBE41:
 268               	.LM36:
 269 00e8 80EB      		ldi r24,lo8(-80)
 270 00ea 0E94 0000 		call spi_putc
 271               	.LM37:
 272 00ee 80E0      		ldi r24,lo8(0)
 273 00f0 0E94 0000 		call spi_putc
 274               	.LBB42:
 275               	.LM38:
 276 00f4 C49A      		sbi 56-0x20,4
 277               	.LBE42:
 278               	.LBE40:
 279               	.LM39:
 280 00f6 8883      		st Y,r24
 281               	.LM40:
 282 00f8 E394      		inc r14
 283 00fa DE14      		cp r13,r14
 284 00fc 01F0      		breq .L19
 285               	.LM41:
 286 00fe 2196      		adiw r28,1
 287 0100 00C0      		rjmp .L14
 288               	.LVL20:
 289               	.L19:
 290               	/* epilogue: frame size=0 */
 291 0102 DF91      		pop r29
 292 0104 CF91      		pop r28
 293 0106 1F91      		pop r17
 294 0108 0F91      		pop r16
 295 010a FF90      		pop r15
 296 010c EF90      		pop r14
 297 010e DF90      		pop r13
 298 0110 0895      		ret
 299               	/* epilogue end (size=8) */
 300               	/* function rfm12_rxdata size 62 (47) */
 301               	.LFE12:
 303               	.global	rfm12_txdata
 305               	rfm12_txdata:
 306               	.LFB11:
 307               	.LM42:
 308               	/* prologue: frame size=0 */
 309 0112 DF92      		push r13
 310 0114 EF92      		push r14
 311 0116 FF92      		push r15
 312 0118 0F93      		push r16
 313 011a 1F93      		push r17
 314 011c CF93      		push r28
 315 011e DF93      		push r29
 316               	/* prologue end (size=7) */
 317               	.LVL21:
 318 0120 EC01      		movw r28,r24
 319 0122 D62E      		mov r13,r22
 320               	.LBB135:
 321               	.LBB136:
 322               	.LM43:
 323 0124 C498      		cbi 56-0x20,4
 324               	.LBE136:
 325               	.LM44:
 326 0126 82E8      		ldi r24,lo8(-126)
 327               	.LVL22:
 328 0128 0E94 0000 		call spi_putc
 329               	.LVL23:
 330               	.LM45:
 331 012c 88E3      		ldi r24,lo8(56)
 332 012e 0E94 0000 		call spi_putc
 333               	.LBB137:
 334               	.LM46:
 335 0132 C49A      		sbi 56-0x20,4
 336               	.LBE137:
 337               	.LBE135:
 338               	.LBB138:
 339               	.LBB139:
 340               	.LM47:
 341 0134 C498      		cbi 56-0x20,4
 342               	.LM48:
 343               	/* #APP */
 344 0136 0000      		nop
 345               	/* #NOAPP */
 346 0138 24E2      		ldi r18,lo8(36)
 347 013a F22E      		mov r15,r18
 348 013c 00C0      		rjmp .L21
 349               	.L22:
 350               	.LBB140:
 351               	.LBB141:
 352               	.LBB142:
 353               	.LBB143:
 354               	.LM49:
 355 013e 8F2D      		mov r24,r15
 356               	.LVL24:
 357               	/* #APP */
 358 0140 8A95      		1: dec r24
 359 0142 01F4      		brne 1b
 360               	/* #NOAPP */
 361               	.L21:
 362               	.LBE143:
 363               	.LBE142:
 364               	.LBE141:
 365               	.LBE140:
 366               	.LBB144:
 367               	.LBB145:
 368               	.LM50:
 369 0144 C498      		cbi 56-0x20,4
 370               	.LBE145:
 371               	.LM51:
 372 0146 80E0      		ldi r24,lo8(0)
 373               	.LVL25:
 374 0148 0E94 0000 		call spi_putc
 375 014c 082F      		mov r16,r24
 376               	.LVL26:
 377               	.LM52:
 378 014e 80E0      		ldi r24,lo8(0)
 379 0150 0E94 0000 		call spi_putc
 380               	.LBB146:
 381               	.LM53:
 382 0154 C49A      		sbi 56-0x20,4
 383               	.LBE146:
 384               	.LBE144:
 385               	.LM54:
 386 0156 1127      		clr r17
 387 0158 102F      		mov r17,r16
 388 015a 0027      		clr r16
 389               	.LVL27:
 390 015c 080F      		add r16,r24
 391 015e 111D      		adc r17,__zero_reg__
 392 0160 17FF      		sbrs r17,7
 393 0162 00C0      		rjmp .L22
 394               	.LM55:
 395 0164 C49A      		sbi 56-0x20,4
 396               	.LBE139:
 397               	.LBE138:
 398               	.LBB147:
 399               	.LBB148:
 400               	.LM56:
 401 0166 C498      		cbi 56-0x20,4
 402               	.LBE148:
 403               	.LM57:
 404 0168 88EB      		ldi r24,lo8(-72)
 405 016a 0E94 0000 		call spi_putc
 406               	.LM58:
 407 016e 8AEA      		ldi r24,lo8(-86)
 408 0170 0E94 0000 		call spi_putc
 409               	.LBB149:
 410               	.LM59:
 411 0174 C49A      		sbi 56-0x20,4
 412               	.LBE149:
 413               	.LBE147:
 414               	.LBB150:
 415               	.LBB151:
 416               	.LM60:
 417 0176 C498      		cbi 56-0x20,4
 418               	.LM61:
 419               	/* #APP */
 420 0178 0000      		nop
 421               	/* #NOAPP */
 422 017a 14E2      		ldi r17,lo8(36)
 423 017c F12E      		mov r15,r17
 424 017e 00C0      		rjmp .L24
 425               	.L25:
 426               	.LBB152:
 427               	.LBB153:
 428               	.LBB154:
 429               	.LBB155:
 430               	.LM62:
 431 0180 8F2D      		mov r24,r15
 432               	.LVL28:
 433               	/* #APP */
 434 0182 8A95      		1: dec r24
 435 0184 01F4      		brne 1b
 436               	/* #NOAPP */
 437               	.L24:
 438               	.LBE155:
 439               	.LBE154:
 440               	.LBE153:
 441               	.LBE152:
 442               	.LBB156:
 443               	.LBB157:
 444               	.LM63:
 445 0186 C498      		cbi 56-0x20,4
 446               	.LBE157:
 447               	.LM64:
 448 0188 80E0      		ldi r24,lo8(0)
 449               	.LVL29:
 450 018a 0E94 0000 		call spi_putc
 451 018e 082F      		mov r16,r24
 452               	.LVL30:
 453               	.LM65:
 454 0190 80E0      		ldi r24,lo8(0)
 455 0192 0E94 0000 		call spi_putc
 456               	.LBB158:
 457               	.LM66:
 458 0196 C49A      		sbi 56-0x20,4
 459               	.LBE158:
 460               	.LBE156:
 461               	.LM67:
 462 0198 1127      		clr r17
 463 019a 102F      		mov r17,r16
 464 019c 0027      		clr r16
 465               	.LVL31:
 466 019e 080F      		add r16,r24
 467 01a0 111D      		adc r17,__zero_reg__
 468 01a2 17FF      		sbrs r17,7
 469 01a4 00C0      		rjmp .L25
 470               	.LM68:
 471 01a6 C49A      		sbi 56-0x20,4
 472               	.LBE151:
 473               	.LBE150:
 474               	.LBB159:
 475               	.LBB160:
 476               	.LM69:
 477 01a8 C498      		cbi 56-0x20,4
 478               	.LBE160:
 479               	.LM70:
 480 01aa 88EB      		ldi r24,lo8(-72)
 481 01ac 0E94 0000 		call spi_putc
 482               	.LM71:
 483 01b0 8AEA      		ldi r24,lo8(-86)
 484 01b2 0E94 0000 		call spi_putc
 485               	.LBB161:
 486               	.LM72:
 487 01b6 C49A      		sbi 56-0x20,4
 488               	.LBE161:
 489               	.LBE159:
 490               	.LBB162:
 491               	.LBB163:
 492               	.LM73:
 493 01b8 C498      		cbi 56-0x20,4
 494               	.LM74:
 495               	/* #APP */
 496 01ba 0000      		nop
 497               	/* #NOAPP */
 498 01bc A4E2      		ldi r26,lo8(36)
 499 01be FA2E      		mov r15,r26
 500 01c0 00C0      		rjmp .L27
 501               	.L28:
 502               	.LBB164:
 503               	.LBB165:
 504               	.LBB166:
 505               	.LBB167:
 506               	.LM75:
 507 01c2 8F2D      		mov r24,r15
 508               	.LVL32:
 509               	/* #APP */
 510 01c4 8A95      		1: dec r24
 511 01c6 01F4      		brne 1b
 512               	/* #NOAPP */
 513               	.L27:
 514               	.LBE167:
 515               	.LBE166:
 516               	.LBE165:
 517               	.LBE164:
 518               	.LBB168:
 519               	.LBB169:
 520               	.LM76:
 521 01c8 C498      		cbi 56-0x20,4
 522               	.LBE169:
 523               	.LM77:
 524 01ca 80E0      		ldi r24,lo8(0)
 525               	.LVL33:
 526 01cc 0E94 0000 		call spi_putc
 527 01d0 082F      		mov r16,r24
 528               	.LVL34:
 529               	.LM78:
 530 01d2 80E0      		ldi r24,lo8(0)
 531 01d4 0E94 0000 		call spi_putc
 532               	.LBB170:
 533               	.LM79:
 534 01d8 C49A      		sbi 56-0x20,4
 535               	.LBE170:
 536               	.LBE168:
 537               	.LM80:
 538 01da 1127      		clr r17
 539 01dc 102F      		mov r17,r16
 540 01de 0027      		clr r16
 541               	.LVL35:
 542 01e0 080F      		add r16,r24
 543 01e2 111D      		adc r17,__zero_reg__
 544 01e4 17FF      		sbrs r17,7
 545 01e6 00C0      		rjmp .L28
 546               	.LM81:
 547 01e8 C49A      		sbi 56-0x20,4
 548               	.LBE163:
 549               	.LBE162:
 550               	.LBB171:
 551               	.LBB172:
 552               	.LM82:
 553 01ea C498      		cbi 56-0x20,4
 554               	.LBE172:
 555               	.LM83:
 556 01ec 88EB      		ldi r24,lo8(-72)
 557 01ee 0E94 0000 		call spi_putc
 558               	.LM84:
 559 01f2 8AEA      		ldi r24,lo8(-86)
 560 01f4 0E94 0000 		call spi_putc
 561               	.LBB173:
 562               	.LM85:
 563 01f8 C49A      		sbi 56-0x20,4
 564               	.LBE173:
 565               	.LBE171:
 566               	.LBB174:
 567               	.LBB175:
 568               	.LM86:
 569 01fa C498      		cbi 56-0x20,4
 570               	.LM87:
 571               	/* #APP */
 572 01fc 0000      		nop
 573               	/* #NOAPP */
 574 01fe E4E2      		ldi r30,lo8(36)
 575 0200 FE2E      		mov r15,r30
 576 0202 00C0      		rjmp .L30
 577               	.L31:
 578               	.LBB176:
 579               	.LBB177:
 580               	.LBB178:
 581               	.LBB179:
 582               	.LM88:
 583 0204 8F2D      		mov r24,r15
 584               	.LVL36:
 585               	/* #APP */
 586 0206 8A95      		1: dec r24
 587 0208 01F4      		brne 1b
 588               	/* #NOAPP */
 589               	.L30:
 590               	.LBE179:
 591               	.LBE178:
 592               	.LBE177:
 593               	.LBE176:
 594               	.LBB180:
 595               	.LBB181:
 596               	.LM89:
 597 020a C498      		cbi 56-0x20,4
 598               	.LBE181:
 599               	.LM90:
 600 020c 80E0      		ldi r24,lo8(0)
 601               	.LVL37:
 602 020e 0E94 0000 		call spi_putc
 603 0212 082F      		mov r16,r24
 604               	.LVL38:
 605               	.LM91:
 606 0214 80E0      		ldi r24,lo8(0)
 607 0216 0E94 0000 		call spi_putc
 608               	.LBB182:
 609               	.LM92:
 610 021a C49A      		sbi 56-0x20,4
 611               	.LBE182:
 612               	.LBE180:
 613               	.LM93:
 614 021c 1127      		clr r17
 615 021e 102F      		mov r17,r16
 616 0220 0027      		clr r16
 617               	.LVL39:
 618 0222 080F      		add r16,r24
 619 0224 111D      		adc r17,__zero_reg__
 620 0226 17FF      		sbrs r17,7
 621 0228 00C0      		rjmp .L31
 622               	.LM94:
 623 022a C49A      		sbi 56-0x20,4
 624               	.LBE175:
 625               	.LBE174:
 626               	.LBB183:
 627               	.LBB184:
 628               	.LM95:
 629 022c C498      		cbi 56-0x20,4
 630               	.LBE184:
 631               	.LM96:
 632 022e 88EB      		ldi r24,lo8(-72)
 633 0230 0E94 0000 		call spi_putc
 634               	.LM97:
 635 0234 8DE2      		ldi r24,lo8(45)
 636 0236 0E94 0000 		call spi_putc
 637               	.LBB185:
 638               	.LM98:
 639 023a C49A      		sbi 56-0x20,4
 640               	.LBE185:
 641               	.LBE183:
 642               	.LBB186:
 643               	.LBB187:
 644               	.LM99:
 645 023c C498      		cbi 56-0x20,4
 646               	.LM100:
 647               	/* #APP */
 648 023e 0000      		nop
 649               	/* #NOAPP */
 650 0240 64E2      		ldi r22,lo8(36)
 651 0242 F62E      		mov r15,r22
 652 0244 00C0      		rjmp .L33
 653               	.L34:
 654               	.LBB188:
 655               	.LBB189:
 656               	.LBB190:
 657               	.LBB191:
 658               	.LM101:
 659 0246 8F2D      		mov r24,r15
 660               	.LVL40:
 661               	/* #APP */
 662 0248 8A95      		1: dec r24
 663 024a 01F4      		brne 1b
 664               	/* #NOAPP */
 665               	.L33:
 666               	.LBE191:
 667               	.LBE190:
 668               	.LBE189:
 669               	.LBE188:
 670               	.LBB192:
 671               	.LBB193:
 672               	.LM102:
 673 024c C498      		cbi 56-0x20,4
 674               	.LBE193:
 675               	.LM103:
 676 024e 80E0      		ldi r24,lo8(0)
 677               	.LVL41:
 678 0250 0E94 0000 		call spi_putc
 679 0254 082F      		mov r16,r24
 680               	.LVL42:
 681               	.LM104:
 682 0256 80E0      		ldi r24,lo8(0)
 683 0258 0E94 0000 		call spi_putc
 684               	.LBB194:
 685               	.LM105:
 686 025c C49A      		sbi 56-0x20,4
 687               	.LBE194:
 688               	.LBE192:
 689               	.LM106:
 690 025e 1127      		clr r17
 691 0260 102F      		mov r17,r16
 692 0262 0027      		clr r16
 693               	.LVL43:
 694 0264 080F      		add r16,r24
 695 0266 111D      		adc r17,__zero_reg__
 696 0268 17FF      		sbrs r17,7
 697 026a 00C0      		rjmp .L34
 698               	.LM107:
 699 026c C49A      		sbi 56-0x20,4
 700               	.LBE187:
 701               	.LBE186:
 702               	.LBB195:
 703               	.LBB196:
 704               	.LM108:
 705 026e C498      		cbi 56-0x20,4
 706               	.LBE196:
 707               	.LM109:
 708 0270 88EB      		ldi r24,lo8(-72)
 709 0272 0E94 0000 		call spi_putc
 710               	.LM110:
 711 0276 84ED      		ldi r24,lo8(-44)
 712 0278 0E94 0000 		call spi_putc
 713               	.LBB197:
 714               	.LM111:
 715 027c C49A      		sbi 56-0x20,4
 716               	.LBE197:
 717               	.LBE195:
 718               	.LM112:
 719 027e DD20      		tst r13
 720 0280 01F0      		breq .L36
 721 0282 EE24      		clr r14
 722               	.LVL44:
 723               	.LVL45:
 724               	.L38:
 725               	.LBB198:
 726               	.LBB199:
 727               	.LM113:
 728 0284 C498      		cbi 56-0x20,4
 729               	.LM114:
 730               	/* #APP */
 731 0286 0000      		nop
 732               	/* #NOAPP */
 733 0288 44E2      		ldi r20,lo8(36)
 734 028a F42E      		mov r15,r20
 735 028c 00C0      		rjmp .L39
 736               	.LVL46:
 737               	.L40:
 738               	.LBB200:
 739               	.LBB201:
 740               	.LBB202:
 741               	.LBB203:
 742               	.LM115:
 743 028e 8F2D      		mov r24,r15
 744               	.LVL47:
 745               	/* #APP */
 746 0290 8A95      		1: dec r24
 747 0292 01F4      		brne 1b
 748               	.LVL48:
 749               	/* #NOAPP */
 750               	.L39:
 751               	.LBE203:
 752               	.LBE202:
 753               	.LBE201:
 754               	.LBE200:
 755               	.LBB204:
 756               	.LBB205:
 757               	.LM116:
 758 0294 C498      		cbi 56-0x20,4
 759               	.LBE205:
 760               	.LM117:
 761 0296 80E0      		ldi r24,lo8(0)
 762               	.LVL49:
 763 0298 0E94 0000 		call spi_putc
 764 029c 082F      		mov r16,r24
 765               	.LVL50:
 766               	.LM118:
 767 029e 80E0      		ldi r24,lo8(0)
 768 02a0 0E94 0000 		call spi_putc
 769               	.LBB206:
 770               	.LM119:
 771 02a4 C49A      		sbi 56-0x20,4
 772               	.LBE206:
 773               	.LBE204:
 774               	.LM120:
 775 02a6 1127      		clr r17
 776 02a8 102F      		mov r17,r16
 777 02aa 0027      		clr r16
 778               	.LVL51:
 779 02ac 080F      		add r16,r24
 780 02ae 111D      		adc r17,__zero_reg__
 781 02b0 17FF      		sbrs r17,7
 782 02b2 00C0      		rjmp .L40
 783               	.LM121:
 784 02b4 C49A      		sbi 56-0x20,4
 785               	.LBE199:
 786               	.LBE198:
 787               	.LM122:
 788 02b6 0881      		ld r16,Y
 789 02b8 1127      		clr r17
 790               	.LVL52:
 791               	.LBB207:
 792               	.LBB208:
 793               	.LM123:
 794 02ba C498      		cbi 56-0x20,4
 795               	.LBE208:
 796               	.LM124:
 797 02bc 186B      		ori r17,hi8(-18432)
 798 02be 88EB      		ldi r24,lo8(-72)
 799 02c0 0E94 0000 		call spi_putc
 800               	.LM125:
 801 02c4 802F      		mov r24,r16
 802 02c6 0E94 0000 		call spi_putc
 803               	.LBB209:
 804               	.LM126:
 805 02ca C49A      		sbi 56-0x20,4
 806               	.LBE209:
 807               	.LBE207:
 808               	.LM127:
 809 02cc E394      		inc r14
 810 02ce DE14      		cp r13,r14
 811 02d0 01F0      		breq .L36
 812               	.LM128:
 813 02d2 2196      		adiw r28,1
 814 02d4 00C0      		rjmp .L38
 815               	.L36:
 816               	.LBB210:
 817               	.LBB211:
 818               	.LM129:
 819 02d6 C498      		cbi 56-0x20,4
 820               	.LM130:
 821               	/* #APP */
 822 02d8 0000      		nop
 823               	/* #NOAPP */
 824 02da 24E2      		ldi r18,lo8(36)
 825 02dc F22E      		mov r15,r18
 826 02de 00C0      		rjmp .L43
 827               	.LVL53:
 828               	.L44:
 829               	.LBB212:
 830               	.LBB213:
 831               	.LBB214:
 832               	.LBB215:
 833               	.LM131:
 834 02e0 8F2D      		mov r24,r15
 835               	.LVL54:
 836               	/* #APP */
 837 02e2 8A95      		1: dec r24
 838 02e4 01F4      		brne 1b
 839               	.LVL55:
 840               	/* #NOAPP */
 841               	.L43:
 842               	.LBE215:
 843               	.LBE214:
 844               	.LBE213:
 845               	.LBE212:
 846               	.LBB216:
 847               	.LBB217:
 848               	.LM132:
 849 02e6 C498      		cbi 56-0x20,4
 850               	.LBE217:
 851               	.LM133:
 852 02e8 80E0      		ldi r24,lo8(0)
 853               	.LVL56:
 854 02ea 0E94 0000 		call spi_putc
 855 02ee 082F      		mov r16,r24
 856               	.LVL57:
 857               	.LM134:
 858 02f0 80E0      		ldi r24,lo8(0)
 859 02f2 0E94 0000 		call spi_putc
 860               	.LBB218:
 861               	.LM135:
 862 02f6 C49A      		sbi 56-0x20,4
 863               	.LBE218:
 864               	.LBE216:
 865               	.LM136:
 866 02f8 1127      		clr r17
 867 02fa 102F      		mov r17,r16
 868 02fc 0027      		clr r16
 869               	.LVL58:
 870 02fe 080F      		add r16,r24
 871 0300 111D      		adc r17,__zero_reg__
 872 0302 17FF      		sbrs r17,7
 873 0304 00C0      		rjmp .L44
 874               	.LM137:
 875 0306 C49A      		sbi 56-0x20,4
 876               	.LBE211:
 877               	.LBE210:
 878               	.LBB219:
 879               	.LBB220:
 880               	.LM138:
 881 0308 C498      		cbi 56-0x20,4
 882               	.LBE220:
 883               	.LM139:
 884 030a 88EB      		ldi r24,lo8(-72)
 885 030c 0E94 0000 		call spi_putc
 886               	.LM140:
 887 0310 80E0      		ldi r24,lo8(0)
 888 0312 0E94 0000 		call spi_putc
 889               	.LBB221:
 890               	.LM141:
 891 0316 C49A      		sbi 56-0x20,4
 892               	.LBE221:
 893               	.LBE219:
 894               	.LBB222:
 895               	.LBB223:
 896               	.LM142:
 897 0318 C498      		cbi 56-0x20,4
 898               	.LM143:
 899               	/* #APP */
 900 031a 0000      		nop
 901               	/* #NOAPP */
 902 031c B4E2      		ldi r27,lo8(36)
 903 031e FB2E      		mov r15,r27
 904 0320 00C0      		rjmp .L46
 905               	.L47:
 906               	.LBB224:
 907               	.LBB225:
 908               	.LBB226:
 909               	.LBB227:
 910               	.LM144:
 911 0322 8F2D      		mov r24,r15
 912               	.LVL59:
 913               	/* #APP */
 914 0324 8A95      		1: dec r24
 915 0326 01F4      		brne 1b
 916               	/* #NOAPP */
 917               	.L46:
 918               	.LBE227:
 919               	.LBE226:
 920               	.LBE225:
 921               	.LBE224:
 922               	.LBB228:
 923               	.LBB229:
 924               	.LM145:
 925 0328 C498      		cbi 56-0x20,4
 926               	.LBE229:
 927               	.LM146:
 928 032a 80E0      		ldi r24,lo8(0)
 929               	.LVL60:
 930 032c 0E94 0000 		call spi_putc
 931 0330 082F      		mov r16,r24
 932               	.LVL61:
 933               	.LM147:
 934 0332 80E0      		ldi r24,lo8(0)
 935 0334 0E94 0000 		call spi_putc
 936               	.LBB230:
 937               	.LM148:
 938 0338 C49A      		sbi 56-0x20,4
 939               	.LBE230:
 940               	.LBE228:
 941               	.LM149:
 942 033a 1127      		clr r17
 943 033c 102F      		mov r17,r16
 944 033e 0027      		clr r16
 945               	.LVL62:
 946 0340 080F      		add r16,r24
 947 0342 111D      		adc r17,__zero_reg__
 948 0344 17FF      		sbrs r17,7
 949 0346 00C0      		rjmp .L47
 950               	.LM150:
 951 0348 C49A      		sbi 56-0x20,4
 952               	.LBE223:
 953               	.LBE222:
 954               	.LBB231:
 955               	.LBB232:
 956               	.LM151:
 957 034a C498      		cbi 56-0x20,4
 958               	.LBE232:
 959               	.LM152:
 960 034c 88EB      		ldi r24,lo8(-72)
 961 034e 0E94 0000 		call spi_putc
 962               	.LM153:
 963 0352 80E0      		ldi r24,lo8(0)
 964 0354 0E94 0000 		call spi_putc
 965               	.LBB233:
 966               	.LM154:
 967 0358 C49A      		sbi 56-0x20,4
 968               	.LBE233:
 969               	.LBE231:
 970               	.LBB234:
 971               	.LBB235:
 972               	.LM155:
 973 035a C498      		cbi 56-0x20,4
 974               	.LM156:
 975               	/* #APP */
 976 035c 0000      		nop
 977               	/* #NOAPP */
 978 035e F4E2      		ldi r31,lo8(36)
 979 0360 FF2E      		mov r15,r31
 980 0362 00C0      		rjmp .L49
 981               	.L50:
 982               	.LBB236:
 983               	.LBB237:
 984               	.LBB238:
 985               	.LBB239:
 986               	.LM157:
 987 0364 8F2D      		mov r24,r15
 988               	.LVL63:
 989               	/* #APP */
 990 0366 8A95      		1: dec r24
 991 0368 01F4      		brne 1b
 992               	/* #NOAPP */
 993               	.L49:
 994               	.LBE239:
 995               	.LBE238:
 996               	.LBE237:
 997               	.LBE236:
 998               	.LBB240:
 999               	.LBB241:
 1000               	.LM158:
 1001 036a C498      		cbi 56-0x20,4
 1002               	.LBE241:
 1003               	.LM159:
 1004 036c 80E0      		ldi r24,lo8(0)
 1005               	.LVL64:
 1006 036e 0E94 0000 		call spi_putc
 1007 0372 082F      		mov r16,r24
 1008               	.LVL65:
 1009               	.LM160:
 1010 0374 80E0      		ldi r24,lo8(0)
 1011 0376 0E94 0000 		call spi_putc
 1012               	.LBB242:
 1013               	.LM161:
 1014 037a C49A      		sbi 56-0x20,4
 1015               	.LBE242:
 1016               	.LBE240:
 1017               	.LM162:
 1018 037c 1127      		clr r17
 1019 037e 102F      		mov r17,r16
 1020 0380 0027      		clr r16
 1021               	.LVL66:
 1022 0382 080F      		add r16,r24
 1023 0384 111D      		adc r17,__zero_reg__
 1024 0386 17FF      		sbrs r17,7
 1025 0388 00C0      		rjmp .L50
 1026               	.LM163:
 1027 038a C49A      		sbi 56-0x20,4
 1028               	.LBE235:
 1029               	.LBE234:
 1030               	.LBB243:
 1031               	.LBB244:
 1032               	.LM164:
 1033 038c C498      		cbi 56-0x20,4
 1034               	.LBE244:
 1035               	.LM165:
 1036 038e 82E8      		ldi r24,lo8(-126)
 1037 0390 0E94 0000 		call spi_putc
 1038               	.LM166:
 1039 0394 88E0      		ldi r24,lo8(8)
 1040 0396 0E94 0000 		call spi_putc
 1041               	.LBB245:
 1042               	.LM167:
 1043 039a C49A      		sbi 56-0x20,4
 1044               	.LBE245:
 1045               	.LBE243:
 1046               	/* epilogue: frame size=0 */
 1047 039c DF91      		pop r29
 1048 039e CF91      		pop r28
 1049 03a0 1F91      		pop r17
 1050 03a2 0F91      		pop r16
 1051 03a4 FF90      		pop r15
 1052 03a6 EF90      		pop r14
 1053 03a8 DF90      		pop r13
 1054 03aa 0895      		ret
 1055               	/* epilogue end (size=8) */
 1056               	/* function rfm12_txdata size 360 (345) */
 1057               	.LFE11:
 1059               		.data
 1060               	.LC0:
 1061 0000 0A0D 00   		.string	"\n\r"
 1062               	.LC1:
 1063 0003 00        		.string	""
 1064               		.text
 1065               	.global	main
 1067               	main:
 1068               	.LFB7:
 1069               	.LM168:
 1070               	/* prologue: frame size=1 */
 1071 03ac CF92      		push r12
 1072 03ae DF92      		push r13
 1073 03b0 EF92      		push r14
 1074 03b2 FF92      		push r15
 1075 03b4 0F93      		push r16
 1076 03b6 1F93      		push r17
 1077 03b8 CF93      		push r28
 1078 03ba DF93      		push r29
 1079 03bc CDB7      		in r28,__SP_L__
 1080 03be DEB7      		in r29,__SP_H__
 1081 03c0 2197      		sbiw r28,1
 1082 03c2 0FB6      		in __tmp_reg__,__SREG__
 1083 03c4 F894      		cli
 1084 03c6 DEBF      		out __SP_H__,r29
 1085 03c8 0FBE      		out __SREG__,__tmp_reg__
 1086 03ca CDBF      		out __SP_L__,r28
 1087               	/* prologue end (size=16) */
 1088               	.LM169:
 1089 03cc BB9A      		sbi 55-0x20,3
 1090               	.LM170:
 1091 03ce C398      		cbi 56-0x20,3
 1092               	.LM171:
 1093 03d0 0E94 0000 		call uart_init
 1094               	.LM172:
 1095 03d4 C49A      		sbi 56-0x20,4
 1096               	.LM173:
 1097 03d6 0E94 0000 		call spi_init
 1098               	.LBB300:
 1099               	.LBB301:
 1100               	.LM174:
 1101 03da C498      		cbi 56-0x20,4
 1102               	.LBE301:
 1103               	.LM175:
 1104 03dc 80E0      		ldi r24,lo8(0)
 1105 03de 0E94 0000 		call spi_putc
 1106 03e2 082F      		mov r16,r24
 1107               	.LVL67:
 1108               	.LM176:
 1109 03e4 80E0      		ldi r24,lo8(0)
 1110 03e6 0E94 0000 		call spi_putc
 1111               	.LBB302:
 1112               	.LM177:
 1113 03ea C49A      		sbi 56-0x20,4
 1114               	.LM178:
 1115 03ec 1127      		clr r17
 1116 03ee 102F      		mov r17,r16
 1117 03f0 0027      		clr r16
 1118               	.LVL68:
 1119 03f2 080F      		add r16,r24
 1120 03f4 111D      		adc r17,__zero_reg__
 1121 03f6 4FE0      		ldi r20,lo8(15)
 1122 03f8 E42E      		mov r14,r20
 1123 03fa F12C      		mov r15,__zero_reg__
 1124               	.LVL69:
 1125               	.L54:
 1126               	.LBE302:
 1127               	.LBE300:
 1128               	.LM179:
 1129 03fc C801      		movw r24,r16
 1130 03fe 0E2C      		mov r0,r14
 1131 0400 00C0      		rjmp 2f
 1132 0402 9695      	1:	lsr r25
 1133 0404 8795      		ror r24
 1134 0406 0A94      	2:	dec r0
 1135 0408 02F4      		brpl 1b
 1136 040a 8170      		andi r24,lo8(1)
 1137 040c 9070      		andi r25,hi8(1)
 1138 040e 0E94 0000 		call uart_puti
 1139               	.LM180:
 1140 0412 0894      		sec
 1141 0414 E108      		sbc r14,__zero_reg__
 1142 0416 F108      		sbc r15,__zero_reg__
 1143 0418 8FEF      		ldi r24,lo8(-1)
 1144 041a E816      		cp r14,r24
 1145 041c 8FEF      		ldi r24,hi8(-1)
 1146 041e F806      		cpc r15,r24
 1147 0420 01F4      		brne .L54
 1148               	.LM181:
 1149 0422 80E0      		ldi r24,lo8(.LC0)
 1150 0424 90E0      		ldi r25,hi8(.LC0)
 1151 0426 0E94 0000 		call uart_puts
 1152               	.LBB303:
 1153               	.LBB304:
 1154               	.LM182:
 1155 042a C498      		cbi 56-0x20,4
 1156               	.LBE304:
 1157               	.LM183:
 1158 042c 80E8      		ldi r24,lo8(-128)
 1159 042e 0E94 0000 		call spi_putc
 1160               	.LM184:
 1161 0432 87ED      		ldi r24,lo8(-41)
 1162 0434 0E94 0000 		call spi_putc
 1163               	.LBB305:
 1164               	.LM185:
 1165 0438 C49A      		sbi 56-0x20,4
 1166               	.LBE305:
 1167               	.LBE303:
 1168               	.LBB306:
 1169               	.LBB307:
 1170               	.LM186:
 1171 043a C498      		cbi 56-0x20,4
 1172               	.LBE307:
 1173               	.LM187:
 1174 043c 86EA      		ldi r24,lo8(-90)
 1175 043e 0E94 0000 		call spi_putc
 1176               	.LM188:
 1177 0442 80E2      		ldi r24,lo8(32)
 1178 0444 0E94 0000 		call spi_putc
 1179               	.LBB308:
 1180               	.LM189:
 1181 0448 C49A      		sbi 56-0x20,4
 1182               	.LBE308:
 1183               	.LBE306:
 1184               	.LBB309:
 1185               	.LBB310:
 1186               	.LM190:
 1187 044a C498      		cbi 56-0x20,4
 1188               	.LBE310:
 1189               	.LM191:
 1190 044c 86EC      		ldi r24,lo8(-58)
 1191 044e 0E94 0000 		call spi_putc
 1192               	.LM192:
 1193 0452 81E2      		ldi r24,lo8(33)
 1194 0454 0E94 0000 		call spi_putc
 1195               	.LBB311:
 1196               	.LM193:
 1197 0458 C49A      		sbi 56-0x20,4
 1198               	.LBE311:
 1199               	.LBE309:
 1200               	.LBB312:
 1201               	.LBB313:
 1202               	.LM194:
 1203 045a C498      		cbi 56-0x20,4
 1204               	.LBE313:
 1205               	.LM195:
 1206 045c 84E9      		ldi r24,lo8(-108)
 1207 045e 0E94 0000 		call spi_putc
 1208               	.LM196:
 1209 0462 8CE8      		ldi r24,lo8(-116)
 1210 0464 0E94 0000 		call spi_putc
 1211               	.LBB314:
 1212               	.LM197:
 1213 0468 C49A      		sbi 56-0x20,4
 1214               	.LBE314:
 1215               	.LBE312:
 1216               	.LBB315:
 1217               	.LBB316:
 1218               	.LM198:
 1219 046a C498      		cbi 56-0x20,4
 1220               	.LBE316:
 1221               	.LM199:
 1222 046c 82EC      		ldi r24,lo8(-62)
 1223 046e 0E94 0000 		call spi_putc
 1224               	.LM200:
 1225 0472 8BEA      		ldi r24,lo8(-85)
 1226 0474 0E94 0000 		call spi_putc
 1227               	.LBB317:
 1228               	.LM201:
 1229 0478 C49A      		sbi 56-0x20,4
 1230               	.LBE317:
 1231               	.LBE315:
 1232               	.LBB318:
 1233               	.LBB319:
 1234               	.LM202:
 1235 047a C498      		cbi 56-0x20,4
 1236               	.LBE319:
 1237               	.LM203:
 1238 047c 8AEC      		ldi r24,lo8(-54)
 1239 047e 0E94 0000 		call spi_putc
 1240               	.LM204:
 1241 0482 81E8      		ldi r24,lo8(-127)
 1242 0484 0E94 0000 		call spi_putc
 1243               	.LBB320:
 1244               	.LM205:
 1245 0488 C49A      		sbi 56-0x20,4
 1246               	.LBE320:
 1247               	.LBE318:
 1248               	.LBB321:
 1249               	.LBB322:
 1250               	.LM206:
 1251 048a C498      		cbi 56-0x20,4
 1252               	.LBE322:
 1253               	.LM207:
 1254 048c 88E9      		ldi r24,lo8(-104)
 1255 048e 0E94 0000 		call spi_putc
 1256               	.LM208:
 1257 0492 80E3      		ldi r24,lo8(48)
 1258 0494 0E94 0000 		call spi_putc
 1259               	.LBB323:
 1260               	.LM209:
 1261 0498 C49A      		sbi 56-0x20,4
 1262               	.LBE323:
 1263               	.LBE321:
 1264               	.LBB324:
 1265               	.LBB325:
 1266               	.LM210:
 1267 049a C498      		cbi 56-0x20,4
 1268               	.LBE325:
 1269               	.LM211:
 1270 049c 80EC      		ldi r24,lo8(-64)
 1271 049e 0E94 0000 		call spi_putc
 1272               	.LM212:
 1273 04a2 8CEF      		ldi r24,lo8(-4)
 1274 04a4 0E94 0000 		call spi_putc
 1275               	.LBB326:
 1276               	.LM213:
 1277 04a8 C49A      		sbi 56-0x20,4
 1278               	.LBE326:
 1279               	.LBE324:
 1280               	.LBB327:
 1281               	.LBB328:
 1282               	.LM214:
 1283 04aa C498      		cbi 56-0x20,4
 1284               	.LBE328:
 1285               	.LM215:
 1286 04ac 88EC      		ldi r24,lo8(-56)
 1287 04ae 0E94 0000 		call spi_putc
 1288               	.LM216:
 1289 04b2 80E0      		ldi r24,lo8(0)
 1290 04b4 0E94 0000 		call spi_putc
 1291               	.LBB329:
 1292               	.LM217:
 1293 04b8 C49A      		sbi 56-0x20,4
 1294               	.LBE329:
 1295               	.LBE327:
 1296               	.LBB330:
 1297               	.LBB331:
 1298               	.LM218:
 1299 04ba C498      		cbi 56-0x20,4
 1300               	.LBE331:
 1301               	.LM219:
 1302 04bc 84EC      		ldi r24,lo8(-60)
 1303 04be 0E94 0000 		call spi_putc
 1304               	.LM220:
 1305 04c2 87EF      		ldi r24,lo8(-9)
 1306 04c4 0E94 0000 		call spi_putc
 1307               	.LBB332:
 1308               	.LM221:
 1309 04c8 C49A      		sbi 56-0x20,4
 1310               	.LBE332:
 1311               	.LBE330:
 1312               	.LBB333:
 1313               	.LBB334:
 1314               	.LM222:
 1315 04ca C498      		cbi 56-0x20,4
 1316               	.LBE334:
 1317               	.LM223:
 1318 04cc 80E0      		ldi r24,lo8(0)
 1319 04ce 0E94 0000 		call spi_putc
 1320 04d2 082F      		mov r16,r24
 1321               	.LVL70:
 1322               	.LM224:
 1323 04d4 80E0      		ldi r24,lo8(0)
 1324 04d6 0E94 0000 		call spi_putc
 1325               	.LBB335:
 1326               	.LM225:
 1327 04da C49A      		sbi 56-0x20,4
 1328               	.LM226:
 1329 04dc 1127      		clr r17
 1330 04de 102F      		mov r17,r16
 1331 04e0 0027      		clr r16
 1332               	.LVL71:
 1333 04e2 080F      		add r16,r24
 1334 04e4 111D      		adc r17,__zero_reg__
 1335 04e6 2FE0      		ldi r18,lo8(15)
 1336 04e8 E22E      		mov r14,r18
 1337 04ea F12C      		mov r15,__zero_reg__
 1338               	.LVL72:
 1339               	.L56:
 1340               	.LBE335:
 1341               	.LBE333:
 1342               	.LM227:
 1343 04ec C801      		movw r24,r16
 1344 04ee 0E2C      		mov r0,r14
 1345 04f0 00C0      		rjmp 2f
 1346 04f2 9695      	1:	lsr r25
 1347 04f4 8795      		ror r24
 1348 04f6 0A94      	2:	dec r0
 1349 04f8 02F4      		brpl 1b
 1350 04fa 8170      		andi r24,lo8(1)
 1351 04fc 9070      		andi r25,hi8(1)
 1352 04fe 0E94 0000 		call uart_puti
 1353               	.LM228:
 1354 0502 0894      		sec
 1355 0504 E108      		sbc r14,__zero_reg__
 1356 0506 F108      		sbc r15,__zero_reg__
 1357 0508 8FEF      		ldi r24,lo8(-1)
 1358 050a E816      		cp r14,r24
 1359 050c 8FEF      		ldi r24,hi8(-1)
 1360 050e F806      		cpc r15,r24
 1361 0510 01F4      		brne .L56
 1362               	.LM229:
 1363 0512 80E0      		ldi r24,lo8(.LC0)
 1364 0514 90E0      		ldi r25,hi8(.LC0)
 1365 0516 0E94 0000 		call uart_puts
 1366               	.LBB336:
 1367               	.LBB337:
 1368               	.LM230:
 1369 051a C498      		cbi 56-0x20,4
 1370               	.LBE337:
 1371               	.LM231:
 1372 051c 88EB      		ldi r24,lo8(-72)
 1373 051e 0E94 0000 		call spi_putc
 1374               	.LM232:
 1375 0522 8AEA      		ldi r24,lo8(-86)
 1376 0524 0E94 0000 		call spi_putc
 1377               	.LBB338:
 1378               	.LM233:
 1379 0528 C49A      		sbi 56-0x20,4
 1380               	.LBE338:
 1381               	.LBE336:
 1382               	.LBB339:
 1383               	.LBB340:
 1384               	.LM234:
 1385 052a C498      		cbi 56-0x20,4
 1386               	.LBE340:
 1387               	.LM235:
 1388 052c 80E0      		ldi r24,lo8(0)
 1389 052e 0E94 0000 		call spi_putc
 1390 0532 082F      		mov r16,r24
 1391               	.LVL73:
 1392               	.LM236:
 1393 0534 80E0      		ldi r24,lo8(0)
 1394 0536 0E94 0000 		call spi_putc
 1395               	.LBB341:
 1396               	.LM237:
 1397 053a C49A      		sbi 56-0x20,4
 1398               	.LM238:
 1399 053c 1127      		clr r17
 1400 053e 102F      		mov r17,r16
 1401 0540 0027      		clr r16
 1402               	.LVL74:
 1403 0542 080F      		add r16,r24
 1404 0544 111D      		adc r17,__zero_reg__
 1405 0546 8FE0      		ldi r24,lo8(15)
 1406 0548 E82E      		mov r14,r24
 1407 054a F12C      		mov r15,__zero_reg__
 1408               	.LVL75:
 1409               	.L58:
 1410               	.LBE341:
 1411               	.LBE339:
 1412               	.LM239:
 1413 054c C801      		movw r24,r16
 1414 054e 0E2C      		mov r0,r14
 1415 0550 00C0      		rjmp 2f
 1416 0552 9695      	1:	lsr r25
 1417 0554 8795      		ror r24
 1418 0556 0A94      	2:	dec r0
 1419 0558 02F4      		brpl 1b
 1420 055a 8170      		andi r24,lo8(1)
 1421 055c 9070      		andi r25,hi8(1)
 1422 055e 0E94 0000 		call uart_puti
 1423               	.LM240:
 1424 0562 0894      		sec
 1425 0564 E108      		sbc r14,__zero_reg__
 1426 0566 F108      		sbc r15,__zero_reg__
 1427 0568 8FEF      		ldi r24,lo8(-1)
 1428 056a E816      		cp r14,r24
 1429 056c 8FEF      		ldi r24,hi8(-1)
 1430 056e F806      		cpc r15,r24
 1431 0570 01F4      		brne .L58
 1432               	.LM241:
 1433 0572 80E0      		ldi r24,lo8(.LC0)
 1434 0574 90E0      		ldi r25,hi8(.LC0)
 1435 0576 0E94 0000 		call uart_puts
 1436 057a 80E0      		ldi r24,lo8(0)
 1437 057c 90E0      		ldi r25,hi8(0)
 1438               	.LVL76:
 1439               	.L60:
 1440               	.LM242:
 1441               	/* #APP */
 1442 057e 0000      		nop
 1443               	.LM243:
 1444               	/* #NOAPP */
 1445 0580 0196      		adiw r24,1
 1446 0582 893C      		cpi r24,201
 1447 0584 9105      		cpc r25,__zero_reg__
 1448 0586 01F4      		brne .L60
 1449               	.LBB342:
 1450               	.LBB343:
 1451               	.LM244:
 1452 0588 C498      		cbi 56-0x20,4
 1453               	.LBE343:
 1454               	.LM245:
 1455 058a 80E0      		ldi r24,lo8(0)
 1456               	.LVL77:
 1457 058c 0E94 0000 		call spi_putc
 1458 0590 082F      		mov r16,r24
 1459               	.LVL78:
 1460               	.LM246:
 1461 0592 80E0      		ldi r24,lo8(0)
 1462 0594 0E94 0000 		call spi_putc
 1463               	.LBB344:
 1464               	.LM247:
 1465 0598 C49A      		sbi 56-0x20,4
 1466               	.LM248:
 1467 059a 1127      		clr r17
 1468 059c 102F      		mov r17,r16
 1469 059e 0027      		clr r16
 1470               	.LVL79:
 1471 05a0 080F      		add r16,r24
 1472 05a2 111D      		adc r17,__zero_reg__
 1473 05a4 AFE0      		ldi r26,lo8(15)
 1474 05a6 EA2E      		mov r14,r26
 1475 05a8 F12C      		mov r15,__zero_reg__
 1476               	.LVL80:
 1477               	.L62:
 1478               	.LBE344:
 1479               	.LBE342:
 1480               	.LM249:
 1481 05aa C801      		movw r24,r16
 1482 05ac 0E2C      		mov r0,r14
 1483 05ae 00C0      		rjmp 2f
 1484 05b0 9695      	1:	lsr r25
 1485 05b2 8795      		ror r24
 1486 05b4 0A94      	2:	dec r0
 1487 05b6 02F4      		brpl 1b
 1488 05b8 8170      		andi r24,lo8(1)
 1489 05ba 9070      		andi r25,hi8(1)
 1490 05bc 0E94 0000 		call uart_puti
 1491               	.LM250:
 1492 05c0 0894      		sec
 1493 05c2 E108      		sbc r14,__zero_reg__
 1494 05c4 F108      		sbc r15,__zero_reg__
 1495 05c6 8FEF      		ldi r24,lo8(-1)
 1496 05c8 E816      		cp r14,r24
 1497 05ca 8FEF      		ldi r24,hi8(-1)
 1498 05cc F806      		cpc r15,r24
 1499 05ce 01F4      		brne .L62
 1500               	.LM251:
 1501 05d0 80E0      		ldi r24,lo8(.LC0)
 1502 05d2 90E0      		ldi r25,hi8(.LC0)
 1503 05d4 0E94 0000 		call uart_puts
 1504               	.LBB345:
 1505               	.LBB346:
 1506               	.LM252:
 1507 05d8 C498      		cbi 56-0x20,4
 1508               	.LBE346:
 1509               	.LM253:
 1510 05da 88EB      		ldi r24,lo8(-72)
 1511 05dc 0E94 0000 		call spi_putc
 1512               	.LM254:
 1513 05e0 8AEA      		ldi r24,lo8(-86)
 1514 05e2 0E94 0000 		call spi_putc
 1515               	.LBB347:
 1516               	.LM255:
 1517 05e6 C49A      		sbi 56-0x20,4
 1518               	.LBE347:
 1519               	.LBE345:
 1520               	.LBB348:
 1521               	.LBB349:
 1522               	.LM256:
 1523 05e8 C498      		cbi 56-0x20,4
 1524               	.LBE349:
 1525               	.LM257:
 1526 05ea 88EB      		ldi r24,lo8(-72)
 1527 05ec 0E94 0000 		call spi_putc
 1528               	.LM258:
 1529 05f0 8AEA      		ldi r24,lo8(-86)
 1530 05f2 0E94 0000 		call spi_putc
 1531               	.LBB350:
 1532               	.LM259:
 1533 05f6 C49A      		sbi 56-0x20,4
 1534               	.LBE350:
 1535               	.LBE348:
 1536               	.LBB351:
 1537               	.LBB352:
 1538               	.LM260:
 1539 05f8 C498      		cbi 56-0x20,4
 1540               	.LBE352:
 1541               	.LM261:
 1542 05fa 82E8      		ldi r24,lo8(-126)
 1543 05fc 0E94 0000 		call spi_putc
 1544               	.LM262:
 1545 0600 88EC      		ldi r24,lo8(-56)
 1546 0602 0E94 0000 		call spi_putc
 1547               	.LBB353:
 1548               	.LM263:
 1549 0606 C49A      		sbi 56-0x20,4
 1550               	.LBE353:
 1551               	.LBE351:
 1552               	.LBB354:
 1553               	.LBB355:
 1554               	.LM264:
 1555 0608 C498      		cbi 56-0x20,4
 1556               	.LBE355:
 1557               	.LM265:
 1558 060a 8AEC      		ldi r24,lo8(-54)
 1559 060c 0E94 0000 		call spi_putc
 1560               	.LM266:
 1561 0610 81E8      		ldi r24,lo8(-127)
 1562 0612 0E94 0000 		call spi_putc
 1563               	.LBB356:
 1564               	.LM267:
 1565 0616 C49A      		sbi 56-0x20,4
 1566               	.LBE356:
 1567               	.LBE354:
 1568               	.LBB357:
 1569               	.LBB358:
 1570               	.LM268:
 1571 0618 C498      		cbi 56-0x20,4
 1572               	.LBE358:
 1573               	.LM269:
 1574 061a 8AEC      		ldi r24,lo8(-54)
 1575 061c 0E94 0000 		call spi_putc
 1576               	.LM270:
 1577 0620 83E8      		ldi r24,lo8(-125)
 1578 0622 0E94 0000 		call spi_putc
 1579               	.LBB359:
 1580               	.LM271:
 1581 0626 C49A      		sbi 56-0x20,4
 1582               	.LBE359:
 1583               	.LBE357:
 1584               	.LM272:
 1585 0628 8091 0000 		lds r24,.LC1
 1586 062c 8983      		std Y+1,r24
 1587 062e 6E01      		movw r12,r28
 1588 0630 0894      		sec
 1589 0632 C11C      		adc r12,__zero_reg__
 1590 0634 D11C      		adc r13,__zero_reg__
 1591               	.L64:
 1592               	.LM273:
 1593 0636 88B3      		in r24,56-0x20
 1594 0638 98E0      		ldi r25,lo8(8)
 1595 063a 8927      		eor r24,r25
 1596 063c 88BB      		out 56-0x20,r24
 1597               	.LBB360:
 1598               	.LBB361:
 1599               	.LM274:
 1600 063e C498      		cbi 56-0x20,4
 1601               	.LBE361:
 1602               	.LM275:
 1603 0640 80E0      		ldi r24,lo8(0)
 1604 0642 0E94 0000 		call spi_putc
 1605 0646 082F      		mov r16,r24
 1606               	.LVL81:
 1607               	.LM276:
 1608 0648 80E0      		ldi r24,lo8(0)
 1609 064a 0E94 0000 		call spi_putc
 1610               	.LBB362:
 1611               	.LM277:
 1612 064e C49A      		sbi 56-0x20,4
 1613               	.LM278:
 1614 0650 1127      		clr r17
 1615 0652 102F      		mov r17,r16
 1616 0654 0027      		clr r16
 1617               	.LVL82:
 1618 0656 080F      		add r16,r24
 1619 0658 111D      		adc r17,__zero_reg__
 1620               	.LBE362:
 1621               	.LBE360:
 1622               	.LM279:
 1623 065a C801      		movw r24,r16
 1624 065c 8827      		clr r24
 1625 065e 990F      		lsl r25
 1626 0660 881F      		rol r24
 1627 0662 9927      		clr r25
 1628 0664 0E94 0000 		call uart_puti
 1629 0668 C801      		movw r24,r16
 1630 066a 84E0      		ldi r24,0x04
 1631 066c 989F      		mul r25,r24
 1632 066e 812D      		mov r24,r1
 1633 0670 9927      		clr r25
 1634 0672 1124      		clr __zero_reg__
 1635 0674 8170      		andi r24,lo8(1)
 1636 0676 9070      		andi r25,hi8(1)
 1637 0678 0E94 0000 		call uart_puti
 1638 067c C801      		movw r24,r16
 1639 067e 892F      		mov r24,r25
 1640 0680 9927      		clr r25
 1641 0682 8295      		swap r24
 1642 0684 8695      		lsr r24
 1643 0686 8770      		andi r24,0x07
 1644 0688 8170      		andi r24,lo8(1)
 1645 068a 9070      		andi r25,hi8(1)
 1646 068c 0E94 0000 		call uart_puti
 1647 0690 C801      		movw r24,r16
 1648 0692 892F      		mov r24,r25
 1649 0694 9927      		clr r25
 1650 0696 8295      		swap r24
 1651 0698 8F70      		andi r24,0x0f
 1652 069a 8170      		andi r24,lo8(1)
 1653 069c 9070      		andi r25,hi8(1)
 1654 069e 0E94 0000 		call uart_puti
 1655 06a2 C801      		movw r24,r16
 1656 06a4 892F      		mov r24,r25
 1657 06a6 9927      		clr r25
 1658 06a8 8695      		lsr r24
 1659 06aa 8695      		lsr r24
 1660 06ac 8695      		lsr r24
 1661 06ae 8170      		andi r24,lo8(1)
 1662 06b0 9070      		andi r25,hi8(1)
 1663 06b2 0E94 0000 		call uart_puti
 1664 06b6 C801      		movw r24,r16
 1665 06b8 892F      		mov r24,r25
 1666 06ba 9927      		clr r25
 1667 06bc 8695      		lsr r24
 1668 06be 8695      		lsr r24
 1669 06c0 8170      		andi r24,lo8(1)
 1670 06c2 9070      		andi r25,hi8(1)
 1671 06c4 0E94 0000 		call uart_puti
 1672 06c8 C801      		movw r24,r16
 1673 06ca 892F      		mov r24,r25
 1674 06cc 9927      		clr r25
 1675 06ce 8695      		lsr r24
 1676 06d0 8170      		andi r24,lo8(1)
 1677 06d2 9070      		andi r25,hi8(1)
 1678 06d4 0E94 0000 		call uart_puti
 1679 06d8 812F      		mov r24,r17
 1680 06da 9927      		clr r25
 1681 06dc 8170      		andi r24,lo8(1)
 1682 06de 9070      		andi r25,hi8(1)
 1683 06e0 0E94 0000 		call uart_puti
 1684 06e4 C801      		movw r24,r16
 1685 06e6 880F      		lsl r24
 1686 06e8 892F      		mov r24,r25
 1687 06ea 881F      		rol r24
 1688 06ec 990B      		sbc r25,r25
 1689 06ee 9195      		neg r25
 1690 06f0 8170      		andi r24,lo8(1)
 1691 06f2 9070      		andi r25,hi8(1)
 1692 06f4 0E94 0000 		call uart_puti
 1693 06f8 C801      		movw r24,r16
 1694 06fa 0024      		clr __tmp_reg__
 1695 06fc 880F      		lsl r24
 1696 06fe 991F      		rol r25
 1697 0700 001C      		rol __tmp_reg__
 1698 0702 880F      		lsl r24
 1699 0704 991F      		rol r25
 1700 0706 001C      		rol __tmp_reg__
 1701 0708 892F      		mov r24,r25
 1702 070a 902D      		mov r25,__tmp_reg__
 1703 070c 8170      		andi r24,lo8(1)
 1704 070e 9070      		andi r25,hi8(1)
 1705 0710 0E94 0000 		call uart_puti
 1706 0714 C801      		movw r24,r16
 1707 0716 9695      		lsr r25
 1708 0718 8795      		ror r24
 1709 071a 9295      		swap r25
 1710 071c 8295      		swap r24
 1711 071e 8F70      		andi r24,0x0f
 1712 0720 8927      		eor r24,r25
 1713 0722 9F70      		andi r25,0x0f
 1714 0724 8927      		eor r24,r25
 1715 0726 8170      		andi r24,lo8(1)
 1716 0728 9070      		andi r25,hi8(1)
 1717 072a 0E94 0000 		call uart_puti
 1718 072e C801      		movw r24,r16
 1719 0730 9295      		swap r25
 1720 0732 8295      		swap r24
 1721 0734 8F70      		andi r24,0x0f
 1722 0736 8927      		eor r24,r25
 1723 0738 9F70      		andi r25,0x0f
 1724 073a 8927      		eor r24,r25
 1725 073c 8170      		andi r24,lo8(1)
 1726 073e 9070      		andi r25,hi8(1)
 1727 0740 0E94 0000 		call uart_puti
 1728 0744 C801      		movw r24,r16
 1729 0746 9695      		lsr r25
 1730 0748 8795      		ror r24
 1731 074a 9695      		lsr r25
 1732 074c 8795      		ror r24
 1733 074e 9695      		lsr r25
 1734 0750 8795      		ror r24
 1735 0752 8170      		andi r24,lo8(1)
 1736 0754 9070      		andi r25,hi8(1)
 1737 0756 0E94 0000 		call uart_puti
 1738 075a C801      		movw r24,r16
 1739 075c 9695      		lsr r25
 1740 075e 8795      		ror r24
 1741 0760 9695      		lsr r25
 1742 0762 8795      		ror r24
 1743 0764 8170      		andi r24,lo8(1)
 1744 0766 9070      		andi r25,hi8(1)
 1745 0768 0E94 0000 		call uart_puti
 1746 076c C801      		movw r24,r16
 1747 076e 9695      		lsr r25
 1748 0770 8795      		ror r24
 1749 0772 8170      		andi r24,lo8(1)
 1750 0774 9070      		andi r25,hi8(1)
 1751 0776 0E94 0000 		call uart_puti
 1752 077a C801      		movw r24,r16
 1753 077c 8170      		andi r24,lo8(1)
 1754 077e 9070      		andi r25,hi8(1)
 1755 0780 0E94 0000 		call uart_puti
 1756               	.LM280:
 1757 0784 80E0      		ldi r24,lo8(.LC0)
 1758 0786 90E0      		ldi r25,hi8(.LC0)
 1759 0788 0E94 0000 		call uart_puts
 1760               	.LBB363:
 1761               	.LBB364:
 1762               	.LBB365:
 1763               	.LBB366:
 1764               	.LM281:
 1765 078c C498      		cbi 56-0x20,4
 1766               	.LM282:
 1767               	/* #APP */
 1768 078e 0000      		nop
 1769               	/* #NOAPP */
 1770 0790 44E2      		ldi r20,lo8(36)
 1771 0792 F42E      		mov r15,r20
 1772 0794 00C0      		rjmp .L65
 1773               	.LVL83:
 1774               	.L66:
 1775               	.LBB367:
 1776               	.LBB368:
 1777               	.LBB369:
 1778               	.LBB370:
 1779               	.LM283:
 1780 0796 8F2D      		mov r24,r15
 1781               	.LVL84:
 1782               	/* #APP */
 1783 0798 8A95      		1: dec r24
 1784 079a 01F4      		brne 1b
 1785               	.LVL85:
 1786               	/* #NOAPP */
 1787               	.L65:
 1788               	.LBE370:
 1789               	.LBE369:
 1790               	.LBE368:
 1791               	.LBE367:
 1792               	.LBB371:
 1793               	.LBB372:
 1794               	.LM284:
 1795 079c C498      		cbi 56-0x20,4
 1796               	.LBE372:
 1797               	.LM285:
 1798 079e 80E0      		ldi r24,lo8(0)
 1799               	.LVL86:
 1800 07a0 0E94 0000 		call spi_putc
 1801 07a4 082F      		mov r16,r24
 1802               	.LVL87:
 1803               	.LM286:
 1804 07a6 80E0      		ldi r24,lo8(0)
 1805 07a8 0E94 0000 		call spi_putc
 1806               	.LBB373:
 1807               	.LM287:
 1808 07ac C49A      		sbi 56-0x20,4
 1809               	.LBE373:
 1810               	.LBE371:
 1811               	.LM288:
 1812 07ae 1127      		clr r17
 1813 07b0 102F      		mov r17,r16
 1814 07b2 0027      		clr r16
 1815               	.LVL88:
 1816 07b4 080F      		add r16,r24
 1817 07b6 111D      		adc r17,__zero_reg__
 1818 07b8 17FF      		sbrs r17,7
 1819 07ba 00C0      		rjmp .L66
 1820               	.LM289:
 1821 07bc C49A      		sbi 56-0x20,4
 1822               	.LBE366:
 1823               	.LBE365:
 1824               	.LBB374:
 1825               	.LBB375:
 1826               	.LM290:
 1827 07be C498      		cbi 56-0x20,4
 1828               	.LBE375:
 1829               	.LM291:
 1830 07c0 80EB      		ldi r24,lo8(-80)
 1831 07c2 0E94 0000 		call spi_putc
 1832               	.LM292:
 1833 07c6 80E0      		ldi r24,lo8(0)
 1834 07c8 0E94 0000 		call spi_putc
 1835               	.LBB376:
 1836               	.LM293:
 1837 07cc C49A      		sbi 56-0x20,4
 1838               	.LBE376:
 1839               	.LBE374:
 1840               	.LM294:
 1841 07ce 8983      		std Y+1,r24
 1842               	.LBE364:
 1843               	.LBE363:
 1844               	.LM295:
 1845 07d0 C601      		movw r24,r12
 1846 07d2 0E94 0000 		call uart_puts
 1847               	.LM296:
 1848 07d6 80E0      		ldi r24,lo8(.LC0)
 1849 07d8 90E0      		ldi r25,hi8(.LC0)
 1850 07da 0E94 0000 		call uart_puts
 1851 07de 00C0      		rjmp .L64
 1852               	/* epilogue: frame size=1 */
 1853               	/* epilogue: noreturn */
 1854               	/* epilogue end (size=0) */
 1855               	/* function main size 542 (526) */
 1856               	.LFE7:
 1922               	.Letext0:
DEFINED SYMBOLS
                            *ABS*:00000000 main.c
C:\DOKUME~1\Olaf\LOKALE~1\Temp/ccczifat.s:3      *ABS*:0000003f __SREG__
C:\DOKUME~1\Olaf\LOKALE~1\Temp/ccczifat.s:4      *ABS*:0000003e __SP_H__
C:\DOKUME~1\Olaf\LOKALE~1\Temp/ccczifat.s:5      *ABS*:0000003d __SP_L__
C:\DOKUME~1\Olaf\LOKALE~1\Temp/ccczifat.s:6      *ABS*:00000000 __tmp_reg__
C:\DOKUME~1\Olaf\LOKALE~1\Temp/ccczifat.s:7      *ABS*:00000001 __zero_reg__
C:\DOKUME~1\Olaf\LOKALE~1\Temp/ccczifat.s:20     .text:00000000 rfm12_wrt_cmd
C:\DOKUME~1\Olaf\LOKALE~1\Temp/ccczifat.s:65     .text:00000034 rfm12_readStatus
C:\DOKUME~1\Olaf\LOKALE~1\Temp/ccczifat.s:102    .text:0000005c rfm12_ready
C:\DOKUME~1\Olaf\LOKALE~1\Temp/ccczifat.s:177    .text:0000009c rfm12_rxdata
C:\DOKUME~1\Olaf\LOKALE~1\Temp/ccczifat.s:305    .text:00000112 rfm12_txdata
C:\DOKUME~1\Olaf\LOKALE~1\Temp/ccczifat.s:1067   .text:000003ac main

UNDEFINED SYMBOLS
__do_copy_data
__do_clear_bss
spi_putc
uart_init
spi_init
uart_puti
uart_puts
