   1               		.file	"rf12.c"
   2               		.arch atmega16
   3               	__SREG__ = 0x3f
   4               	__SP_H__ = 0x3e
   5               	__SP_L__ = 0x3d
   6               	__tmp_reg__ = 0
   7               	__zero_reg__ = 1
   8               		.global __do_copy_data
   9               		.global __do_clear_bss
  17               	.Ltext0:
  18               	.global	spi_init
  20               	spi_init:
  21               	.LFB6:
  22               	.LM1:
  23               	/* prologue: frame size=0 */
  24               	/* prologue end (size=0) */
  25               	.LM2:
  26 0000 87B3      		in r24,55-0x20
  27 0002 806B      		ori r24,lo8(-80)
  28 0004 87BB      		out 55-0x20,r24
  29               	.LM3:
  30 0006 88B3      		in r24,56-0x20
  31 0008 8F71      		andi r24,lo8(31)
  32 000a 88BB      		out 56-0x20,r24
  33               	.LM4:
  34 000c C49A      		sbi 56-0x20,4
  35               	.LM5:
  36 000e 80E5      		ldi r24,lo8(80)
  37 0010 8DB9      		out 45-0x20,r24
  38               	.LM6:
  39 0012 81E0      		ldi r24,lo8(1)
  40 0014 8EB9      		out 46-0x20,r24
  41               	/* epilogue: frame size=0 */
  42 0016 0895      		ret
  43               	/* epilogue end (size=1) */
  44               	/* function spi_init size 12 (11) */
  45               	.LFE6:
  47               	.global	spi_putc
  49               	spi_putc:
  50               	.LFB7:
  51               	.LM7:
  52               	/* prologue: frame size=0 */
  53               	/* prologue end (size=0) */
  54               	.LVL0:
  55               	.LM8:
  56 0018 8FB9      		out 47-0x20,r24
  57               	.L4:
  58               	.LM9:
  59 001a 779B      		sbis 46-0x20,7
  60 001c 00C0      		rjmp .L4
  61               	.LM10:
  62 001e 8FB1      		in r24,47-0x20
  63               	.LVL1:
  64               	.LM11:
  65 0020 9927      		clr r25
  66               	/* epilogue: frame size=0 */
  67 0022 0895      		ret
  68               	/* epilogue end (size=1) */
  69               	/* function spi_putc size 6 (5) */
  70               	.LFE7:
  72               	.global	rf12_trans
  74               	rf12_trans:
  75               	.LFB9:
  76               	.LM12:
  77               	/* prologue: frame size=0 */
  78               	/* prologue end (size=0) */
  79               	.LVL2:
  80               	.LM13:
  81 0024 C498      		cbi 56-0x20,4
  82               	.LM14:
  83 0026 982F      		mov r25,r24
  84               	.LBB14:
  85               	.LBB15:
  86               	.LM15:
  87 0028 1FB8      		out 47-0x20,__zero_reg__
  88               	.L11:
  89               	.LM16:
  90 002a 779B      		sbis 46-0x20,7
  91 002c 00C0      		rjmp .L11
  92               	.LM17:
  93 002e 8FB1      		in r24,47-0x20
  94               	.LVL3:
  95               	.LBE15:
  96               	.LBE14:
  97               	.LBB16:
  98               	.LBB17:
  99               	.LM18:
 100 0030 9FB9      		out 47-0x20,r25
 101               	.L13:
 102               	.LM19:
 103 0032 779B      		sbis 46-0x20,7
 104 0034 00C0      		rjmp .L13
 105               	.LM20:
 106 0036 2FB1      		in r18,47-0x20
 107               	.LBE17:
 108               	.LBE16:
 109               	.LM21:
 110 0038 9927      		clr r25
 111 003a 982F      		mov r25,r24
 112 003c 8827      		clr r24
 113               	.LVL4:
 114               	.LM22:
 115 003e C49A      		sbi 56-0x20,4
 116 0040 3327      		clr r19
 117               	.LM23:
 118 0042 822B      		or r24,r18
 119 0044 932B      		or r25,r19
 120               	.LVL5:
 121               	/* epilogue: frame size=0 */
 122 0046 0895      		ret
 123               	/* epilogue end (size=1) */
 124               	/* function rf12_trans size 18 (17) */
 125               	.LFE9:
 127               	.global	rf12_ready
 129               	rf12_ready:
 130               	.LFB14:
 131               	.LM24:
 132               	/* prologue: frame size=0 */
 133               	/* prologue end (size=0) */
 134               	.LM25:
 135 0048 C498      		cbi 56-0x20,4
 136               	.LM26:
 137               	/* #APP */
 138 004a 0000      		nop
 139               	.LM27:
 140               	/* #NOAPP */
 141 004c B699      		sbic 54-0x20,6
 142 004e 00C0      		rjmp .L21
 143               	.LM28:
 144 0050 28EE      		ldi r18,lo8(1000)
 145 0052 33E0      		ldi r19,hi8(1000)
 146               	.LVL6:
 147 0054 94E2      		ldi r25,lo8(36)
 148 0056 00C0      		rjmp .L23
 149               	.LVL7:
 150               	.L27:
 151               	.LM29:
 152 0058 2150      		subi r18,lo8(-(-1))
 153 005a 3040      		sbci r19,hi8(-(-1))
 154               	.LM30:
 155 005c 01F0      		breq .L21
 156               	.L23:
 157               	.LBB18:
 158               	.LBB19:
 159               	.LBB20:
 160               	.LBB21:
 161               	.LM31:
 162 005e 892F      		mov r24,r25
 163               	/* #APP */
 164 0060 8A95      		1: dec r24
 165 0062 01F4      		brne 1b
 166               	/* #NOAPP */
 167               	.LBE21:
 168               	.LBE20:
 169               	.LBE19:
 170               	.LBE18:
 171               	.LM32:
 172 0064 B69B      		sbis 54-0x20,6
 173 0066 00C0      		rjmp .L27
 174               	.L21:
 175               	.LM33:
 176 0068 C49A      		sbi 56-0x20,4
 177               	/* epilogue: frame size=0 */
 178 006a 0895      		ret
 179               	/* epilogue end (size=1) */
 180               	/* function rf12_ready size 23 (22) */
 181               	.LFE14:
 183               	.global	rf12_setpower
 185               	rf12_setpower:
 186               	.LFB13:
 187               	.LM34:
 188               	/* prologue: frame size=0 */
 189               	/* prologue end (size=0) */
 190               	.LVL8:
 191               	.LBB28:
 192               	.LBB29:
 193               	.LM35:
 194 006c C498      		cbi 56-0x20,4
 195               	.LVL9:
 196               	.LM36:
 197 006e 6295      		swap r22
 198 0070 607F      		andi r22,0xf0
 199 0072 8770      		andi r24,lo8(7)
 200               	.LVL10:
 201 0074 682B      		or r22,r24
 202               	.LBB30:
 203               	.LBB31:
 204               	.LM37:
 205 0076 1FB8      		out 47-0x20,__zero_reg__
 206               	.L29:
 207               	.LM38:
 208 0078 779B      		sbis 46-0x20,7
 209 007a 00C0      		rjmp .L29
 210               	.LM39:
 211 007c 8FB1      		in r24,47-0x20
 212               	.LBE31:
 213               	.LBE30:
 214               	.LBB32:
 215               	.LBB33:
 216               	.LM40:
 217 007e 6FB9      		out 47-0x20,r22
 218               	.L31:
 219               	.LM41:
 220 0080 779B      		sbis 46-0x20,7
 221 0082 00C0      		rjmp .L31
 222               	.LM42:
 223 0084 8FB1      		in r24,47-0x20
 224               	.LBE33:
 225               	.LBE32:
 226               	.LM43:
 227 0086 C49A      		sbi 56-0x20,4
 228               	.LBE29:
 229               	.LBE28:
 230               	/* epilogue: frame size=0 */
 231 0088 0895      		ret
 232               	/* epilogue end (size=1) */
 233               	/* function rf12_setpower size 15 (14) */
 234               	.LFE13:
 236               	.global	rf12_setbaud
 238               	rf12_setbaud:
 239               	.LFB12:
 240               	.LM44:
 241               	/* prologue: frame size=0 */
 242               	/* prologue end (size=0) */
 243               	.LVL11:
 244               	.LM45:
 245 008a 22E0      		ldi r18,hi8(663)
 246 008c 8739      		cpi r24,lo8(663)
 247 008e 9207      		cpc r25,r18
 248 0090 00F0      		brlo .L51
 249               	.LM46:
 250 0092 25E1      		ldi r18,hi8(5400)
 251 0094 8831      		cpi r24,lo8(5400)
 252 0096 9207      		cpc r25,r18
 253 0098 00F0      		brlo .L60
 254               	.LBB46:
 255               	.LBB47:
 256               	.LM47:
 257 009a C498      		cbi 56-0x20,4
 258               	.LM48:
 259 009c 9C01      		movw r18,r24
 260 009e 4427      		clr r20
 261 00a0 5527      		clr r21
 262 00a2 6CEF      		ldi r22,lo8(344828)
 263 00a4 72E4      		ldi r23,hi8(344828)
 264 00a6 85E0      		ldi r24,hlo8(344828)
 265 00a8 90E0      		ldi r25,hhi8(344828)
 266 00aa 0E94 0000 		call __udivmodsi4
 267 00ae 2150      		subi r18,lo8(-(-1))
 268               	.LBB48:
 269               	.LBB49:
 270               	.LM49:
 271 00b0 1FB8      		out 47-0x20,__zero_reg__
 272               	.L47:
 273               	.LM50:
 274 00b2 779B      		sbis 46-0x20,7
 275 00b4 00C0      		rjmp .L47
 276               	.LM51:
 277 00b6 8FB1      		in r24,47-0x20
 278               	.LVL12:
 279               	.LBE49:
 280               	.LBE48:
 281               	.LBB50:
 282               	.LBB51:
 283               	.LM52:
 284 00b8 2FB9      		out 47-0x20,r18
 285               	.L49:
 286               	.LM53:
 287 00ba 779B      		sbis 46-0x20,7
 288 00bc 00C0      		rjmp .L49
 289               	.LM54:
 290 00be 8FB1      		in r24,47-0x20
 291               	.LBE51:
 292               	.LBE50:
 293               	.LM55:
 294 00c0 C49A      		sbi 56-0x20,4
 295               	.LVL13:
 296               	.L51:
 297 00c2 0895      		ret
 298               	.L60:
 299               	.LBE47:
 300               	.LBE46:
 301               	.LBB52:
 302               	.LBB53:
 303               	.LM56:
 304 00c4 C498      		cbi 56-0x20,4
 305               	.LM57:
 306 00c6 9C01      		movw r18,r24
 307 00c8 4427      		clr r20
 308 00ca 5527      		clr r21
 309 00cc 60E6      		ldi r22,lo8(43104)
 310 00ce 78EA      		ldi r23,hi8(43104)
 311 00d0 80E0      		ldi r24,hlo8(43104)
 312 00d2 90E0      		ldi r25,hhi8(43104)
 313 00d4 0E94 0000 		call __divmodsi4
 314 00d8 2150      		subi r18,lo8(-(-1))
 315 00da 3040      		sbci r19,hi8(-(-1))
 316 00dc 2068      		ori r18,lo8(-128)
 317               	.LBB54:
 318               	.LBB55:
 319               	.LM58:
 320 00de 1FB8      		out 47-0x20,__zero_reg__
 321               	.L43:
 322               	.LM59:
 323 00e0 779B      		sbis 46-0x20,7
 324 00e2 00C0      		rjmp .L43
 325               	.LM60:
 326 00e4 8FB1      		in r24,47-0x20
 327               	.LVL14:
 328               	.LBE55:
 329               	.LBE54:
 330               	.LBB56:
 331               	.LBB57:
 332               	.LM61:
 333 00e6 2FB9      		out 47-0x20,r18
 334               	.L45:
 335               	.LM62:
 336 00e8 779B      		sbis 46-0x20,7
 337 00ea 00C0      		rjmp .L45
 338               	.LM63:
 339 00ec 8FB1      		in r24,47-0x20
 340               	.LBE57:
 341               	.LBE56:
 342               	.LM64:
 343 00ee C49A      		sbi 56-0x20,4
 344 00f0 0895      		ret
 345               	.LBE53:
 346               	.LBE52:
 347               	/* epilogue: frame size=0 */
 348               	/* epilogue: noreturn */
 349               	/* epilogue end (size=0) */
 350               	/* function rf12_setbaud size 52 (52) */
 351               	.LFE12:
 353               	.global	rf12_setfreq
 355               	rf12_setfreq:
 356               	.LFB11:
 357               	.LM65:
 358               	/* prologue: frame size=0 */
 359               	/* prologue end (size=0) */
 360               	.LVL15:
 361 00f2 8036      		cpi r24,96
 362 00f4 9105      		cpc r25,__zero_reg__
 363 00f6 00F4      		brsh .L62
 364               	.LM66:
 365 00f8 90E6      		ldi r25,lo8(96)
 366 00fa 80E0      		ldi r24,lo8(0)
 367               	.LVL16:
 368               	.L64:
 369               	.LBB64:
 370               	.LBB65:
 371               	.LM67:
 372 00fc C498      		cbi 56-0x20,4
 373               	.LBB66:
 374               	.LBB67:
 375               	.LM68:
 376 00fe 8FB9      		out 47-0x20,r24
 377               	.L66:
 378               	.LM69:
 379 0100 779B      		sbis 46-0x20,7
 380 0102 00C0      		rjmp .L66
 381               	.LM70:
 382 0104 8FB1      		in r24,47-0x20
 383               	.LBE67:
 384               	.LBE66:
 385               	.LBB68:
 386               	.LBB69:
 387               	.LM71:
 388 0106 9FB9      		out 47-0x20,r25
 389               	.L68:
 390               	.LM72:
 391 0108 779B      		sbis 46-0x20,7
 392 010a 00C0      		rjmp .L68
 393 010c 00C0      		rjmp .L77
 394               	.LVL17:
 395               	.L62:
 396               	.LBE69:
 397               	.LBE68:
 398               	.LBE65:
 399               	.LBE64:
 400               	.LM73:
 401 010e 2FE0      		ldi r18,hi8(3904)
 402 0110 8034      		cpi r24,lo8(3904)
 403 0112 9207      		cpc r25,r18
 404 0114 00F4      		brsh .L76
 405 0116 982F      		mov r25,r24
 406 0118 80E0      		ldi r24,lo8(0)
 407               	.LVL18:
 408 011a 00C0      		rjmp .L64
 409               	.LVL19:
 410               	.L76:
 411 011c 8FE3      		ldi r24,lo8(3903)
 412 011e 9FE0      		ldi r25,hi8(3903)
 413 0120 982F      		mov r25,r24
 414 0122 80E0      		ldi r24,lo8(0)
 415               	.LVL20:
 416 0124 00C0      		rjmp .L64
 417               	.L77:
 418               	.LBB70:
 419               	.LBB71:
 420               	.LBB72:
 421               	.LBB73:
 422               	.LM74:
 423 0126 8FB1      		in r24,47-0x20
 424               	.LBE73:
 425               	.LBE72:
 426               	.LM75:
 427 0128 C49A      		sbi 56-0x20,4
 428               	.LBE71:
 429               	.LBE70:
 430               	/* epilogue: frame size=0 */
 431 012a 0895      		ret
 432               	/* epilogue end (size=1) */
 433               	/* function rf12_setfreq size 29 (28) */
 434               	.LFE11:
 436               	.global	rf12_setbandwidth
 438               	rf12_setbandwidth:
 439               	.LFB10:
 440               	.LM76:
 441               	/* prologue: frame size=0 */
 442               	/* prologue end (size=0) */
 443               	.LVL21:
 444               	.LBB80:
 445               	.LBB81:
 446               	.LM77:
 447 012c C498      		cbi 56-0x20,4
 448               	.LM78:
 449 012e 9927      		clr r25
 450 0130 8770      		andi r24,lo8(7)
 451 0132 9070      		andi r25,hi8(7)
 452 0134 880F      		lsl r24
 453 0136 991F      		rol r25
 454 0138 8295      		swap r24
 455 013a 9295      		swap r25
 456 013c 907F      		andi r25,0xf0
 457 013e 9827      		eor r25,r24
 458 0140 807F      		andi r24,0xf0
 459 0142 9827      		eor r25,r24
 460 0144 5527      		clr r21
 461 0146 4770      		andi r20,lo8(7)
 462 0148 5070      		andi r21,hi8(7)
 463 014a 842B      		or r24,r20
 464 014c 952B      		or r25,r21
 465 014e 7727      		clr r23
 466 0150 6370      		andi r22,lo8(3)
 467 0152 7070      		andi r23,hi8(3)
 468 0154 660F      		lsl r22
 469 0156 771F      		rol r23
 470 0158 660F      		lsl r22
 471 015a 771F      		rol r23
 472 015c 660F      		lsl r22
 473 015e 771F      		rol r23
 474               	.LVL22:
 475 0160 682B      		or r22,r24
 476               	.LVL23:
 477               	.LBB82:
 478               	.LBB83:
 479               	.LM79:
 480 0162 1FB8      		out 47-0x20,__zero_reg__
 481               	.L79:
 482               	.LM80:
 483 0164 779B      		sbis 46-0x20,7
 484 0166 00C0      		rjmp .L79
 485               	.LM81:
 486 0168 8FB1      		in r24,47-0x20
 487               	.LVL24:
 488               	.LBE83:
 489               	.LBE82:
 490               	.LBB84:
 491               	.LBB85:
 492               	.LM82:
 493 016a 6FB9      		out 47-0x20,r22
 494               	.L81:
 495               	.LM83:
 496 016c 779B      		sbis 46-0x20,7
 497 016e 00C0      		rjmp .L81
 498               	.LM84:
 499 0170 8FB1      		in r24,47-0x20
 500               	.LBE85:
 501               	.LBE84:
 502               	.LM85:
 503 0172 C49A      		sbi 56-0x20,4
 504               	.LBE81:
 505               	.LBE80:
 506               	/* epilogue: frame size=0 */
 507 0174 0895      		ret
 508               	/* epilogue end (size=1) */
 509               	/* function rf12_setbandwidth size 37 (36) */
 510               	.LFE10:
 512               	.global	rf12_init
 514               	rf12_init:
 515               	.LFB8:
 516               	.LM86:
 517               	/* prologue: frame size=0 */
 518               	/* prologue end (size=0) */
 519               	.LBB135:
 520               	.LBB136:
 521               	.LM87:
 522 0176 87B3      		in r24,55-0x20
 523 0178 806B      		ori r24,lo8(-80)
 524 017a 87BB      		out 55-0x20,r24
 525               	.LM88:
 526 017c 88B3      		in r24,56-0x20
 527 017e 8F71      		andi r24,lo8(31)
 528 0180 88BB      		out 56-0x20,r24
 529               	.LM89:
 530 0182 C49A      		sbi 56-0x20,4
 531               	.LM90:
 532 0184 80E5      		ldi r24,lo8(80)
 533 0186 8DB9      		out 45-0x20,r24
 534               	.LM91:
 535 0188 81E0      		ldi r24,lo8(1)
 536 018a 8EB9      		out 46-0x20,r24
 537               	.LBE136:
 538               	.LBE135:
 539               	.LBB137:
 540               	.LBB138:
 541               	.LBB139:
 542               	.LBB140:
 543               	.LBB141:
 544               	.LM92:
 545 018c 8FEF      		ldi r24,lo8(27647)
 546 018e 9BE6      		ldi r25,hi8(27647)
 547 0190 FC01      		movw r30,r24
 548               	.LVL25:
 549               	/* #APP */
 550 0192 3197      		1: sbiw r30,1
 551 0194 01F4      		brne 1b
 552               	/* #NOAPP */
 553 0196 FC01      		movw r30,r24
 554               	.LVL26:
 555               	/* #APP */
 556 0198 3197      		1: sbiw r30,1
 557 019a 01F4      		brne 1b
 558               	/* #NOAPP */
 559 019c FC01      		movw r30,r24
 560               	.LVL27:
 561               	/* #APP */
 562 019e 3197      		1: sbiw r30,1
 563 01a0 01F4      		brne 1b
 564               	/* #NOAPP */
 565 01a2 FC01      		movw r30,r24
 566               	.LVL28:
 567               	/* #APP */
 568 01a4 3197      		1: sbiw r30,1
 569 01a6 01F4      		brne 1b
 570               	/* #NOAPP */
 571 01a8 FC01      		movw r30,r24
 572               	.LVL29:
 573               	/* #APP */
 574 01aa 3197      		1: sbiw r30,1
 575 01ac 01F4      		brne 1b
 576               	/* #NOAPP */
 577 01ae FC01      		movw r30,r24
 578               	.LVL30:
 579               	/* #APP */
 580 01b0 3197      		1: sbiw r30,1
 581 01b2 01F4      		brne 1b
 582               	/* #NOAPP */
 583 01b4 FC01      		movw r30,r24
 584               	.LVL31:
 585               	/* #APP */
 586 01b6 3197      		1: sbiw r30,1
 587 01b8 01F4      		brne 1b
 588               	/* #NOAPP */
 589 01ba FC01      		movw r30,r24
 590               	.LVL32:
 591               	/* #APP */
 592 01bc 3197      		1: sbiw r30,1
 593 01be 01F4      		brne 1b
 594               	/* #NOAPP */
 595 01c0 FC01      		movw r30,r24
 596               	.LVL33:
 597               	/* #APP */
 598 01c2 3197      		1: sbiw r30,1
 599 01c4 01F4      		brne 1b
 600 01c6 0197      		1: sbiw r24,1
 601 01c8 01F4      		brne 1b
 602               	.LVL34:
 603               	/* #NOAPP */
 604               	.LBE141:
 605               	.LBE140:
 606               	.LBE139:
 607               	.LBE138:
 608               	.LBE137:
 609               	.LBB142:
 610               	.LBB143:
 611               	.LM93:
 612 01ca C498      		cbi 56-0x20,4
 613               	.LBB144:
 614               	.LBB145:
 615               	.LM94:
 616 01cc 1FB8      		out 47-0x20,__zero_reg__
 617               	.L89:
 618               	.LM95:
 619 01ce 779B      		sbis 46-0x20,7
 620 01d0 00C0      		rjmp .L89
 621               	.LM96:
 622 01d2 8FB1      		in r24,47-0x20
 623               	.LVL35:
 624               	.LBE145:
 625               	.LBE144:
 626               	.LBB146:
 627               	.LBB147:
 628               	.LM97:
 629 01d4 80EE      		ldi r24,lo8(-32)
 630 01d6 8FB9      		out 47-0x20,r24
 631               	.L91:
 632               	.LM98:
 633 01d8 779B      		sbis 46-0x20,7
 634 01da 00C0      		rjmp .L91
 635               	.LM99:
 636 01dc 8FB1      		in r24,47-0x20
 637               	.LBE147:
 638               	.LBE146:
 639               	.LM100:
 640 01de C49A      		sbi 56-0x20,4
 641               	.LBE143:
 642               	.LBE142:
 643               	.LBB148:
 644               	.LBB149:
 645               	.LM101:
 646 01e0 C498      		cbi 56-0x20,4
 647               	.LBB150:
 648               	.LBB151:
 649               	.LM102:
 650 01e2 1FB8      		out 47-0x20,__zero_reg__
 651               	.L93:
 652               	.LM103:
 653 01e4 779B      		sbis 46-0x20,7
 654 01e6 00C0      		rjmp .L93
 655               	.LM104:
 656 01e8 8FB1      		in r24,47-0x20
 657               	.LBE151:
 658               	.LBE150:
 659               	.LBB152:
 660               	.LBB153:
 661               	.LM105:
 662 01ea 87ED      		ldi r24,lo8(-41)
 663 01ec 8FB9      		out 47-0x20,r24
 664               	.L95:
 665               	.LM106:
 666 01ee 779B      		sbis 46-0x20,7
 667 01f0 00C0      		rjmp .L95
 668               	.LM107:
 669 01f2 8FB1      		in r24,47-0x20
 670               	.LBE153:
 671               	.LBE152:
 672               	.LM108:
 673 01f4 C49A      		sbi 56-0x20,4
 674               	.LBE149:
 675               	.LBE148:
 676               	.LBB154:
 677               	.LBB155:
 678               	.LM109:
 679 01f6 C498      		cbi 56-0x20,4
 680               	.LBB156:
 681               	.LBB157:
 682               	.LM110:
 683 01f8 1FB8      		out 47-0x20,__zero_reg__
 684               	.L97:
 685               	.LM111:
 686 01fa 779B      		sbis 46-0x20,7
 687 01fc 00C0      		rjmp .L97
 688               	.LM112:
 689 01fe 8FB1      		in r24,47-0x20
 690               	.LBE157:
 691               	.LBE156:
 692               	.LBB158:
 693               	.LBB159:
 694               	.LM113:
 695 0200 8BEA      		ldi r24,lo8(-85)
 696 0202 8FB9      		out 47-0x20,r24
 697               	.L99:
 698               	.LM114:
 699 0204 779B      		sbis 46-0x20,7
 700 0206 00C0      		rjmp .L99
 701               	.LM115:
 702 0208 8FB1      		in r24,47-0x20
 703               	.LBE159:
 704               	.LBE158:
 705               	.LM116:
 706 020a C49A      		sbi 56-0x20,4
 707               	.LBE155:
 708               	.LBE154:
 709               	.LBB160:
 710               	.LBB161:
 711               	.LM117:
 712 020c C498      		cbi 56-0x20,4
 713               	.LBB162:
 714               	.LBB163:
 715               	.LM118:
 716 020e 1FB8      		out 47-0x20,__zero_reg__
 717               	.L101:
 718               	.LM119:
 719 0210 779B      		sbis 46-0x20,7
 720 0212 00C0      		rjmp .L101
 721               	.LM120:
 722 0214 8FB1      		in r24,47-0x20
 723               	.LBE163:
 724               	.LBE162:
 725               	.LBB164:
 726               	.LBB165:
 727               	.LM121:
 728 0216 81E8      		ldi r24,lo8(-127)
 729 0218 8FB9      		out 47-0x20,r24
 730               	.L103:
 731               	.LM122:
 732 021a 779B      		sbis 46-0x20,7
 733 021c 00C0      		rjmp .L103
 734               	.LM123:
 735 021e 8FB1      		in r24,47-0x20
 736               	.LBE165:
 737               	.LBE164:
 738               	.LM124:
 739 0220 C49A      		sbi 56-0x20,4
 740               	.LBE161:
 741               	.LBE160:
 742               	.LBB166:
 743               	.LBB167:
 744               	.LM125:
 745 0222 C498      		cbi 56-0x20,4
 746               	.LBB168:
 747               	.LBB169:
 748               	.LM126:
 749 0224 1FB8      		out 47-0x20,__zero_reg__
 750               	.L105:
 751               	.LM127:
 752 0226 779B      		sbis 46-0x20,7
 753 0228 00C0      		rjmp .L105
 754               	.LM128:
 755 022a 8FB1      		in r24,47-0x20
 756               	.LBE169:
 757               	.LBE168:
 758               	.LBB170:
 759               	.LBB171:
 760               	.LM129:
 761 022c 1FB8      		out 47-0x20,__zero_reg__
 762               	.L107:
 763               	.LM130:
 764 022e 779B      		sbis 46-0x20,7
 765 0230 00C0      		rjmp .L107
 766               	.LM131:
 767 0232 8FB1      		in r24,47-0x20
 768               	.LBE171:
 769               	.LBE170:
 770               	.LM132:
 771 0234 C49A      		sbi 56-0x20,4
 772               	.LBE167:
 773               	.LBE166:
 774               	.LBB172:
 775               	.LBB173:
 776               	.LM133:
 777 0236 C498      		cbi 56-0x20,4
 778               	.LBB174:
 779               	.LBB175:
 780               	.LM134:
 781 0238 1FB8      		out 47-0x20,__zero_reg__
 782               	.L109:
 783               	.LM135:
 784 023a 779B      		sbis 46-0x20,7
 785 023c 00C0      		rjmp .L109
 786               	.LM136:
 787 023e 8FB1      		in r24,47-0x20
 788               	.LBE175:
 789               	.LBE174:
 790               	.LBB176:
 791               	.LBB177:
 792               	.LM137:
 793 0240 1FB8      		out 47-0x20,__zero_reg__
 794               	.L111:
 795               	.LM138:
 796 0242 779B      		sbis 46-0x20,7
 797 0244 00C0      		rjmp .L111
 798               	.LM139:
 799 0246 8FB1      		in r24,47-0x20
 800               	.LBE177:
 801               	.LBE176:
 802               	.LM140:
 803 0248 C49A      		sbi 56-0x20,4
 804               	.LBE173:
 805               	.LBE172:
 806               	.LBB178:
 807               	.LBB179:
 808               	.LM141:
 809 024a C498      		cbi 56-0x20,4
 810               	.LBB180:
 811               	.LBB181:
 812               	.LM142:
 813 024c 1FB8      		out 47-0x20,__zero_reg__
 814               	.L113:
 815               	.LM143:
 816 024e 779B      		sbis 46-0x20,7
 817 0250 00C0      		rjmp .L113
 818               	.LM144:
 819 0252 8FB1      		in r24,47-0x20
 820               	.LBE181:
 821               	.LBE180:
 822               	.LBB182:
 823               	.LBB183:
 824               	.LM145:
 825 0254 87EF      		ldi r24,lo8(-9)
 826 0256 8FB9      		out 47-0x20,r24
 827               	.L115:
 828               	.LM146:
 829 0258 779B      		sbis 46-0x20,7
 830 025a 00C0      		rjmp .L115
 831               	.LM147:
 832 025c 8FB1      		in r24,47-0x20
 833               	.LBE183:
 834               	.LBE182:
 835               	.LM148:
 836 025e C49A      		sbi 56-0x20,4
 837               	.LBE179:
 838               	.LBE178:
 839               	/* epilogue: frame size=0 */
 840 0260 0895      		ret
 841               	/* epilogue end (size=1) */
 842               	/* function rf12_init size 138 (137) */
 843               	.LFE8:
 845               	.global	rf12_rxdata
 847               	rf12_rxdata:
 848               	.LFB16:
 849               	.LM149:
 850               	/* prologue: frame size=0 */
 851               	/* prologue end (size=0) */
 852               	.LVL36:
 853 0262 FC01      		movw r30,r24
 854               	.LBB220:
 855               	.LBB221:
 856               	.LM150:
 857 0264 C498      		cbi 56-0x20,4
 858               	.LBB222:
 859               	.LBB223:
 860               	.LM151:
 861 0266 1FB8      		out 47-0x20,__zero_reg__
 862               	.LVL37:
 863               	.L147:
 864               	.LM152:
 865 0268 779B      		sbis 46-0x20,7
 866 026a 00C0      		rjmp .L147
 867               	.LM153:
 868 026c 8FB1      		in r24,47-0x20
 869               	.LBE223:
 870               	.LBE222:
 871               	.LBB224:
 872               	.LBB225:
 873               	.LM154:
 874 026e 88EC      		ldi r24,lo8(-56)
 875 0270 8FB9      		out 47-0x20,r24
 876               	.L149:
 877               	.LM155:
 878 0272 779B      		sbis 46-0x20,7
 879 0274 00C0      		rjmp .L149
 880               	.LM156:
 881 0276 8FB1      		in r24,47-0x20
 882               	.LBE225:
 883               	.LBE224:
 884               	.LM157:
 885 0278 C49A      		sbi 56-0x20,4
 886               	.LBE221:
 887               	.LBE220:
 888               	.LBB226:
 889               	.LBB227:
 890               	.LM158:
 891 027a C498      		cbi 56-0x20,4
 892               	.LBB228:
 893               	.LBB229:
 894               	.LM159:
 895 027c 1FB8      		out 47-0x20,__zero_reg__
 896               	.L151:
 897               	.LM160:
 898 027e 779B      		sbis 46-0x20,7
 899 0280 00C0      		rjmp .L151
 900               	.LM161:
 901 0282 8FB1      		in r24,47-0x20
 902               	.LBE229:
 903               	.LBE228:
 904               	.LBB230:
 905               	.LBB231:
 906               	.LM162:
 907 0284 81E8      		ldi r24,lo8(-127)
 908 0286 8FB9      		out 47-0x20,r24
 909               	.L153:
 910               	.LM163:
 911 0288 779B      		sbis 46-0x20,7
 912 028a 00C0      		rjmp .L153
 913               	.LM164:
 914 028c 8FB1      		in r24,47-0x20
 915               	.LBE231:
 916               	.LBE230:
 917               	.LM165:
 918 028e C49A      		sbi 56-0x20,4
 919               	.LBE227:
 920               	.LBE226:
 921               	.LBB232:
 922               	.LBB233:
 923               	.LM166:
 924 0290 C498      		cbi 56-0x20,4
 925               	.LBB234:
 926               	.LBB235:
 927               	.LM167:
 928 0292 1FB8      		out 47-0x20,__zero_reg__
 929               	.L155:
 930               	.LM168:
 931 0294 779B      		sbis 46-0x20,7
 932 0296 00C0      		rjmp .L155
 933               	.LM169:
 934 0298 8FB1      		in r24,47-0x20
 935               	.LBE235:
 936               	.LBE234:
 937               	.LBB236:
 938               	.LBB237:
 939               	.LM170:
 940 029a 83E8      		ldi r24,lo8(-125)
 941 029c 8FB9      		out 47-0x20,r24
 942               	.L157:
 943               	.LM171:
 944 029e 779B      		sbis 46-0x20,7
 945 02a0 00C0      		rjmp .L157
 946               	.LM172:
 947 02a2 8FB1      		in r24,47-0x20
 948               	.LBE237:
 949               	.LBE236:
 950               	.LM173:
 951 02a4 C49A      		sbi 56-0x20,4
 952               	.LBE233:
 953               	.LBE232:
 954               	.LM174:
 955 02a6 6623      		tst r22
 956 02a8 01F0      		breq .L159
 957 02aa 40E0      		ldi r20,lo8(0)
 958               	.LVL38:
 959               	.LVL39:
 960               	.L161:
 961               	.LBB238:
 962               	.LBB239:
 963               	.LM175:
 964 02ac C498      		cbi 56-0x20,4
 965               	.LM176:
 966               	/* #APP */
 967 02ae 0000      		nop
 968               	.LM177:
 969               	/* #NOAPP */
 970 02b0 B699      		sbic 54-0x20,6
 971 02b2 00C0      		rjmp .L162
 972 02b4 28EE      		ldi r18,lo8(1000)
 973 02b6 33E0      		ldi r19,hi8(1000)
 974 02b8 94E2      		ldi r25,lo8(36)
 975 02ba 00C0      		rjmp .L164
 976               	.LVL40:
 977               	.L197:
 978               	.LM178:
 979 02bc 2150      		subi r18,lo8(-(-1))
 980 02be 3040      		sbci r19,hi8(-(-1))
 981               	.LM179:
 982 02c0 01F0      		breq .L162
 983               	.L164:
 984               	.LBB240:
 985               	.LBB241:
 986               	.LBB242:
 987               	.LBB243:
 988               	.LM180:
 989 02c2 892F      		mov r24,r25
 990               	/* #APP */
 991 02c4 8A95      		1: dec r24
 992 02c6 01F4      		brne 1b
 993               	/* #NOAPP */
 994               	.LBE243:
 995               	.LBE242:
 996               	.LBE241:
 997               	.LBE240:
 998               	.LM181:
 999 02c8 B69B      		sbis 54-0x20,6
 1000 02ca 00C0      		rjmp .L197
 1001               	.L162:
 1002               	.LM182:
 1003 02cc C49A      		sbi 56-0x20,4
 1004               	.LBE239:
 1005               	.LBE238:
 1006               	.LBB244:
 1007               	.LBB245:
 1008               	.LM183:
 1009 02ce C498      		cbi 56-0x20,4
 1010               	.LBB246:
 1011               	.LBB247:
 1012               	.LM184:
 1013 02d0 1FB8      		out 47-0x20,__zero_reg__
 1014               	.L166:
 1015               	.LM185:
 1016 02d2 779B      		sbis 46-0x20,7
 1017 02d4 00C0      		rjmp .L166
 1018               	.LM186:
 1019 02d6 8FB1      		in r24,47-0x20
 1020               	.LVL41:
 1021               	.LBE247:
 1022               	.LBE246:
 1023               	.LBB248:
 1024               	.LBB249:
 1025               	.LM187:
 1026 02d8 1FB8      		out 47-0x20,__zero_reg__
 1027               	.L168:
 1028               	.LM188:
 1029 02da 779B      		sbis 46-0x20,7
 1030 02dc 00C0      		rjmp .L168
 1031               	.LM189:
 1032 02de 8FB1      		in r24,47-0x20
 1033               	.LBE249:
 1034               	.LBE248:
 1035               	.LM190:
 1036 02e0 C49A      		sbi 56-0x20,4
 1037               	.LBE245:
 1038               	.LBE244:
 1039               	.LM191:
 1040 02e2 8083      		st Z,r24
 1041               	.LM192:
 1042 02e4 4F5F      		subi r20,lo8(-(1))
 1043 02e6 6417      		cp r22,r20
 1044 02e8 01F0      		breq .L159
 1045               	.LM193:
 1046 02ea 3196      		adiw r30,1
 1047 02ec 00C0      		rjmp .L161
 1048               	.L159:
 1049               	.LBB250:
 1050               	.LBB251:
 1051               	.LM194:
 1052 02ee C498      		cbi 56-0x20,4
 1053               	.LBB252:
 1054               	.LBB253:
 1055               	.LM195:
 1056 02f0 1FB8      		out 47-0x20,__zero_reg__
 1057               	.L171:
 1058               	.LM196:
 1059 02f2 779B      		sbis 46-0x20,7
 1060 02f4 00C0      		rjmp .L171
 1061               	.LM197:
 1062 02f6 8FB1      		in r24,47-0x20
 1063               	.LBE253:
 1064               	.LBE252:
 1065               	.LBB254:
 1066               	.LBB255:
 1067               	.LM198:
 1068 02f8 88E0      		ldi r24,lo8(8)
 1069 02fa 8FB9      		out 47-0x20,r24
 1070               	.L173:
 1071               	.LM199:
 1072 02fc 779B      		sbis 46-0x20,7
 1073 02fe 00C0      		rjmp .L173
 1074               	.LM200:
 1075 0300 8FB1      		in r24,47-0x20
 1076               	.LBE255:
 1077               	.LBE254:
 1078               	.LM201:
 1079 0302 C49A      		sbi 56-0x20,4
 1080               	.LBE251:
 1081               	.LBE250:
 1082               	/* epilogue: frame size=0 */
 1083 0304 0895      		ret
 1084               	/* epilogue end (size=1) */
 1085               	/* function rf12_rxdata size 87 (86) */
 1086               	.LFE16:
 1088               	.global	rf12_txdata
 1090               	rf12_txdata:
 1091               	.LFB15:
 1092               	.LM202:
 1093               	/* prologue: frame size=0 */
 1094               	/* prologue end (size=0) */
 1095               	.LVL42:
 1096 0306 FC01      		movw r30,r24
 1097               	.LBB346:
 1098               	.LBB347:
 1099               	.LM203:
 1100 0308 C498      		cbi 56-0x20,4
 1101               	.LBB348:
 1102               	.LBB349:
 1103               	.LM204:
 1104 030a 1FB8      		out 47-0x20,__zero_reg__
 1105               	.LVL43:
 1106               	.L199:
 1107               	.LM205:
 1108 030c 779B      		sbis 46-0x20,7
 1109 030e 00C0      		rjmp .L199
 1110               	.LM206:
 1111 0310 8FB1      		in r24,47-0x20
 1112               	.LBE349:
 1113               	.LBE348:
 1114               	.LBB350:
 1115               	.LBB351:
 1116               	.LM207:
 1117 0312 89E3      		ldi r24,lo8(57)
 1118 0314 8FB9      		out 47-0x20,r24
 1119               	.L201:
 1120               	.LM208:
 1121 0316 779B      		sbis 46-0x20,7
 1122 0318 00C0      		rjmp .L201
 1123               	.LM209:
 1124 031a 8FB1      		in r24,47-0x20
 1125               	.LBE351:
 1126               	.LBE350:
 1127               	.LM210:
 1128 031c C49A      		sbi 56-0x20,4
 1129               	.LBE347:
 1130               	.LBE346:
 1131               	.LBB352:
 1132               	.LBB353:
 1133               	.LM211:
 1134 031e C498      		cbi 56-0x20,4
 1135               	.LM212:
 1136               	/* #APP */
 1137 0320 0000      		nop
 1138               	.LM213:
 1139               	/* #NOAPP */
 1140 0322 B699      		sbic 54-0x20,6
 1141 0324 00C0      		rjmp .L203
 1142 0326 28EE      		ldi r18,lo8(1000)
 1143 0328 33E0      		ldi r19,hi8(1000)
 1144               	.LVL44:
 1145 032a 94E2      		ldi r25,lo8(36)
 1146 032c 00C0      		rjmp .L205
 1147               	.LVL45:
 1148               	.L303:
 1149               	.LM214:
 1150 032e 2150      		subi r18,lo8(-(-1))
 1151 0330 3040      		sbci r19,hi8(-(-1))
 1152               	.LM215:
 1153 0332 01F0      		breq .L203
 1154               	.L205:
 1155               	.LBB354:
 1156               	.LBB355:
 1157               	.LBB356:
 1158               	.LBB357:
 1159               	.LM216:
 1160 0334 892F      		mov r24,r25
 1161               	/* #APP */
 1162 0336 8A95      		1: dec r24
 1163 0338 01F4      		brne 1b
 1164               	/* #NOAPP */
 1165               	.LBE357:
 1166               	.LBE356:
 1167               	.LBE355:
 1168               	.LBE354:
 1169               	.LM217:
 1170 033a B69B      		sbis 54-0x20,6
 1171 033c 00C0      		rjmp .L303
 1172               	.L203:
 1173               	.LM218:
 1174 033e C49A      		sbi 56-0x20,4
 1175               	.LBE353:
 1176               	.LBE352:
 1177               	.LBB358:
 1178               	.LBB359:
 1179               	.LM219:
 1180 0340 C498      		cbi 56-0x20,4
 1181               	.LBB360:
 1182               	.LBB361:
 1183               	.LM220:
 1184 0342 1FB8      		out 47-0x20,__zero_reg__
 1185               	.L207:
 1186               	.LM221:
 1187 0344 779B      		sbis 46-0x20,7
 1188 0346 00C0      		rjmp .L207
 1189               	.LM222:
 1190 0348 8FB1      		in r24,47-0x20
 1191               	.LVL46:
 1192               	.LBE361:
 1193               	.LBE360:
 1194               	.LBB362:
 1195               	.LBB363:
 1196               	.LM223:
 1197 034a 8AEA      		ldi r24,lo8(-86)
 1198 034c 8FB9      		out 47-0x20,r24
 1199               	.L209:
 1200               	.LM224:
 1201 034e 779B      		sbis 46-0x20,7
 1202 0350 00C0      		rjmp .L209
 1203               	.LM225:
 1204 0352 8FB1      		in r24,47-0x20
 1205               	.LBE363:
 1206               	.LBE362:
 1207               	.LM226:
 1208 0354 C49A      		sbi 56-0x20,4
 1209               	.LBE359:
 1210               	.LBE358:
 1211               	.LBB364:
 1212               	.LBB365:
 1213               	.LM227:
 1214 0356 C498      		cbi 56-0x20,4
 1215               	.LM228:
 1216               	/* #APP */
 1217 0358 0000      		nop
 1218               	.LM229:
 1219               	/* #NOAPP */
 1220 035a B699      		sbic 54-0x20,6
 1221 035c 00C0      		rjmp .L211
 1222 035e 28EE      		ldi r18,lo8(1000)
 1223 0360 33E0      		ldi r19,hi8(1000)
 1224               	.LVL47:
 1225 0362 94E2      		ldi r25,lo8(36)
 1226 0364 00C0      		rjmp .L213
 1227               	.LVL48:
 1228               	.L304:
 1229               	.LM230:
 1230 0366 2150      		subi r18,lo8(-(-1))
 1231 0368 3040      		sbci r19,hi8(-(-1))
 1232               	.LM231:
 1233 036a 01F0      		breq .L211
 1234               	.L213:
 1235               	.LBB366:
 1236               	.LBB367:
 1237               	.LBB368:
 1238               	.LBB369:
 1239               	.LM232:
 1240 036c 892F      		mov r24,r25
 1241               	/* #APP */
 1242 036e 8A95      		1: dec r24
 1243 0370 01F4      		brne 1b
 1244               	/* #NOAPP */
 1245               	.LBE369:
 1246               	.LBE368:
 1247               	.LBE367:
 1248               	.LBE366:
 1249               	.LM233:
 1250 0372 B69B      		sbis 54-0x20,6
 1251 0374 00C0      		rjmp .L304
 1252               	.LVL49:
 1253               	.L211:
 1254               	.LM234:
 1255 0376 C49A      		sbi 56-0x20,4
 1256               	.LBE365:
 1257               	.LBE364:
 1258               	.LBB370:
 1259               	.LBB371:
 1260               	.LM235:
 1261 0378 C498      		cbi 56-0x20,4
 1262               	.LBB372:
 1263               	.LBB373:
 1264               	.LM236:
 1265 037a 1FB8      		out 47-0x20,__zero_reg__
 1266               	.L215:
 1267               	.LM237:
 1268 037c 779B      		sbis 46-0x20,7
 1269 037e 00C0      		rjmp .L215
 1270               	.LM238:
 1271 0380 8FB1      		in r24,47-0x20
 1272               	.LVL50:
 1273               	.LBE373:
 1274               	.LBE372:
 1275               	.LBB374:
 1276               	.LBB375:
 1277               	.LM239:
 1278 0382 8AEA      		ldi r24,lo8(-86)
 1279 0384 8FB9      		out 47-0x20,r24
 1280               	.L217:
 1281               	.LM240:
 1282 0386 779B      		sbis 46-0x20,7
 1283 0388 00C0      		rjmp .L217
 1284               	.LM241:
 1285 038a 8FB1      		in r24,47-0x20
 1286               	.LBE375:
 1287               	.LBE374:
 1288               	.LM242:
 1289 038c C49A      		sbi 56-0x20,4
 1290               	.LBE371:
 1291               	.LBE370:
 1292               	.LBB376:
 1293               	.LBB377:
 1294               	.LM243:
 1295 038e C498      		cbi 56-0x20,4
 1296               	.LM244:
 1297               	/* #APP */
 1298 0390 0000      		nop
 1299               	.LM245:
 1300               	/* #NOAPP */
 1301 0392 B699      		sbic 54-0x20,6
 1302 0394 00C0      		rjmp .L219
 1303 0396 28EE      		ldi r18,lo8(1000)
 1304 0398 33E0      		ldi r19,hi8(1000)
 1305               	.LVL51:
 1306 039a 94E2      		ldi r25,lo8(36)
 1307 039c 00C0      		rjmp .L221
 1308               	.LVL52:
 1309               	.L305:
 1310               	.LM246:
 1311 039e 2150      		subi r18,lo8(-(-1))
 1312 03a0 3040      		sbci r19,hi8(-(-1))
 1313               	.LM247:
 1314 03a2 01F0      		breq .L219
 1315               	.L221:
 1316               	.LBB378:
 1317               	.LBB379:
 1318               	.LBB380:
 1319               	.LBB381:
 1320               	.LM248:
 1321 03a4 892F      		mov r24,r25
 1322               	/* #APP */
 1323 03a6 8A95      		1: dec r24
 1324 03a8 01F4      		brne 1b
 1325               	/* #NOAPP */
 1326               	.LBE381:
 1327               	.LBE380:
 1328               	.LBE379:
 1329               	.LBE378:
 1330               	.LM249:
 1331 03aa B69B      		sbis 54-0x20,6
 1332 03ac 00C0      		rjmp .L305
 1333               	.LVL53:
 1334               	.L219:
 1335               	.LM250:
 1336 03ae C49A      		sbi 56-0x20,4
 1337               	.LBE377:
 1338               	.LBE376:
 1339               	.LBB382:
 1340               	.LBB383:
 1341               	.LM251:
 1342 03b0 C498      		cbi 56-0x20,4
 1343               	.LBB384:
 1344               	.LBB385:
 1345               	.LM252:
 1346 03b2 1FB8      		out 47-0x20,__zero_reg__
 1347               	.L223:
 1348               	.LM253:
 1349 03b4 779B      		sbis 46-0x20,7
 1350 03b6 00C0      		rjmp .L223
 1351               	.LM254:
 1352 03b8 8FB1      		in r24,47-0x20
 1353               	.LVL54:
 1354               	.LBE385:
 1355               	.LBE384:
 1356               	.LBB386:
 1357               	.LBB387:
 1358               	.LM255:
 1359 03ba 8AEA      		ldi r24,lo8(-86)
 1360 03bc 8FB9      		out 47-0x20,r24
 1361               	.L225:
 1362               	.LM256:
 1363 03be 779B      		sbis 46-0x20,7
 1364 03c0 00C0      		rjmp .L225
 1365               	.LM257:
 1366 03c2 8FB1      		in r24,47-0x20
 1367               	.LBE387:
 1368               	.LBE386:
 1369               	.LM258:
 1370 03c4 C49A      		sbi 56-0x20,4
 1371               	.LBE383:
 1372               	.LBE382:
 1373               	.LBB388:
 1374               	.LBB389:
 1375               	.LM259:
 1376 03c6 C498      		cbi 56-0x20,4
 1377               	.LM260:
 1378               	/* #APP */
 1379 03c8 0000      		nop
 1380               	.LM261:
 1381               	/* #NOAPP */
 1382 03ca B699      		sbic 54-0x20,6
 1383 03cc 00C0      		rjmp .L227
 1384 03ce 28EE      		ldi r18,lo8(1000)
 1385 03d0 33E0      		ldi r19,hi8(1000)
 1386               	.LVL55:
 1387 03d2 94E2      		ldi r25,lo8(36)
 1388 03d4 00C0      		rjmp .L229
 1389               	.LVL56:
 1390               	.L306:
 1391               	.LM262:
 1392 03d6 2150      		subi r18,lo8(-(-1))
 1393 03d8 3040      		sbci r19,hi8(-(-1))
 1394               	.LM263:
 1395 03da 01F0      		breq .L227
 1396               	.L229:
 1397               	.LBB390:
 1398               	.LBB391:
 1399               	.LBB392:
 1400               	.LBB393:
 1401               	.LM264:
 1402 03dc 892F      		mov r24,r25
 1403               	/* #APP */
 1404 03de 8A95      		1: dec r24
 1405 03e0 01F4      		brne 1b
 1406               	/* #NOAPP */
 1407               	.LBE393:
 1408               	.LBE392:
 1409               	.LBE391:
 1410               	.LBE390:
 1411               	.LM265:
 1412 03e2 B69B      		sbis 54-0x20,6
 1413 03e4 00C0      		rjmp .L306
 1414               	.LVL57:
 1415               	.L227:
 1416               	.LM266:
 1417 03e6 C49A      		sbi 56-0x20,4
 1418               	.LBE389:
 1419               	.LBE388:
 1420               	.LBB394:
 1421               	.LBB395:
 1422               	.LM267:
 1423 03e8 C498      		cbi 56-0x20,4
 1424               	.LBB396:
 1425               	.LBB397:
 1426               	.LM268:
 1427 03ea 1FB8      		out 47-0x20,__zero_reg__
 1428               	.L231:
 1429               	.LM269:
 1430 03ec 779B      		sbis 46-0x20,7
 1431 03ee 00C0      		rjmp .L231
 1432               	.LM270:
 1433 03f0 8FB1      		in r24,47-0x20
 1434               	.LVL58:
 1435               	.LBE397:
 1436               	.LBE396:
 1437               	.LBB398:
 1438               	.LBB399:
 1439               	.LM271:
 1440 03f2 8DE2      		ldi r24,lo8(45)
 1441 03f4 8FB9      		out 47-0x20,r24
 1442               	.L233:
 1443               	.LM272:
 1444 03f6 779B      		sbis 46-0x20,7
 1445 03f8 00C0      		rjmp .L233
 1446               	.LM273:
 1447 03fa 8FB1      		in r24,47-0x20
 1448               	.LBE399:
 1449               	.LBE398:
 1450               	.LM274:
 1451 03fc C49A      		sbi 56-0x20,4
 1452               	.LBE395:
 1453               	.LBE394:
 1454               	.LBB400:
 1455               	.LBB401:
 1456               	.LM275:
 1457 03fe C498      		cbi 56-0x20,4
 1458               	.LM276:
 1459               	/* #APP */
 1460 0400 0000      		nop
 1461               	.LM277:
 1462               	/* #NOAPP */
 1463 0402 B699      		sbic 54-0x20,6
 1464 0404 00C0      		rjmp .L235
 1465 0406 28EE      		ldi r18,lo8(1000)
 1466 0408 33E0      		ldi r19,hi8(1000)
 1467               	.LVL59:
 1468 040a 94E2      		ldi r25,lo8(36)
 1469 040c 00C0      		rjmp .L237
 1470               	.LVL60:
 1471               	.L307:
 1472               	.LM278:
 1473 040e 2150      		subi r18,lo8(-(-1))
 1474 0410 3040      		sbci r19,hi8(-(-1))
 1475               	.LM279:
 1476 0412 01F0      		breq .L235
 1477               	.L237:
 1478               	.LBB402:
 1479               	.LBB403:
 1480               	.LBB404:
 1481               	.LBB405:
 1482               	.LM280:
 1483 0414 892F      		mov r24,r25
 1484               	/* #APP */
 1485 0416 8A95      		1: dec r24
 1486 0418 01F4      		brne 1b
 1487               	/* #NOAPP */
 1488               	.LBE405:
 1489               	.LBE404:
 1490               	.LBE403:
 1491               	.LBE402:
 1492               	.LM281:
 1493 041a B69B      		sbis 54-0x20,6
 1494 041c 00C0      		rjmp .L307
 1495               	.LVL61:
 1496               	.L235:
 1497               	.LM282:
 1498 041e C49A      		sbi 56-0x20,4
 1499               	.LBE401:
 1500               	.LBE400:
 1501               	.LBB406:
 1502               	.LBB407:
 1503               	.LM283:
 1504 0420 C498      		cbi 56-0x20,4
 1505               	.LBB408:
 1506               	.LBB409:
 1507               	.LM284:
 1508 0422 1FB8      		out 47-0x20,__zero_reg__
 1509               	.L239:
 1510               	.LM285:
 1511 0424 779B      		sbis 46-0x20,7
 1512 0426 00C0      		rjmp .L239
 1513               	.LM286:
 1514 0428 8FB1      		in r24,47-0x20
 1515               	.LVL62:
 1516               	.LBE409:
 1517               	.LBE408:
 1518               	.LBB410:
 1519               	.LBB411:
 1520               	.LM287:
 1521 042a 84ED      		ldi r24,lo8(-44)
 1522 042c 8FB9      		out 47-0x20,r24
 1523               	.L241:
 1524               	.LM288:
 1525 042e 779B      		sbis 46-0x20,7
 1526 0430 00C0      		rjmp .L241
 1527               	.LM289:
 1528 0432 8FB1      		in r24,47-0x20
 1529               	.LBE411:
 1530               	.LBE410:
 1531               	.LM290:
 1532 0434 C49A      		sbi 56-0x20,4
 1533               	.LBE407:
 1534               	.LBE406:
 1535               	.LM291:
 1536 0436 6623      		tst r22
 1537 0438 01F0      		breq .L243
 1538 043a 40E0      		ldi r20,lo8(0)
 1539               	.LVL63:
 1540               	.LVL64:
 1541               	.L245:
 1542               	.LBB412:
 1543               	.LBB413:
 1544               	.LM292:
 1545 043c C498      		cbi 56-0x20,4
 1546               	.LM293:
 1547               	/* #APP */
 1548 043e 0000      		nop
 1549               	.LM294:
 1550               	/* #NOAPP */
 1551 0440 B699      		sbic 54-0x20,6
 1552 0442 00C0      		rjmp .L246
 1553 0444 28EE      		ldi r18,lo8(1000)
 1554 0446 33E0      		ldi r19,hi8(1000)
 1555               	.LVL65:
 1556 0448 94E2      		ldi r25,lo8(36)
 1557 044a 00C0      		rjmp .L248
 1558               	.LVL66:
 1559               	.L308:
 1560               	.LM295:
 1561 044c 2150      		subi r18,lo8(-(-1))
 1562 044e 3040      		sbci r19,hi8(-(-1))
 1563               	.LM296:
 1564 0450 01F0      		breq .L246
 1565               	.L248:
 1566               	.LBB414:
 1567               	.LBB415:
 1568               	.LBB416:
 1569               	.LBB417:
 1570               	.LM297:
 1571 0452 892F      		mov r24,r25
 1572               	/* #APP */
 1573 0454 8A95      		1: dec r24
 1574 0456 01F4      		brne 1b
 1575               	/* #NOAPP */
 1576               	.LBE417:
 1577               	.LBE416:
 1578               	.LBE415:
 1579               	.LBE414:
 1580               	.LM298:
 1581 0458 B69B      		sbis 54-0x20,6
 1582 045a 00C0      		rjmp .L308
 1583               	.LVL67:
 1584               	.L246:
 1585               	.LM299:
 1586 045c C49A      		sbi 56-0x20,4
 1587               	.LBE413:
 1588               	.LBE412:
 1589               	.LM300:
 1590 045e 8081      		ld r24,Z
 1591               	.LVL68:
 1592               	.LBB418:
 1593               	.LBB419:
 1594               	.LM301:
 1595 0460 C498      		cbi 56-0x20,4
 1596               	.LM302:
 1597 0462 982F      		mov r25,r24
 1598               	.LBB420:
 1599               	.LBB421:
 1600               	.LM303:
 1601 0464 1FB8      		out 47-0x20,__zero_reg__
 1602               	.L250:
 1603               	.LM304:
 1604 0466 779B      		sbis 46-0x20,7
 1605 0468 00C0      		rjmp .L250
 1606               	.LM305:
 1607 046a 8FB1      		in r24,47-0x20
 1608               	.LBE421:
 1609               	.LBE420:
 1610               	.LBB422:
 1611               	.LBB423:
 1612               	.LM306:
 1613 046c 9FB9      		out 47-0x20,r25
 1614               	.L252:
 1615               	.LM307:
 1616 046e 779B      		sbis 46-0x20,7
 1617 0470 00C0      		rjmp .L252
 1618               	.LM308:
 1619 0472 8FB1      		in r24,47-0x20
 1620               	.LBE423:
 1621               	.LBE422:
 1622               	.LM309:
 1623 0474 C49A      		sbi 56-0x20,4
 1624               	.LBE419:
 1625               	.LBE418:
 1626               	.LM310:
 1627 0476 4F5F      		subi r20,lo8(-(1))
 1628 0478 6417      		cp r22,r20
 1629 047a 01F0      		breq .L243
 1630               	.LM311:
 1631 047c 3196      		adiw r30,1
 1632 047e 00C0      		rjmp .L245
 1633               	.L243:
 1634               	.LBB424:
 1635               	.LBB425:
 1636               	.LM312:
 1637 0480 C498      		cbi 56-0x20,4
 1638               	.LM313:
 1639               	/* #APP */
 1640 0482 0000      		nop
 1641               	.LM314:
 1642               	/* #NOAPP */
 1643 0484 B699      		sbic 54-0x20,6
 1644 0486 00C0      		rjmp .L255
 1645 0488 28EE      		ldi r18,lo8(1000)
 1646 048a 33E0      		ldi r19,hi8(1000)
 1647               	.LVL69:
 1648 048c 94E2      		ldi r25,lo8(36)
 1649 048e 00C0      		rjmp .L257
 1650               	.LVL70:
 1651               	.L309:
 1652               	.LM315:
 1653 0490 2150      		subi r18,lo8(-(-1))
 1654 0492 3040      		sbci r19,hi8(-(-1))
 1655               	.LM316:
 1656 0494 01F0      		breq .L255
 1657               	.L257:
 1658               	.LBB426:
 1659               	.LBB427:
 1660               	.LBB428:
 1661               	.LBB429:
 1662               	.LM317:
 1663 0496 892F      		mov r24,r25
 1664               	/* #APP */
 1665 0498 8A95      		1: dec r24
 1666 049a 01F4      		brne 1b
 1667               	/* #NOAPP */
 1668               	.LBE429:
 1669               	.LBE428:
 1670               	.LBE427:
 1671               	.LBE426:
 1672               	.LM318:
 1673 049c B69B      		sbis 54-0x20,6
 1674 049e 00C0      		rjmp .L309
 1675               	.LVL71:
 1676               	.L255:
 1677               	.LM319:
 1678 04a0 C49A      		sbi 56-0x20,4
 1679               	.LBE425:
 1680               	.LBE424:
 1681               	.LBB430:
 1682               	.LBB431:
 1683               	.LM320:
 1684 04a2 C498      		cbi 56-0x20,4
 1685               	.LBB432:
 1686               	.LBB433:
 1687               	.LM321:
 1688 04a4 1FB8      		out 47-0x20,__zero_reg__
 1689               	.L259:
 1690               	.LM322:
 1691 04a6 779B      		sbis 46-0x20,7
 1692 04a8 00C0      		rjmp .L259
 1693               	.LM323:
 1694 04aa 8FB1      		in r24,47-0x20
 1695               	.LVL72:
 1696               	.LBE433:
 1697               	.LBE432:
 1698               	.LBB434:
 1699               	.LBB435:
 1700               	.LM324:
 1701 04ac 88E0      		ldi r24,lo8(8)
 1702 04ae 8FB9      		out 47-0x20,r24
 1703               	.L261:
 1704               	.LM325:
 1705 04b0 779B      		sbis 46-0x20,7
 1706 04b2 00C0      		rjmp .L261
 1707               	.LM326:
 1708 04b4 8FB1      		in r24,47-0x20
 1709               	.LBE435:
 1710               	.LBE434:
 1711               	.LM327:
 1712 04b6 C49A      		sbi 56-0x20,4
 1713               	.LBE431:
 1714               	.LBE430:
 1715               	/* epilogue: frame size=0 */
 1716 04b8 0895      		ret
 1717               	/* epilogue end (size=1) */
 1718               	/* function rf12_txdata size 253 (252) */
 1719               	.LFE15:
 1825               	.Letext0:
DEFINED SYMBOLS
                            *ABS*:00000000 rf12.c
C:\DOKUME~1\Olaf\LOKALE~1\Temp/ccifTgsF.s:3      *ABS*:0000003f __SREG__
C:\DOKUME~1\Olaf\LOKALE~1\Temp/ccifTgsF.s:4      *ABS*:0000003e __SP_H__
C:\DOKUME~1\Olaf\LOKALE~1\Temp/ccifTgsF.s:5      *ABS*:0000003d __SP_L__
C:\DOKUME~1\Olaf\LOKALE~1\Temp/ccifTgsF.s:6      *ABS*:00000000 __tmp_reg__
C:\DOKUME~1\Olaf\LOKALE~1\Temp/ccifTgsF.s:7      *ABS*:00000001 __zero_reg__
C:\DOKUME~1\Olaf\LOKALE~1\Temp/ccifTgsF.s:20     .text:00000000 spi_init
C:\DOKUME~1\Olaf\LOKALE~1\Temp/ccifTgsF.s:49     .text:00000018 spi_putc
C:\DOKUME~1\Olaf\LOKALE~1\Temp/ccifTgsF.s:74     .text:00000024 rf12_trans
C:\DOKUME~1\Olaf\LOKALE~1\Temp/ccifTgsF.s:129    .text:00000048 rf12_ready
C:\DOKUME~1\Olaf\LOKALE~1\Temp/ccifTgsF.s:185    .text:0000006c rf12_setpower
C:\DOKUME~1\Olaf\LOKALE~1\Temp/ccifTgsF.s:238    .text:0000008a rf12_setbaud
C:\DOKUME~1\Olaf\LOKALE~1\Temp/ccifTgsF.s:355    .text:000000f2 rf12_setfreq
C:\DOKUME~1\Olaf\LOKALE~1\Temp/ccifTgsF.s:438    .text:0000012c rf12_setbandwidth
C:\DOKUME~1\Olaf\LOKALE~1\Temp/ccifTgsF.s:514    .text:00000176 rf12_init
C:\DOKUME~1\Olaf\LOKALE~1\Temp/ccifTgsF.s:847    .text:00000262 rf12_rxdata
C:\DOKUME~1\Olaf\LOKALE~1\Temp/ccifTgsF.s:1090   .text:00000306 rf12_txdata

UNDEFINED SYMBOLS
__do_copy_data
__do_clear_bss
__udivmodsi4
__divmodsi4
