   1               		.file	"rf12.c"
   2               		.arch atmega16
   3               	__SREG__ = 0x3f
   4               	__SP_H__ = 0x3e
   5               	__SP_L__ = 0x3d
   6               	__tmp_reg__ = 0
   7               	__zero_reg__ = 1
   8               		.global __do_copy_data
   9               		.global __do_clear_bss
  17               	.Ltext0:
  18               	.global	crcUpdate
  20               	crcUpdate:
  21               	.LFB6:
  22               	.LM1:
  23               	/* prologue: frame size=0 */
  24               	/* prologue end (size=0) */
  25               	.LVL0:
  26 0000 9C01      		movw r18,r24
  27               	.LM2:
  28 0002 7727      		clr r23
  29 0004 762F      		mov r23,r22
  30 0006 6627      		clr r22
  31               	.LVL1:
  32               	.LM3:
  33 0008 CB01      		movw r24,r22
  34               	.LVL2:
  35 000a 8227      		eor r24,r18
  36 000c 9327      		eor r25,r19
  37 000e 97FD      		sbrc r25,7
  38 0010 00C0      		rjmp .L2
  39               	.LM4:
  40 0012 220F      		lsl r18
  41 0014 331F      		rol r19
  42               	.LVL3:
  43               	.LM5:
  44 0016 660F      		lsl r22
  45 0018 771F      		rol r23
  46               	.LVL4:
  47               	.LM6:
  48 001a C901      		movw r24,r18
  49 001c 8627      		eor r24,r22
  50 001e 9727      		eor r25,r23
  51 0020 97FD      		sbrc r25,7
  52 0022 00C0      		rjmp .L5
  53               	.L29:
  54               	.LM7:
  55 0024 220F      		lsl r18
  56 0026 331F      		rol r19
  57               	.LVL5:
  58               	.LM8:
  59 0028 660F      		lsl r22
  60 002a 771F      		rol r23
  61               	.LVL6:
  62               	.LM9:
  63 002c C901      		movw r24,r18
  64 002e 8627      		eor r24,r22
  65 0030 9727      		eor r25,r23
  66 0032 97FD      		sbrc r25,7
  67 0034 00C0      		rjmp .L8
  68               	.L30:
  69               	.LM10:
  70 0036 220F      		lsl r18
  71 0038 331F      		rol r19
  72               	.LVL7:
  73               	.LM11:
  74 003a 660F      		lsl r22
  75 003c 771F      		rol r23
  76               	.LVL8:
  77               	.LM12:
  78 003e C901      		movw r24,r18
  79 0040 8627      		eor r24,r22
  80 0042 9727      		eor r25,r23
  81 0044 97FD      		sbrc r25,7
  82 0046 00C0      		rjmp .L11
  83               	.L31:
  84               	.LM13:
  85 0048 220F      		lsl r18
  86 004a 331F      		rol r19
  87               	.LVL9:
  88               	.LM14:
  89 004c 660F      		lsl r22
  90 004e 771F      		rol r23
  91               	.LVL10:
  92               	.LM15:
  93 0050 C901      		movw r24,r18
  94 0052 8627      		eor r24,r22
  95 0054 9727      		eor r25,r23
  96 0056 97FD      		sbrc r25,7
  97 0058 00C0      		rjmp .L14
  98               	.L32:
  99               	.LM16:
 100 005a 220F      		lsl r18
 101 005c 331F      		rol r19
 102               	.LVL11:
 103               	.LM17:
 104 005e 660F      		lsl r22
 105 0060 771F      		rol r23
 106               	.LVL12:
 107               	.LM18:
 108 0062 C901      		movw r24,r18
 109 0064 8627      		eor r24,r22
 110 0066 9727      		eor r25,r23
 111 0068 97FD      		sbrc r25,7
 112 006a 00C0      		rjmp .L17
 113               	.L33:
 114               	.LM19:
 115 006c 220F      		lsl r18
 116 006e 331F      		rol r19
 117               	.LVL13:
 118               	.LM20:
 119 0070 660F      		lsl r22
 120 0072 771F      		rol r23
 121               	.LVL14:
 122               	.LM21:
 123 0074 C901      		movw r24,r18
 124 0076 8627      		eor r24,r22
 125 0078 9727      		eor r25,r23
 126 007a 97FD      		sbrc r25,7
 127 007c 00C0      		rjmp .L20
 128               	.L34:
 129               	.LM22:
 130 007e 220F      		lsl r18
 131 0080 331F      		rol r19
 132               	.LVL15:
 133               	.LM23:
 134 0082 660F      		lsl r22
 135 0084 771F      		rol r23
 136 0086 6227      		eor r22,r18
 137 0088 7327      		eor r23,r19
 138 008a 77FD      		sbrc r23,7
 139 008c 00C0      		rjmp .L28
 140               	.L23:
 141               	.LM24:
 142 008e 220F      		lsl r18
 143 0090 331F      		rol r19
 144               	.LVL16:
 145 0092 00C0      		rjmp .L25
 146               	.LVL17:
 147               	.L2:
 148               	.LM25:
 149 0094 220F      		lsl r18
 150 0096 331F      		rol r19
 151               	.LVL18:
 152 0098 81E2      		ldi r24,lo8(4129)
 153 009a 90E1      		ldi r25,hi8(4129)
 154 009c 2827      		eor r18,r24
 155 009e 3927      		eor r19,r25
 156               	.LM26:
 157 00a0 660F      		lsl r22
 158 00a2 771F      		rol r23
 159               	.LVL19:
 160               	.LM27:
 161 00a4 C901      		movw r24,r18
 162 00a6 8627      		eor r24,r22
 163 00a8 9727      		eor r25,r23
 164 00aa 97FF      		sbrs r25,7
 165 00ac 00C0      		rjmp .L29
 166               	.L5:
 167               	.LM28:
 168 00ae 220F      		lsl r18
 169 00b0 331F      		rol r19
 170               	.LVL20:
 171 00b2 81E2      		ldi r24,lo8(4129)
 172 00b4 90E1      		ldi r25,hi8(4129)
 173 00b6 2827      		eor r18,r24
 174 00b8 3927      		eor r19,r25
 175               	.LM29:
 176 00ba 660F      		lsl r22
 177 00bc 771F      		rol r23
 178               	.LVL21:
 179               	.LM30:
 180 00be C901      		movw r24,r18
 181 00c0 8627      		eor r24,r22
 182 00c2 9727      		eor r25,r23
 183 00c4 97FF      		sbrs r25,7
 184 00c6 00C0      		rjmp .L30
 185               	.L8:
 186               	.LM31:
 187 00c8 220F      		lsl r18
 188 00ca 331F      		rol r19
 189               	.LVL22:
 190 00cc 81E2      		ldi r24,lo8(4129)
 191 00ce 90E1      		ldi r25,hi8(4129)
 192 00d0 2827      		eor r18,r24
 193 00d2 3927      		eor r19,r25
 194               	.LM32:
 195 00d4 660F      		lsl r22
 196 00d6 771F      		rol r23
 197               	.LVL23:
 198               	.LM33:
 199 00d8 C901      		movw r24,r18
 200 00da 8627      		eor r24,r22
 201 00dc 9727      		eor r25,r23
 202 00de 97FF      		sbrs r25,7
 203 00e0 00C0      		rjmp .L31
 204               	.L11:
 205               	.LM34:
 206 00e2 220F      		lsl r18
 207 00e4 331F      		rol r19
 208               	.LVL24:
 209 00e6 81E2      		ldi r24,lo8(4129)
 210 00e8 90E1      		ldi r25,hi8(4129)
 211 00ea 2827      		eor r18,r24
 212 00ec 3927      		eor r19,r25
 213               	.LM35:
 214 00ee 660F      		lsl r22
 215 00f0 771F      		rol r23
 216               	.LVL25:
 217               	.LM36:
 218 00f2 C901      		movw r24,r18
 219 00f4 8627      		eor r24,r22
 220 00f6 9727      		eor r25,r23
 221 00f8 97FF      		sbrs r25,7
 222 00fa 00C0      		rjmp .L32
 223               	.L14:
 224               	.LM37:
 225 00fc 220F      		lsl r18
 226 00fe 331F      		rol r19
 227               	.LVL26:
 228 0100 81E2      		ldi r24,lo8(4129)
 229 0102 90E1      		ldi r25,hi8(4129)
 230 0104 2827      		eor r18,r24
 231 0106 3927      		eor r19,r25
 232               	.LM38:
 233 0108 660F      		lsl r22
 234 010a 771F      		rol r23
 235               	.LVL27:
 236               	.LM39:
 237 010c C901      		movw r24,r18
 238 010e 8627      		eor r24,r22
 239 0110 9727      		eor r25,r23
 240 0112 97FF      		sbrs r25,7
 241 0114 00C0      		rjmp .L33
 242               	.L17:
 243               	.LM40:
 244 0116 220F      		lsl r18
 245 0118 331F      		rol r19
 246               	.LVL28:
 247 011a 81E2      		ldi r24,lo8(4129)
 248 011c 90E1      		ldi r25,hi8(4129)
 249 011e 2827      		eor r18,r24
 250 0120 3927      		eor r19,r25
 251               	.LM41:
 252 0122 660F      		lsl r22
 253 0124 771F      		rol r23
 254               	.LVL29:
 255               	.LM42:
 256 0126 C901      		movw r24,r18
 257 0128 8627      		eor r24,r22
 258 012a 9727      		eor r25,r23
 259 012c 97FF      		sbrs r25,7
 260 012e 00C0      		rjmp .L34
 261               	.L20:
 262               	.LM43:
 263 0130 220F      		lsl r18
 264 0132 331F      		rol r19
 265               	.LVL30:
 266 0134 81E2      		ldi r24,lo8(4129)
 267 0136 90E1      		ldi r25,hi8(4129)
 268 0138 2827      		eor r18,r24
 269 013a 3927      		eor r19,r25
 270               	.LM44:
 271 013c 660F      		lsl r22
 272 013e 771F      		rol r23
 273 0140 6227      		eor r22,r18
 274 0142 7327      		eor r23,r19
 275 0144 77FF      		sbrs r23,7
 276 0146 00C0      		rjmp .L23
 277               	.L28:
 278               	.LM45:
 279 0148 220F      		lsl r18
 280 014a 331F      		rol r19
 281               	.LVL31:
 282 014c 81E2      		ldi r24,lo8(4129)
 283 014e 90E1      		ldi r25,hi8(4129)
 284 0150 2827      		eor r18,r24
 285 0152 3927      		eor r19,r25
 286               	.L25:
 287               	.LM46:
 288 0154 C901      		movw r24,r18
 289               	/* epilogue: frame size=0 */
 290 0156 0895      		ret
 291               	/* epilogue end (size=1) */
 292               	/* function crcUpdate size 172 (171) */
 293               	.LFE6:
 295               	.global	rf12_trans
 297               	rf12_trans:
 298               	.LFB7:
 299               	.LM47:
 300               	/* prologue: frame size=0 */
 301               	/* prologue end (size=0) */
 302               	.LVL32:
 303 0158 9C01      		movw r18,r24
 304               	.LM48:
 305 015a C498      		cbi 56-0x20,4
 306               	.LM49:
 307 015c 892F      		mov r24,r25
 308 015e 9927      		clr r25
 309               	.LVL33:
 310 0160 8FB9      		out 47-0x20,r24
 311               	.L36:
 312               	.LM50:
 313 0162 779B      		sbis 46-0x20,7
 314 0164 00C0      		rjmp .L36
 315               	.LM51:
 316 0166 8FB1      		in r24,47-0x20
 317               	.LM52:
 318 0168 2FB9      		out 47-0x20,r18
 319               	.L38:
 320               	.LM53:
 321 016a 779B      		sbis 46-0x20,7
 322 016c 00C0      		rjmp .L38
 323               	.LM54:
 324 016e 2FB1      		in r18,47-0x20
 325               	.LVL34:
 326               	.LM55:
 327 0170 9927      		clr r25
 328 0172 982F      		mov r25,r24
 329 0174 8827      		clr r24
 330               	.LVL35:
 331               	.LM56:
 332 0176 C49A      		sbi 56-0x20,4
 333               	.LM57:
 334 0178 820F      		add r24,r18
 335 017a 911D      		adc r25,__zero_reg__
 336               	.LVL36:
 337               	/* epilogue: frame size=0 */
 338 017c 0895      		ret
 339               	/* epilogue end (size=1) */
 340               	/* function rf12_trans size 19 (18) */
 341               	.LFE7:
 343               	.global	rf12_ready
 345               	rf12_ready:
 346               	.LFB13:
 347               	.LM58:
 348               	/* prologue: frame size=0 */
 349               	/* prologue end (size=0) */
 350               	.LM59:
 351 017e C498      		cbi 56-0x20,4
 352               	.LM60:
 353               	/* #APP */
 354 0180 0000      		nop
 355               	.LM61:
 356 0182 0000      		nop
 357               	.LM62:
 358 0184 0000      		nop
 359               	/* #NOAPP */
 360 0186 80E0      		ldi r24,lo8(0)
 361 0188 90E0      		ldi r25,hi8(0)
 362 018a A0E0      		ldi r26,hlo8(0)
 363 018c B0E0      		ldi r27,hhi8(0)
 364               	.LVL37:
 365 018e 00C0      		rjmp .L46
 366               	.L47:
 367               	.LM63:
 368 0190 813A      		cpi r24,lo8(100001)
 369 0192 26E8      		ldi r18,hi8(100001)
 370 0194 9207      		cpc r25,r18
 371 0196 21E0      		ldi r18,hlo8(100001)
 372 0198 A207      		cpc r26,r18
 373 019a 20E0      		ldi r18,hhi8(100001)
 374 019c B207      		cpc r27,r18
 375 019e 01F0      		breq .L48
 376 01a0 0196      		adiw r24,1
 377 01a2 A11D      		adc r26,__zero_reg__
 378 01a4 B11D      		adc r27,__zero_reg__
 379               	.L46:
 380               	.LM64:
 381 01a6 B69B      		sbis 54-0x20,6
 382 01a8 00C0      		rjmp .L47
 383               	.L48:
 384               	.LM65:
 385 01aa C49A      		sbi 56-0x20,4
 386               	/* epilogue: frame size=0 */
 387 01ac 0895      		ret
 388               	/* epilogue end (size=1) */
 389               	/* function rf12_ready size 27 (26) */
 390               	.LFE13:
 392               	.global	rf12_setpower
 394               	rf12_setpower:
 395               	.LFB12:
 396               	.LM66:
 397               	/* prologue: frame size=0 */
 398               	/* prologue end (size=0) */
 399               	.LVL38:
 400               	.LM67:
 401 01ae 7727      		clr r23
 402               	.LVL39:
 403 01b0 6F70      		andi r22,lo8(15)
 404 01b2 7070      		andi r23,hi8(15)
 405 01b4 6295      		swap r22
 406 01b6 7295      		swap r23
 407 01b8 707F      		andi r23,0xf0
 408 01ba 7627      		eor r23,r22
 409 01bc 607F      		andi r22,0xf0
 410 01be 7627      		eor r23,r22
 411 01c0 9927      		clr r25
 412 01c2 8770      		andi r24,lo8(7)
 413 01c4 9070      		andi r25,hi8(7)
 414 01c6 9869      		ori r25,hi8(-26624)
 415 01c8 682B      		or r22,r24
 416 01ca 792B      		or r23,r25
 417               	.LBB6:
 418               	.LBB7:
 419               	.LM68:
 420 01cc C498      		cbi 56-0x20,4
 421               	.LM69:
 422 01ce 872F      		mov r24,r23
 423 01d0 9927      		clr r25
 424               	.LVL40:
 425 01d2 8FB9      		out 47-0x20,r24
 426               	.L52:
 427               	.LM70:
 428 01d4 779B      		sbis 46-0x20,7
 429 01d6 00C0      		rjmp .L52
 430               	.LM71:
 431 01d8 8FB1      		in r24,47-0x20
 432               	.LM72:
 433 01da 6FB9      		out 47-0x20,r22
 434               	.L54:
 435               	.LM73:
 436 01dc 779B      		sbis 46-0x20,7
 437 01de 00C0      		rjmp .L54
 438               	.LM74:
 439 01e0 8FB1      		in r24,47-0x20
 440               	.LM75:
 441 01e2 C49A      		sbi 56-0x20,4
 442               	.LBE7:
 443               	.LBE6:
 444               	/* epilogue: frame size=0 */
 445 01e4 0895      		ret
 446               	/* epilogue end (size=1) */
 447               	/* function rf12_setpower size 28 (27) */
 448               	.LFE12:
 450               	.global	rf12_setbaud
 452               	rf12_setbaud:
 453               	.LFB11:
 454               	.LM76:
 455               	/* prologue: frame size=0 */
 456               	/* prologue end (size=0) */
 457               	.LVL41:
 458               	.LM77:
 459 01e6 22E0      		ldi r18,hi8(663)
 460 01e8 8739      		cpi r24,lo8(663)
 461 01ea 9207      		cpc r25,r18
 462 01ec 00F0      		brlo .L74
 463               	.LM78:
 464 01ee 25E1      		ldi r18,hi8(5400)
 465 01f0 8831      		cpi r24,lo8(5400)
 466 01f2 9207      		cpc r25,r18
 467 01f4 00F0      		brlo .L83
 468               	.LM79:
 469 01f6 9C01      		movw r18,r24
 470 01f8 4427      		clr r20
 471 01fa 5527      		clr r21
 472 01fc 6CEF      		ldi r22,lo8(344828)
 473 01fe 72E4      		ldi r23,hi8(344828)
 474 0200 85E0      		ldi r24,hlo8(344828)
 475 0202 90E0      		ldi r25,hhi8(344828)
 476 0204 0E94 0000 		call __udivmodsi4
 477 0208 2150      		subi r18,lo8(-(-1))
 478 020a 3040      		sbci r19,hi8(-(-1))
 479               	.LVL42:
 480 020c 366C      		ori r19,hi8(-14848)
 481               	.LBB12:
 482               	.LBB13:
 483               	.LM80:
 484 020e C498      		cbi 56-0x20,4
 485               	.LM81:
 486 0210 832F      		mov r24,r19
 487 0212 9927      		clr r25
 488               	.LVL43:
 489 0214 8FB9      		out 47-0x20,r24
 490               	.L70:
 491               	.LM82:
 492 0216 779B      		sbis 46-0x20,7
 493 0218 00C0      		rjmp .L70
 494               	.LM83:
 495 021a 8FB1      		in r24,47-0x20
 496               	.LM84:
 497 021c 2FB9      		out 47-0x20,r18
 498               	.L72:
 499               	.LM85:
 500 021e 779B      		sbis 46-0x20,7
 501 0220 00C0      		rjmp .L72
 502               	.LM86:
 503 0222 8FB1      		in r24,47-0x20
 504               	.LM87:
 505 0224 C49A      		sbi 56-0x20,4
 506               	.LVL44:
 507               	.L74:
 508 0226 0895      		ret
 509               	.LVL45:
 510               	.L83:
 511               	.LBE13:
 512               	.LBE12:
 513               	.LM88:
 514 0228 9C01      		movw r18,r24
 515 022a 4427      		clr r20
 516 022c 5527      		clr r21
 517 022e 60E6      		ldi r22,lo8(43104)
 518 0230 78EA      		ldi r23,hi8(43104)
 519 0232 80E0      		ldi r24,hlo8(43104)
 520 0234 90E0      		ldi r25,hhi8(43104)
 521 0236 0E94 0000 		call __divmodsi4
 522 023a 2150      		subi r18,lo8(-(-1))
 523 023c 3040      		sbci r19,hi8(-(-1))
 524               	.LVL46:
 525 023e 2068      		ori r18,lo8(-14720)
 526 0240 366C      		ori r19,hi8(-14720)
 527               	.LBB14:
 528               	.LBB15:
 529               	.LM89:
 530 0242 C498      		cbi 56-0x20,4
 531               	.LM90:
 532 0244 832F      		mov r24,r19
 533 0246 9927      		clr r25
 534               	.LVL47:
 535 0248 8FB9      		out 47-0x20,r24
 536               	.L66:
 537               	.LM91:
 538 024a 779B      		sbis 46-0x20,7
 539 024c 00C0      		rjmp .L66
 540               	.LM92:
 541 024e 8FB1      		in r24,47-0x20
 542               	.LM93:
 543 0250 2FB9      		out 47-0x20,r18
 544               	.L68:
 545               	.LM94:
 546 0252 779B      		sbis 46-0x20,7
 547 0254 00C0      		rjmp .L68
 548               	.LM95:
 549 0256 8FB1      		in r24,47-0x20
 550               	.LM96:
 551 0258 C49A      		sbi 56-0x20,4
 552 025a 0895      		ret
 553               	.LBE15:
 554               	.LBE14:
 555               	/* epilogue: frame size=0 */
 556               	/* epilogue: noreturn */
 557               	/* epilogue end (size=0) */
 558               	/* function rf12_setbaud size 59 (59) */
 559               	.LFE11:
 561               	.global	rf12_setfreq
 563               	rf12_setfreq:
 564               	.LFB10:
 565               	.LM97:
 566               	/* prologue: frame size=0 */
 567               	/* prologue end (size=0) */
 568               	.LVL48:
 569               	.LM98:
 570 025c 8036      		cpi r24,96
 571 025e 9105      		cpc r25,__zero_reg__
 572 0260 00F4      		brsh .L85
 573               	.LM99:
 574 0262 20E6      		ldi r18,lo8(-24480)
 575 0264 30EA      		ldi r19,hi8(-24480)
 576 0266 80EA      		ldi r24,lo8(-96)
 577               	.LVL49:
 578               	.L87:
 579               	.LBB18:
 580               	.LBB19:
 581               	.LM100:
 582 0268 C498      		cbi 56-0x20,4
 583               	.LM101:
 584 026a 8FB9      		out 47-0x20,r24
 585               	.L89:
 586               	.LM102:
 587 026c 779B      		sbis 46-0x20,7
 588 026e 00C0      		rjmp .L89
 589               	.LM103:
 590 0270 8FB1      		in r24,47-0x20
 591               	.LM104:
 592 0272 2FB9      		out 47-0x20,r18
 593               	.L91:
 594               	.LM105:
 595 0274 779B      		sbis 46-0x20,7
 596 0276 00C0      		rjmp .L91
 597 0278 00C0      		rjmp .L100
 598               	.LVL50:
 599               	.L85:
 600               	.LBE19:
 601               	.LBE18:
 602               	.LM106:
 603 027a 2FE0      		ldi r18,hi8(3904)
 604 027c 8034      		cpi r24,lo8(3904)
 605 027e 9207      		cpc r25,r18
 606 0280 00F4      		brsh .L99
 607 0282 9C01      		movw r18,r24
 608 0284 306A      		ori r19,hi8(-24576)
 609 0286 832F      		mov r24,r19
 610 0288 9927      		clr r25
 611               	.LVL51:
 612 028a 00C0      		rjmp .L87
 613               	.LVL52:
 614               	.L99:
 615 028c 8FE3      		ldi r24,lo8(3903)
 616 028e 9FE0      		ldi r25,hi8(3903)
 617 0290 9C01      		movw r18,r24
 618 0292 306A      		ori r19,hi8(-24576)
 619 0294 832F      		mov r24,r19
 620 0296 9927      		clr r25
 621               	.LVL53:
 622 0298 00C0      		rjmp .L87
 623               	.L100:
 624               	.LBB20:
 625               	.LBB21:
 626               	.LM107:
 627 029a 8FB1      		in r24,47-0x20
 628               	.LM108:
 629 029c C49A      		sbi 56-0x20,4
 630               	.LBE21:
 631               	.LBE20:
 632               	/* epilogue: frame size=0 */
 633 029e 0895      		ret
 634               	/* epilogue end (size=1) */
 635               	/* function rf12_setfreq size 34 (33) */
 636               	.LFE10:
 638               	.global	rf12_setbandwidth
 640               	rf12_setbandwidth:
 641               	.LFB9:
 642               	.LM109:
 643               	/* prologue: frame size=0 */
 644               	/* prologue end (size=0) */
 645               	.LVL54:
 646               	.LM110:
 647 02a0 282F      		mov r18,r24
 648 02a2 3327      		clr r19
 649 02a4 2770      		andi r18,lo8(7)
 650 02a6 3070      		andi r19,hi8(7)
 651 02a8 220F      		lsl r18
 652 02aa 331F      		rol r19
 653 02ac 2295      		swap r18
 654 02ae 3295      		swap r19
 655 02b0 307F      		andi r19,0xf0
 656 02b2 3227      		eor r19,r18
 657 02b4 207F      		andi r18,0xf0
 658 02b6 3227      		eor r19,r18
 659 02b8 5527      		clr r21
 660 02ba 4770      		andi r20,lo8(7)
 661 02bc 5070      		andi r21,hi8(7)
 662 02be 242B      		or r18,r20
 663 02c0 352B      		or r19,r21
 664 02c2 7727      		clr r23
 665 02c4 6370      		andi r22,lo8(3)
 666 02c6 7070      		andi r23,hi8(3)
 667 02c8 660F      		lsl r22
 668 02ca 771F      		rol r23
 669 02cc 660F      		lsl r22
 670 02ce 771F      		rol r23
 671 02d0 660F      		lsl r22
 672 02d2 771F      		rol r23
 673 02d4 7469      		ori r23,hi8(-27648)
 674 02d6 262B      		or r18,r22
 675 02d8 372B      		or r19,r23
 676               	.LBB24:
 677               	.LBB25:
 678               	.LM111:
 679 02da C498      		cbi 56-0x20,4
 680               	.LM112:
 681 02dc 832F      		mov r24,r19
 682 02de 9927      		clr r25
 683               	.LVL55:
 684 02e0 8FB9      		out 47-0x20,r24
 685               	.L102:
 686               	.LM113:
 687 02e2 779B      		sbis 46-0x20,7
 688 02e4 00C0      		rjmp .L102
 689               	.LM114:
 690 02e6 8FB1      		in r24,47-0x20
 691               	.LM115:
 692 02e8 2FB9      		out 47-0x20,r18
 693               	.L104:
 694               	.LM116:
 695 02ea 779B      		sbis 46-0x20,7
 696 02ec 00C0      		rjmp .L104
 697               	.LM117:
 698 02ee 8FB1      		in r24,47-0x20
 699               	.LM118:
 700 02f0 C49A      		sbi 56-0x20,4
 701               	.LBE25:
 702               	.LBE24:
 703               	/* epilogue: frame size=0 */
 704 02f2 0895      		ret
 705               	/* epilogue end (size=1) */
 706               	/* function rf12_setbandwidth size 42 (41) */
 707               	.LFE9:
 709               	.global	rf12_init
 711               	rf12_init:
 712               	.LFB8:
 713               	.LM119:
 714               	/* prologue: frame size=0 */
 715               	/* prologue end (size=0) */
 716               	.LM120:
 717 02f4 87B3      		in r24,55-0x20
 718 02f6 806B      		ori r24,lo8(-80)
 719 02f8 87BB      		out 55-0x20,r24
 720               	.LM121:
 721 02fa BE98      		cbi 55-0x20,6
 722               	.LM122:
 723 02fc C49A      		sbi 56-0x20,4
 724               	.LM123:
 725 02fe 83E5      		ldi r24,lo8(83)
 726 0300 8DB9      		out 45-0x20,r24
 727               	.LM124:
 728 0302 8EB1      		in r24,46-0x20
 729 0304 8EB9      		out 46-0x20,r24
 730               	.LBB46:
 731               	.LBB47:
 732               	.LBB48:
 733               	.LBB49:
 734               	.LM125:
 735 0306 8FEF      		ldi r24,lo8(27647)
 736 0308 9BE6      		ldi r25,hi8(27647)
 737 030a FC01      		movw r30,r24
 738               	.LVL56:
 739               	/* #APP */
 740 030c 3197      		1: sbiw r30,1
 741 030e 01F4      		brne 1b
 742               	/* #NOAPP */
 743 0310 FC01      		movw r30,r24
 744               	.LVL57:
 745               	/* #APP */
 746 0312 3197      		1: sbiw r30,1
 747 0314 01F4      		brne 1b
 748               	/* #NOAPP */
 749 0316 FC01      		movw r30,r24
 750               	.LVL58:
 751               	/* #APP */
 752 0318 3197      		1: sbiw r30,1
 753 031a 01F4      		brne 1b
 754               	/* #NOAPP */
 755 031c FC01      		movw r30,r24
 756               	.LVL59:
 757               	/* #APP */
 758 031e 3197      		1: sbiw r30,1
 759 0320 01F4      		brne 1b
 760               	/* #NOAPP */
 761 0322 FC01      		movw r30,r24
 762               	.LVL60:
 763               	/* #APP */
 764 0324 3197      		1: sbiw r30,1
 765 0326 01F4      		brne 1b
 766               	/* #NOAPP */
 767 0328 FC01      		movw r30,r24
 768               	.LVL61:
 769               	/* #APP */
 770 032a 3197      		1: sbiw r30,1
 771 032c 01F4      		brne 1b
 772               	/* #NOAPP */
 773 032e FC01      		movw r30,r24
 774               	.LVL62:
 775               	/* #APP */
 776 0330 3197      		1: sbiw r30,1
 777 0332 01F4      		brne 1b
 778               	/* #NOAPP */
 779 0334 FC01      		movw r30,r24
 780               	.LVL63:
 781               	/* #APP */
 782 0336 3197      		1: sbiw r30,1
 783 0338 01F4      		brne 1b
 784               	/* #NOAPP */
 785 033a FC01      		movw r30,r24
 786               	.LVL64:
 787               	/* #APP */
 788 033c 3197      		1: sbiw r30,1
 789 033e 01F4      		brne 1b
 790 0340 0197      		1: sbiw r24,1
 791 0342 01F4      		brne 1b
 792               	.LVL65:
 793               	/* #NOAPP */
 794               	.LBE49:
 795               	.LBE48:
 796               	.LBE47:
 797               	.LBE46:
 798               	.LBB50:
 799               	.LBB51:
 800               	.LM126:
 801 0344 C498      		cbi 56-0x20,4
 802               	.LM127:
 803 0346 80EC      		ldi r24,lo8(-64)
 804               	.LVL66:
 805 0348 8FB9      		out 47-0x20,r24
 806               	.L112:
 807               	.LM128:
 808 034a 779B      		sbis 46-0x20,7
 809 034c 00C0      		rjmp .L112
 810               	.LM129:
 811 034e 8FB1      		in r24,47-0x20
 812               	.LM130:
 813 0350 80EE      		ldi r24,lo8(-32)
 814 0352 8FB9      		out 47-0x20,r24
 815               	.L114:
 816               	.LM131:
 817 0354 779B      		sbis 46-0x20,7
 818 0356 00C0      		rjmp .L114
 819               	.LM132:
 820 0358 8FB1      		in r24,47-0x20
 821               	.LM133:
 822 035a C49A      		sbi 56-0x20,4
 823               	.LBE51:
 824               	.LBE50:
 825               	.LBB52:
 826               	.LBB53:
 827               	.LM134:
 828 035c C498      		cbi 56-0x20,4
 829               	.LM135:
 830 035e 80E8      		ldi r24,lo8(-128)
 831 0360 8FB9      		out 47-0x20,r24
 832               	.L116:
 833               	.LM136:
 834 0362 779B      		sbis 46-0x20,7
 835 0364 00C0      		rjmp .L116
 836               	.LM137:
 837 0366 8FB1      		in r24,47-0x20
 838               	.LM138:
 839 0368 87ED      		ldi r24,lo8(-41)
 840 036a 8FB9      		out 47-0x20,r24
 841               	.L118:
 842               	.LM139:
 843 036c 779B      		sbis 46-0x20,7
 844 036e 00C0      		rjmp .L118
 845               	.LM140:
 846 0370 8FB1      		in r24,47-0x20
 847               	.LM141:
 848 0372 C49A      		sbi 56-0x20,4
 849               	.LBE53:
 850               	.LBE52:
 851               	.LBB54:
 852               	.LBB55:
 853               	.LM142:
 854 0374 C498      		cbi 56-0x20,4
 855               	.LM143:
 856 0376 82EC      		ldi r24,lo8(-62)
 857 0378 8FB9      		out 47-0x20,r24
 858               	.L120:
 859               	.LM144:
 860 037a 779B      		sbis 46-0x20,7
 861 037c 00C0      		rjmp .L120
 862               	.LM145:
 863 037e 8FB1      		in r24,47-0x20
 864               	.LM146:
 865 0380 8BEA      		ldi r24,lo8(-85)
 866 0382 8FB9      		out 47-0x20,r24
 867               	.L122:
 868               	.LM147:
 869 0384 779B      		sbis 46-0x20,7
 870 0386 00C0      		rjmp .L122
 871               	.LM148:
 872 0388 8FB1      		in r24,47-0x20
 873               	.LM149:
 874 038a C49A      		sbi 56-0x20,4
 875               	.LBE55:
 876               	.LBE54:
 877               	.LBB56:
 878               	.LBB57:
 879               	.LM150:
 880 038c C498      		cbi 56-0x20,4
 881               	.LM151:
 882 038e 8AEC      		ldi r24,lo8(-54)
 883 0390 8FB9      		out 47-0x20,r24
 884               	.L124:
 885               	.LM152:
 886 0392 779B      		sbis 46-0x20,7
 887 0394 00C0      		rjmp .L124
 888               	.LM153:
 889 0396 8FB1      		in r24,47-0x20
 890               	.LM154:
 891 0398 81E8      		ldi r24,lo8(-127)
 892 039a 8FB9      		out 47-0x20,r24
 893               	.L126:
 894               	.LM155:
 895 039c 779B      		sbis 46-0x20,7
 896 039e 00C0      		rjmp .L126
 897               	.LM156:
 898 03a0 8FB1      		in r24,47-0x20
 899               	.LM157:
 900 03a2 C49A      		sbi 56-0x20,4
 901               	.LBE57:
 902               	.LBE56:
 903               	.LBB58:
 904               	.LBB59:
 905               	.LM158:
 906 03a4 C498      		cbi 56-0x20,4
 907               	.LM159:
 908 03a6 80EE      		ldi r24,lo8(-32)
 909 03a8 8FB9      		out 47-0x20,r24
 910               	.L128:
 911               	.LM160:
 912 03aa 779B      		sbis 46-0x20,7
 913 03ac 00C0      		rjmp .L128
 914               	.LM161:
 915 03ae 8FB1      		in r24,47-0x20
 916               	.LM162:
 917 03b0 1FB8      		out 47-0x20,__zero_reg__
 918               	.L130:
 919               	.LM163:
 920 03b2 779B      		sbis 46-0x20,7
 921 03b4 00C0      		rjmp .L130
 922               	.LM164:
 923 03b6 8FB1      		in r24,47-0x20
 924               	.LM165:
 925 03b8 C49A      		sbi 56-0x20,4
 926               	.LBE59:
 927               	.LBE58:
 928               	.LBB60:
 929               	.LBB61:
 930               	.LM166:
 931 03ba C498      		cbi 56-0x20,4
 932               	.LM167:
 933 03bc 88EC      		ldi r24,lo8(-56)
 934 03be 8FB9      		out 47-0x20,r24
 935               	.L132:
 936               	.LM168:
 937 03c0 779B      		sbis 46-0x20,7
 938 03c2 00C0      		rjmp .L132
 939               	.LM169:
 940 03c4 8FB1      		in r24,47-0x20
 941               	.LM170:
 942 03c6 1FB8      		out 47-0x20,__zero_reg__
 943               	.L134:
 944               	.LM171:
 945 03c8 779B      		sbis 46-0x20,7
 946 03ca 00C0      		rjmp .L134
 947               	.LM172:
 948 03cc 8FB1      		in r24,47-0x20
 949               	.LM173:
 950 03ce C49A      		sbi 56-0x20,4
 951               	.LBE61:
 952               	.LBE60:
 953               	.LBB62:
 954               	.LBB63:
 955               	.LM174:
 956 03d0 C498      		cbi 56-0x20,4
 957               	.LM175:
 958 03d2 84EC      		ldi r24,lo8(-60)
 959 03d4 8FB9      		out 47-0x20,r24
 960               	.L136:
 961               	.LM176:
 962 03d6 779B      		sbis 46-0x20,7
 963 03d8 00C0      		rjmp .L136
 964               	.LM177:
 965 03da 8FB1      		in r24,47-0x20
 966               	.LM178:
 967 03dc 87EF      		ldi r24,lo8(-9)
 968 03de 8FB9      		out 47-0x20,r24
 969               	.L138:
 970               	.LM179:
 971 03e0 779B      		sbis 46-0x20,7
 972 03e2 00C0      		rjmp .L138
 973               	.LM180:
 974 03e4 8FB1      		in r24,47-0x20
 975               	.LM181:
 976 03e6 C49A      		sbi 56-0x20,4
 977               	.LBE63:
 978               	.LBE62:
 979               	.LBB64:
 980               	.LBB65:
 981               	.LM182:
 982 03e8 C498      		cbi 56-0x20,4
 983               	.LM183:
 984 03ea 1FB8      		out 47-0x20,__zero_reg__
 985               	.L140:
 986               	.LM184:
 987 03ec 779B      		sbis 46-0x20,7
 988 03ee 00C0      		rjmp .L140
 989               	.LM185:
 990 03f0 8FB1      		in r24,47-0x20
 991               	.LM186:
 992 03f2 1FB8      		out 47-0x20,__zero_reg__
 993               	.L142:
 994               	.LM187:
 995 03f4 779B      		sbis 46-0x20,7
 996 03f6 00C0      		rjmp .L142
 997               	.LM188:
 998 03f8 8FB1      		in r24,47-0x20
 999               	.LM189:
 1000 03fa C49A      		sbi 56-0x20,4
 1001               	.LBE65:
 1002               	.LBE64:
 1003               	/* epilogue: frame size=0 */
 1004 03fc 0895      		ret
 1005               	/* epilogue end (size=1) */
 1006               	/* function rf12_init size 153 (152) */
 1007               	.LFE8:
 1009               	.global	rf12_rxdata
 1011               	rf12_rxdata:
 1012               	.LFB15:
 1013               	.LM190:
 1014               	/* prologue: frame size=0 */
 1015 03fe EF92      		push r14
 1016 0400 FF92      		push r15
 1017 0402 0F93      		push r16
 1018 0404 1F93      		push r17
 1019 0406 CF93      		push r28
 1020 0408 DF93      		push r29
 1021               	/* prologue end (size=6) */
 1022               	.LVL67:
 1023 040a EC01      		movw r28,r24
 1024               	.LBB94:
 1025               	.LBB95:
 1026               	.LM191:
 1027 040c C498      		cbi 56-0x20,4
 1028               	.LM192:
 1029 040e 82E8      		ldi r24,lo8(-126)
 1030               	.LVL68:
 1031 0410 8FB9      		out 47-0x20,r24
 1032               	.L178:
 1033               	.LM193:
 1034 0412 779B      		sbis 46-0x20,7
 1035 0414 00C0      		rjmp .L178
 1036               	.LM194:
 1037 0416 8FB1      		in r24,47-0x20
 1038               	.LM195:
 1039 0418 88EC      		ldi r24,lo8(-56)
 1040 041a 8FB9      		out 47-0x20,r24
 1041               	.L180:
 1042               	.LM196:
 1043 041c 779B      		sbis 46-0x20,7
 1044 041e 00C0      		rjmp .L180
 1045               	.LM197:
 1046 0420 8FB1      		in r24,47-0x20
 1047               	.LM198:
 1048 0422 C49A      		sbi 56-0x20,4
 1049               	.LBE95:
 1050               	.LBE94:
 1051               	.LBB96:
 1052               	.LBB97:
 1053               	.LM199:
 1054 0424 C498      		cbi 56-0x20,4
 1055               	.LM200:
 1056 0426 8AEC      		ldi r24,lo8(-54)
 1057 0428 8FB9      		out 47-0x20,r24
 1058               	.L182:
 1059               	.LM201:
 1060 042a 779B      		sbis 46-0x20,7
 1061 042c 00C0      		rjmp .L182
 1062               	.LM202:
 1063 042e 8FB1      		in r24,47-0x20
 1064               	.LM203:
 1065 0430 81E8      		ldi r24,lo8(-127)
 1066 0432 8FB9      		out 47-0x20,r24
 1067               	.L184:
 1068               	.LM204:
 1069 0434 779B      		sbis 46-0x20,7
 1070 0436 00C0      		rjmp .L184
 1071               	.LM205:
 1072 0438 8FB1      		in r24,47-0x20
 1073               	.LM206:
 1074 043a C49A      		sbi 56-0x20,4
 1075               	.LBE97:
 1076               	.LBE96:
 1077               	.LBB98:
 1078               	.LBB99:
 1079               	.LM207:
 1080 043c C498      		cbi 56-0x20,4
 1081               	.LM208:
 1082 043e 8AEC      		ldi r24,lo8(-54)
 1083 0440 8FB9      		out 47-0x20,r24
 1084               	.L186:
 1085               	.LM209:
 1086 0442 779B      		sbis 46-0x20,7
 1087 0444 00C0      		rjmp .L186
 1088               	.LM210:
 1089 0446 8FB1      		in r24,47-0x20
 1090               	.LM211:
 1091 0448 83E8      		ldi r24,lo8(-125)
 1092 044a 8FB9      		out 47-0x20,r24
 1093               	.L188:
 1094               	.LM212:
 1095 044c 779B      		sbis 46-0x20,7
 1096 044e 00C0      		rjmp .L188
 1097               	.LM213:
 1098 0450 8FB1      		in r24,47-0x20
 1099               	.LM214:
 1100 0452 C49A      		sbi 56-0x20,4
 1101               	.LBE99:
 1102               	.LBE98:
 1103               	.LBB100:
 1104               	.LBB101:
 1105               	.LM215:
 1106 0454 C498      		cbi 56-0x20,4
 1107               	.LM216:
 1108               	/* #APP */
 1109 0456 0000      		nop
 1110               	.LM217:
 1111 0458 0000      		nop
 1112               	.LM218:
 1113 045a 0000      		nop
 1114               	/* #NOAPP */
 1115 045c 80E0      		ldi r24,lo8(0)
 1116 045e 90E0      		ldi r25,hi8(0)
 1117 0460 A0E0      		ldi r26,hlo8(0)
 1118 0462 B0E0      		ldi r27,hhi8(0)
 1119               	.LVL69:
 1120 0464 00C0      		rjmp .L190
 1121               	.L191:
 1122               	.LM219:
 1123 0466 813A      		cpi r24,lo8(100001)
 1124 0468 26E8      		ldi r18,hi8(100001)
 1125 046a 9207      		cpc r25,r18
 1126 046c 21E0      		ldi r18,hlo8(100001)
 1127 046e A207      		cpc r26,r18
 1128 0470 20E0      		ldi r18,hhi8(100001)
 1129 0472 B207      		cpc r27,r18
 1130 0474 01F0      		breq .L192
 1131 0476 0196      		adiw r24,1
 1132 0478 A11D      		adc r26,__zero_reg__
 1133 047a B11D      		adc r27,__zero_reg__
 1134               	.L190:
 1135               	.LM220:
 1136 047c B69B      		sbis 54-0x20,6
 1137 047e 00C0      		rjmp .L191
 1138               	.L192:
 1139               	.LM221:
 1140 0480 C49A      		sbi 56-0x20,4
 1141               	.LBE101:
 1142               	.LBE100:
 1143               	.LBB102:
 1144               	.LBB103:
 1145               	.LM222:
 1146 0482 C498      		cbi 56-0x20,4
 1147               	.LM223:
 1148 0484 80EB      		ldi r24,lo8(-80)
 1149               	.LVL70:
 1150 0486 8FB9      		out 47-0x20,r24
 1151               	.L194:
 1152               	.LM224:
 1153 0488 779B      		sbis 46-0x20,7
 1154 048a 00C0      		rjmp .L194
 1155               	.LM225:
 1156 048c 8FB1      		in r24,47-0x20
 1157               	.LM226:
 1158 048e 1FB8      		out 47-0x20,__zero_reg__
 1159               	.L196:
 1160               	.LM227:
 1161 0490 779B      		sbis 46-0x20,7
 1162 0492 00C0      		rjmp .L196
 1163               	.LM228:
 1164 0494 8FB1      		in r24,47-0x20
 1165               	.LM229:
 1166 0496 C49A      		sbi 56-0x20,4
 1167               	.LBE103:
 1168               	.LBE102:
 1169               	.LM230:
 1170 0498 082F      		mov r16,r24
 1171               	.LVL71:
 1172 049a 893C      		cpi r24,lo8(-55)
 1173 049c 00F0      		brlo .L198
 1174               	.LVL72:
 1175 049e 08EC      		ldi r16,lo8(-56)
 1176               	.L198:
 1177               	.LBB104:
 1178               	.LBB105:
 1179               	.LM231:
 1180 04a0 E02E      		mov r14,r16
 1181 04a2 FF24      		clr r15
 1182 04a4 9E2D      		mov r25,r14
 1183 04a6 8827      		clr r24
 1184               	.LVL73:
 1185               	.LM232:
 1186 04a8 97FD      		sbrc r25,7
 1187 04aa 00C0      		rjmp .L314
 1188 04ac 20E0      		ldi r18,lo8(0)
 1189 04ae 30E0      		ldi r19,hi8(0)
 1190               	.LVL74:
 1191               	.LM233:
 1192 04b0 AC01      		movw r20,r24
 1193               	.LVL75:
 1194 04b2 440F      		lsl r20
 1195 04b4 551F      		rol r21
 1196               	.LVL76:
 1197               	.LM234:
 1198 04b6 CA01      		movw r24,r20
 1199 04b8 8227      		eor r24,r18
 1200 04ba 9327      		eor r25,r19
 1201 04bc 97FD      		sbrc r25,7
 1202 04be 00C0      		rjmp .L202
 1203               	.L317:
 1204               	.LM235:
 1205 04c0 220F      		lsl r18
 1206 04c2 331F      		rol r19
 1207               	.LVL77:
 1208               	.LM236:
 1209 04c4 440F      		lsl r20
 1210 04c6 551F      		rol r21
 1211               	.LVL78:
 1212               	.LM237:
 1213 04c8 CA01      		movw r24,r20
 1214 04ca 8227      		eor r24,r18
 1215 04cc 9327      		eor r25,r19
 1216 04ce 97FD      		sbrc r25,7
 1217 04d0 00C0      		rjmp .L205
 1218               	.L318:
 1219               	.LM238:
 1220 04d2 220F      		lsl r18
 1221 04d4 331F      		rol r19
 1222               	.LVL79:
 1223               	.LM239:
 1224 04d6 440F      		lsl r20
 1225 04d8 551F      		rol r21
 1226               	.LVL80:
 1227               	.LM240:
 1228 04da CA01      		movw r24,r20
 1229 04dc 8227      		eor r24,r18
 1230 04de 9327      		eor r25,r19
 1231 04e0 97FD      		sbrc r25,7
 1232 04e2 00C0      		rjmp .L208
 1233               	.L319:
 1234               	.LM241:
 1235 04e4 220F      		lsl r18
 1236 04e6 331F      		rol r19
 1237               	.LVL81:
 1238               	.LM242:
 1239 04e8 440F      		lsl r20
 1240 04ea 551F      		rol r21
 1241               	.LVL82:
 1242               	.LM243:
 1243 04ec CA01      		movw r24,r20
 1244 04ee 8227      		eor r24,r18
 1245 04f0 9327      		eor r25,r19
 1246 04f2 97FD      		sbrc r25,7
 1247 04f4 00C0      		rjmp .L211
 1248               	.L320:
 1249               	.LM244:
 1250 04f6 220F      		lsl r18
 1251 04f8 331F      		rol r19
 1252               	.LVL83:
 1253               	.LM245:
 1254 04fa BA01      		movw r22,r20
 1255               	.LVL84:
 1256 04fc 660F      		lsl r22
 1257 04fe 771F      		rol r23
 1258               	.LM246:
 1259 0500 C901      		movw r24,r18
 1260 0502 8627      		eor r24,r22
 1261 0504 9727      		eor r25,r23
 1262 0506 97FD      		sbrc r25,7
 1263 0508 00C0      		rjmp .L214
 1264               	.L321:
 1265               	.LM247:
 1266 050a A901      		movw r20,r18
 1267               	.LVL85:
 1268 050c 440F      		lsl r20
 1269 050e 551F      		rol r21
 1270               	.LM248:
 1271 0510 9B01      		movw r18,r22
 1272               	.LVL86:
 1273 0512 220F      		lsl r18
 1274 0514 331F      		rol r19
 1275               	.LVL87:
 1276               	.LM249:
 1277 0516 C901      		movw r24,r18
 1278 0518 8427      		eor r24,r20
 1279 051a 9527      		eor r25,r21
 1280 051c 97FD      		sbrc r25,7
 1281 051e 00C0      		rjmp .L217
 1282               	.L322:
 1283               	.LM250:
 1284 0520 440F      		lsl r20
 1285 0522 551F      		rol r21
 1286               	.LVL88:
 1287               	.LM251:
 1288 0524 220F      		lsl r18
 1289 0526 331F      		rol r19
 1290 0528 2427      		eor r18,r20
 1291 052a 3527      		eor r19,r21
 1292 052c 37FD      		sbrc r19,7
 1293 052e 00C0      		rjmp .L315
 1294               	.L220:
 1295               	.LM252:
 1296 0530 BA01      		movw r22,r20
 1297               	.LVL89:
 1298 0532 660F      		lsl r22
 1299 0534 771F      		rol r23
 1300               	.L222:
 1301               	.LBE105:
 1302               	.LBE104:
 1303               	.LM253:
 1304 0536 0023      		tst r16
 1305 0538 01F4      		brne .+2
 1306 053a 00C0      		rjmp .L223
 1307 053c 10E0      		ldi r17,lo8(0)
 1308               	.LVL90:
 1309               	.LVL91:
 1310               	.L225:
 1311               	.LBB106:
 1312               	.LBB107:
 1313               	.LM254:
 1314 053e C498      		cbi 56-0x20,4
 1315               	.LM255:
 1316               	/* #APP */
 1317 0540 0000      		nop
 1318               	.LM256:
 1319 0542 0000      		nop
 1320               	.LM257:
 1321 0544 0000      		nop
 1322               	/* #NOAPP */
 1323 0546 80E0      		ldi r24,lo8(0)
 1324 0548 90E0      		ldi r25,hi8(0)
 1325 054a A0E0      		ldi r26,hlo8(0)
 1326 054c B0E0      		ldi r27,hhi8(0)
 1327               	.LVL92:
 1328 054e 00C0      		rjmp .L226
 1329               	.L227:
 1330               	.LM258:
 1331 0550 813A      		cpi r24,lo8(100001)
 1332 0552 36E8      		ldi r19,hi8(100001)
 1333 0554 9307      		cpc r25,r19
 1334 0556 31E0      		ldi r19,hlo8(100001)
 1335 0558 A307      		cpc r26,r19
 1336 055a 30E0      		ldi r19,hhi8(100001)
 1337 055c B307      		cpc r27,r19
 1338 055e 01F0      		breq .L228
 1339 0560 0196      		adiw r24,1
 1340 0562 A11D      		adc r26,__zero_reg__
 1341 0564 B11D      		adc r27,__zero_reg__
 1342               	.L226:
 1343               	.LM259:
 1344 0566 B69B      		sbis 54-0x20,6
 1345 0568 00C0      		rjmp .L227
 1346               	.L228:
 1347               	.LM260:
 1348 056a C49A      		sbi 56-0x20,4
 1349               	.LBE107:
 1350               	.LBE106:
 1351               	.LM261:
 1352 056c FE01      		movw r30,r28
 1353 056e E10F      		add r30,r17
 1354 0570 F11D      		adc r31,__zero_reg__
 1355               	.LBB108:
 1356               	.LBB109:
 1357               	.LM262:
 1358 0572 C498      		cbi 56-0x20,4
 1359               	.LM263:
 1360 0574 80EB      		ldi r24,lo8(-80)
 1361               	.LVL93:
 1362 0576 8FB9      		out 47-0x20,r24
 1363               	.L230:
 1364               	.LM264:
 1365 0578 779B      		sbis 46-0x20,7
 1366 057a 00C0      		rjmp .L230
 1367               	.LM265:
 1368 057c 8FB1      		in r24,47-0x20
 1369               	.LM266:
 1370 057e 1FB8      		out 47-0x20,__zero_reg__
 1371               	.L232:
 1372               	.LM267:
 1373 0580 779B      		sbis 46-0x20,7
 1374 0582 00C0      		rjmp .L232
 1375               	.LM268:
 1376 0584 8FB1      		in r24,47-0x20
 1377               	.LM269:
 1378 0586 C49A      		sbi 56-0x20,4
 1379               	.LBE109:
 1380               	.LBE108:
 1381               	.LM270:
 1382 0588 8083      		st Z,r24
 1383               	.LVL94:
 1384               	.LBB110:
 1385               	.LBB111:
 1386               	.LM271:
 1387 058a 9927      		clr r25
 1388 058c 582F      		mov r21,r24
 1389 058e 4427      		clr r20
 1390               	.LVL95:
 1391               	.LM272:
 1392 0590 CB01      		movw r24,r22
 1393               	.LVL96:
 1394 0592 8427      		eor r24,r20
 1395 0594 9527      		eor r25,r21
 1396 0596 97FD      		sbrc r25,7
 1397 0598 00C0      		rjmp .L234
 1398               	.LM273:
 1399 059a 9B01      		movw r18,r22
 1400               	.LVL97:
 1401 059c 220F      		lsl r18
 1402 059e 331F      		rol r19
 1403               	.L236:
 1404               	.LM274:
 1405 05a0 440F      		lsl r20
 1406 05a2 551F      		rol r21
 1407               	.LVL98:
 1408               	.LM275:
 1409 05a4 CA01      		movw r24,r20
 1410 05a6 8227      		eor r24,r18
 1411 05a8 9327      		eor r25,r19
 1412 05aa 97FD      		sbrc r25,7
 1413 05ac 00C0      		rjmp .L237
 1414               	.LM276:
 1415 05ae 220F      		lsl r18
 1416 05b0 331F      		rol r19
 1417               	.LVL99:
 1418               	.L239:
 1419               	.LM277:
 1420 05b2 440F      		lsl r20
 1421 05b4 551F      		rol r21
 1422               	.LVL100:
 1423               	.LM278:
 1424 05b6 CA01      		movw r24,r20
 1425 05b8 8227      		eor r24,r18
 1426 05ba 9327      		eor r25,r19
 1427 05bc 97FD      		sbrc r25,7
 1428 05be 00C0      		rjmp .L240
 1429               	.LM279:
 1430 05c0 220F      		lsl r18
 1431 05c2 331F      		rol r19
 1432               	.LVL101:
 1433               	.L242:
 1434               	.LM280:
 1435 05c4 440F      		lsl r20
 1436 05c6 551F      		rol r21
 1437               	.LVL102:
 1438               	.LM281:
 1439 05c8 CA01      		movw r24,r20
 1440 05ca 8227      		eor r24,r18
 1441 05cc 9327      		eor r25,r19
 1442 05ce 97FD      		sbrc r25,7
 1443 05d0 00C0      		rjmp .L243
 1444               	.LM282:
 1445 05d2 220F      		lsl r18
 1446 05d4 331F      		rol r19
 1447               	.LVL103:
 1448               	.L245:
 1449               	.LM283:
 1450 05d6 440F      		lsl r20
 1451 05d8 551F      		rol r21
 1452               	.LVL104:
 1453               	.LM284:
 1454 05da CA01      		movw r24,r20
 1455 05dc 8227      		eor r24,r18
 1456 05de 9327      		eor r25,r19
 1457 05e0 97FD      		sbrc r25,7
 1458 05e2 00C0      		rjmp .L246
 1459               	.LM285:
 1460 05e4 220F      		lsl r18
 1461 05e6 331F      		rol r19
 1462               	.LVL105:
 1463               	.L248:
 1464               	.LM286:
 1465 05e8 BA01      		movw r22,r20
 1466               	.LVL106:
 1467 05ea 660F      		lsl r22
 1468 05ec 771F      		rol r23
 1469               	.LM287:
 1470 05ee CB01      		movw r24,r22
 1471 05f0 8227      		eor r24,r18
 1472 05f2 9327      		eor r25,r19
 1473 05f4 97FD      		sbrc r25,7
 1474 05f6 00C0      		rjmp .L249
 1475               	.LM288:
 1476 05f8 A901      		movw r20,r18
 1477               	.LVL107:
 1478 05fa 440F      		lsl r20
 1479 05fc 551F      		rol r21
 1480               	.L251:
 1481               	.LM289:
 1482 05fe 9B01      		movw r18,r22
 1483               	.LVL108:
 1484 0600 220F      		lsl r18
 1485 0602 331F      		rol r19
 1486               	.LVL109:
 1487               	.LM290:
 1488 0604 C901      		movw r24,r18
 1489 0606 8427      		eor r24,r20
 1490 0608 9527      		eor r25,r21
 1491 060a 97FD      		sbrc r25,7
 1492 060c 00C0      		rjmp .L252
 1493               	.LM291:
 1494 060e 440F      		lsl r20
 1495 0610 551F      		rol r21
 1496               	.LVL110:
 1497               	.L254:
 1498               	.LM292:
 1499 0612 220F      		lsl r18
 1500 0614 331F      		rol r19
 1501 0616 2427      		eor r18,r20
 1502 0618 3527      		eor r19,r21
 1503 061a 37FD      		sbrc r19,7
 1504 061c 00C0      		rjmp .L316
 1505               	.LM293:
 1506 061e BA01      		movw r22,r20
 1507               	.LVL111:
 1508 0620 660F      		lsl r22
 1509 0622 771F      		rol r23
 1510               	.L257:
 1511               	.LBE111:
 1512               	.LBE110:
 1513               	.LM294:
 1514 0624 1F5F      		subi r17,lo8(-(1))
 1515 0626 0117      		cp r16,r17
 1516 0628 01F0      		breq .+2
 1517 062a 00C0      		rjmp .L225
 1518               	.LVL112:
 1519               	.L223:
 1520               	.LM295:
 1521 062c CE0D      		add r28,r14
 1522 062e DF1D      		adc r29,r15
 1523 0630 1982      		std Y+1,__zero_reg__
 1524               	.LBB112:
 1525               	.LBB113:
 1526               	.LM296:
 1527 0632 C498      		cbi 56-0x20,4
 1528               	.LM297:
 1529               	/* #APP */
 1530 0634 0000      		nop
 1531               	.LM298:
 1532 0636 0000      		nop
 1533               	.LM299:
 1534 0638 0000      		nop
 1535               	/* #NOAPP */
 1536 063a 80E0      		ldi r24,lo8(0)
 1537 063c 90E0      		ldi r25,hi8(0)
 1538 063e A0E0      		ldi r26,hlo8(0)
 1539 0640 B0E0      		ldi r27,hhi8(0)
 1540               	.LVL113:
 1541 0642 00C0      		rjmp .L258
 1542               	.L259:
 1543               	.LM300:
 1544 0644 813A      		cpi r24,lo8(100001)
 1545 0646 26E8      		ldi r18,hi8(100001)
 1546 0648 9207      		cpc r25,r18
 1547 064a 21E0      		ldi r18,hlo8(100001)
 1548 064c A207      		cpc r26,r18
 1549 064e 20E0      		ldi r18,hhi8(100001)
 1550 0650 B207      		cpc r27,r18
 1551               	.LVL114:
 1552 0652 01F0      		breq .L260
 1553 0654 0196      		adiw r24,1
 1554 0656 A11D      		adc r26,__zero_reg__
 1555 0658 B11D      		adc r27,__zero_reg__
 1556               	.LVL115:
 1557               	.L258:
 1558               	.LM301:
 1559 065a B69B      		sbis 54-0x20,6
 1560 065c 00C0      		rjmp .L259
 1561               	.L260:
 1562               	.LM302:
 1563 065e C49A      		sbi 56-0x20,4
 1564               	.LBE113:
 1565               	.LBE112:
 1566               	.LBB114:
 1567               	.LBB115:
 1568               	.LM303:
 1569 0660 C498      		cbi 56-0x20,4
 1570               	.LM304:
 1571 0662 80EB      		ldi r24,lo8(-80)
 1572               	.LVL116:
 1573 0664 8FB9      		out 47-0x20,r24
 1574               	.L262:
 1575               	.LM305:
 1576 0666 779B      		sbis 46-0x20,7
 1577 0668 00C0      		rjmp .L262
 1578               	.LM306:
 1579 066a 4FB1      		in r20,47-0x20
 1580               	.LVL117:
 1581               	.LM307:
 1582 066c 1FB8      		out 47-0x20,__zero_reg__
 1583               	.L264:
 1584               	.LM308:
 1585 066e 779B      		sbis 46-0x20,7
 1586 0670 00C0      		rjmp .L264
 1587               	.LM309:
 1588 0672 2FB1      		in r18,47-0x20
 1589               	.LVL118:
 1590               	.LM310:
 1591 0674 C49A      		sbi 56-0x20,4
 1592               	.LBE115:
 1593               	.LBE114:
 1594               	.LBB116:
 1595               	.LBB117:
 1596               	.LM311:
 1597 0676 C498      		cbi 56-0x20,4
 1598               	.LM312:
 1599               	/* #APP */
 1600 0678 0000      		nop
 1601               	.LM313:
 1602 067a 0000      		nop
 1603               	.LM314:
 1604 067c 0000      		nop
 1605               	/* #NOAPP */
 1606 067e 80E0      		ldi r24,lo8(0)
 1607 0680 90E0      		ldi r25,hi8(0)
 1608 0682 A0E0      		ldi r26,hlo8(0)
 1609 0684 B0E0      		ldi r27,hhi8(0)
 1610               	.LVL119:
 1611 0686 00C0      		rjmp .L266
 1612               	.L267:
 1613               	.LM315:
 1614 0688 813A      		cpi r24,lo8(100001)
 1615 068a 36E8      		ldi r19,hi8(100001)
 1616 068c 9307      		cpc r25,r19
 1617 068e 31E0      		ldi r19,hlo8(100001)
 1618 0690 A307      		cpc r26,r19
 1619 0692 30E0      		ldi r19,hhi8(100001)
 1620 0694 B307      		cpc r27,r19
 1621 0696 01F0      		breq .L268
 1622 0698 0196      		adiw r24,1
 1623 069a A11D      		adc r26,__zero_reg__
 1624 069c B11D      		adc r27,__zero_reg__
 1625               	.L266:
 1626               	.LM316:
 1627 069e B69B      		sbis 54-0x20,6
 1628 06a0 00C0      		rjmp .L267
 1629               	.L268:
 1630               	.LM317:
 1631 06a2 C49A      		sbi 56-0x20,4
 1632               	.LBE117:
 1633               	.LBE116:
 1634               	.LBB118:
 1635               	.LBB119:
 1636               	.LM318:
 1637 06a4 C498      		cbi 56-0x20,4
 1638               	.LM319:
 1639 06a6 80EB      		ldi r24,lo8(-80)
 1640               	.LVL120:
 1641 06a8 8FB9      		out 47-0x20,r24
 1642               	.L270:
 1643               	.LM320:
 1644 06aa 779B      		sbis 46-0x20,7
 1645 06ac 00C0      		rjmp .L270
 1646               	.LM321:
 1647 06ae 3FB1      		in r19,47-0x20
 1648               	.LM322:
 1649 06b0 1FB8      		out 47-0x20,__zero_reg__
 1650               	.L272:
 1651               	.LM323:
 1652 06b2 779B      		sbis 46-0x20,7
 1653 06b4 00C0      		rjmp .L272
 1654               	.LM324:
 1655 06b6 9FB1      		in r25,47-0x20
 1656               	.LM325:
 1657 06b8 C49A      		sbi 56-0x20,4
 1658               	.LBE119:
 1659               	.LBE118:
 1660               	.LBB120:
 1661               	.LBB121:
 1662               	.LM326:
 1663 06ba C498      		cbi 56-0x20,4
 1664               	.LM327:
 1665 06bc 82E8      		ldi r24,lo8(-126)
 1666 06be 8FB9      		out 47-0x20,r24
 1667               	.L274:
 1668               	.LM328:
 1669 06c0 779B      		sbis 46-0x20,7
 1670 06c2 00C0      		rjmp .L274
 1671               	.LM329:
 1672 06c4 8FB1      		in r24,47-0x20
 1673               	.LM330:
 1674 06c6 88E0      		ldi r24,lo8(8)
 1675 06c8 8FB9      		out 47-0x20,r24
 1676               	.L276:
 1677               	.LM331:
 1678 06ca 779B      		sbis 46-0x20,7
 1679 06cc 00C0      		rjmp .L276
 1680               	.LM332:
 1681 06ce 8FB1      		in r24,47-0x20
 1682               	.LM333:
 1683 06d0 C49A      		sbi 56-0x20,4
 1684               	.LBE121:
 1685               	.LBE120:
 1686               	.LM334:
 1687 06d2 3327      		clr r19
 1688               	.LVL121:
 1689               	.LM335:
 1690 06d4 892F      		mov r24,r25
 1691 06d6 9927      		clr r25
 1692 06d8 982F      		mov r25,r24
 1693 06da 8827      		clr r24
 1694 06dc 282B      		or r18,r24
 1695 06de 392B      		or r19,r25
 1696 06e0 6217      		cp r22,r18
 1697 06e2 7307      		cpc r23,r19
 1698 06e4 01F4      		brne .+2
 1699 06e6 00C0      		rjmp .L278
 1700 06e8 EE24      		clr r14
 1701 06ea FF24      		clr r15
 1702 06ec 00C0      		rjmp .L278
 1703               	.LVL122:
 1704               	.L316:
 1705               	.LBB122:
 1706               	.LBB123:
 1707               	.LM336:
 1708 06ee BA01      		movw r22,r20
 1709               	.LVL123:
 1710 06f0 660F      		lsl r22
 1711 06f2 771F      		rol r23
 1712 06f4 81E2      		ldi r24,lo8(4129)
 1713 06f6 90E1      		ldi r25,hi8(4129)
 1714 06f8 6827      		eor r22,r24
 1715 06fa 7927      		eor r23,r25
 1716 06fc 00C0      		rjmp .L257
 1717               	.LVL124:
 1718               	.L252:
 1719 06fe 440F      		lsl r20
 1720 0700 551F      		rol r21
 1721               	.LVL125:
 1722 0702 81E2      		ldi r24,lo8(4129)
 1723 0704 90E1      		ldi r25,hi8(4129)
 1724 0706 4827      		eor r20,r24
 1725 0708 5927      		eor r21,r25
 1726 070a 00C0      		rjmp .L254
 1727               	.LVL126:
 1728               	.L249:
 1729 070c A901      		movw r20,r18
 1730               	.LVL127:
 1731 070e 440F      		lsl r20
 1732 0710 551F      		rol r21
 1733 0712 81E2      		ldi r24,lo8(4129)
 1734 0714 90E1      		ldi r25,hi8(4129)
 1735 0716 4827      		eor r20,r24
 1736 0718 5927      		eor r21,r25
 1737 071a 00C0      		rjmp .L251
 1738               	.LVL128:
 1739               	.L246:
 1740 071c 220F      		lsl r18
 1741 071e 331F      		rol r19
 1742               	.LVL129:
 1743 0720 81E2      		ldi r24,lo8(4129)
 1744 0722 90E1      		ldi r25,hi8(4129)
 1745 0724 2827      		eor r18,r24
 1746 0726 3927      		eor r19,r25
 1747 0728 00C0      		rjmp .L248
 1748               	.LVL130:
 1749               	.L243:
 1750 072a 220F      		lsl r18
 1751 072c 331F      		rol r19
 1752               	.LVL131:
 1753 072e 81E2      		ldi r24,lo8(4129)
 1754 0730 90E1      		ldi r25,hi8(4129)
 1755 0732 2827      		eor r18,r24
 1756 0734 3927      		eor r19,r25
 1757 0736 00C0      		rjmp .L245
 1758               	.LVL132:
 1759               	.L240:
 1760 0738 220F      		lsl r18
 1761 073a 331F      		rol r19
 1762               	.LVL133:
 1763 073c 81E2      		ldi r24,lo8(4129)
 1764 073e 90E1      		ldi r25,hi8(4129)
 1765 0740 2827      		eor r18,r24
 1766 0742 3927      		eor r19,r25
 1767 0744 00C0      		rjmp .L242
 1768               	.LVL134:
 1769               	.L237:
 1770 0746 220F      		lsl r18
 1771 0748 331F      		rol r19
 1772               	.LVL135:
 1773 074a 81E2      		ldi r24,lo8(4129)
 1774 074c 90E1      		ldi r25,hi8(4129)
 1775 074e 2827      		eor r18,r24
 1776 0750 3927      		eor r19,r25
 1777 0752 00C0      		rjmp .L239
 1778               	.LVL136:
 1779               	.L234:
 1780 0754 9B01      		movw r18,r22
 1781               	.LVL137:
 1782 0756 220F      		lsl r18
 1783 0758 331F      		rol r19
 1784 075a 81E2      		ldi r24,lo8(4129)
 1785 075c 90E1      		ldi r25,hi8(4129)
 1786 075e 2827      		eor r18,r24
 1787 0760 3927      		eor r19,r25
 1788 0762 00C0      		rjmp .L236
 1789               	.LVL138:
 1790               	.L314:
 1791               	.LBE123:
 1792               	.LBE122:
 1793               	.LBB124:
 1794               	.LBB125:
 1795               	.LM337:
 1796 0764 21E2      		ldi r18,lo8(4129)
 1797 0766 30E1      		ldi r19,hi8(4129)
 1798               	.LVL139:
 1799               	.LM338:
 1800 0768 AC01      		movw r20,r24
 1801               	.LVL140:
 1802 076a 440F      		lsl r20
 1803 076c 551F      		rol r21
 1804               	.LVL141:
 1805               	.LM339:
 1806 076e CA01      		movw r24,r20
 1807 0770 8227      		eor r24,r18
 1808 0772 9327      		eor r25,r19
 1809 0774 97FF      		sbrs r25,7
 1810 0776 00C0      		rjmp .L317
 1811               	.L202:
 1812               	.LM340:
 1813 0778 220F      		lsl r18
 1814 077a 331F      		rol r19
 1815               	.LVL142:
 1816 077c 2162      		ori r18,lo8(4129)
 1817 077e 3061      		ori r19,hi8(4129)
 1818               	.LM341:
 1819 0780 440F      		lsl r20
 1820 0782 551F      		rol r21
 1821               	.LVL143:
 1822               	.LM342:
 1823 0784 CA01      		movw r24,r20
 1824 0786 8227      		eor r24,r18
 1825 0788 9327      		eor r25,r19
 1826 078a 97FF      		sbrs r25,7
 1827 078c 00C0      		rjmp .L318
 1828               	.L205:
 1829               	.LM343:
 1830 078e 220F      		lsl r18
 1831 0790 331F      		rol r19
 1832               	.LVL144:
 1833 0792 81E2      		ldi r24,lo8(4129)
 1834 0794 90E1      		ldi r25,hi8(4129)
 1835 0796 2827      		eor r18,r24
 1836 0798 3927      		eor r19,r25
 1837               	.LM344:
 1838 079a 440F      		lsl r20
 1839 079c 551F      		rol r21
 1840               	.LVL145:
 1841               	.LM345:
 1842 079e CA01      		movw r24,r20
 1843 07a0 8227      		eor r24,r18
 1844 07a2 9327      		eor r25,r19
 1845 07a4 97FF      		sbrs r25,7
 1846 07a6 00C0      		rjmp .L319
 1847               	.L208:
 1848               	.LM346:
 1849 07a8 220F      		lsl r18
 1850 07aa 331F      		rol r19
 1851               	.LVL146:
 1852 07ac 81E2      		ldi r24,lo8(4129)
 1853 07ae 90E1      		ldi r25,hi8(4129)
 1854 07b0 2827      		eor r18,r24
 1855 07b2 3927      		eor r19,r25
 1856               	.LM347:
 1857 07b4 440F      		lsl r20
 1858 07b6 551F      		rol r21
 1859               	.LVL147:
 1860               	.LM348:
 1861 07b8 CA01      		movw r24,r20
 1862 07ba 8227      		eor r24,r18
 1863 07bc 9327      		eor r25,r19
 1864 07be 97FF      		sbrs r25,7
 1865 07c0 00C0      		rjmp .L320
 1866               	.L211:
 1867               	.LM349:
 1868 07c2 220F      		lsl r18
 1869 07c4 331F      		rol r19
 1870               	.LVL148:
 1871 07c6 81E2      		ldi r24,lo8(4129)
 1872 07c8 90E1      		ldi r25,hi8(4129)
 1873 07ca 2827      		eor r18,r24
 1874 07cc 3927      		eor r19,r25
 1875               	.LM350:
 1876 07ce BA01      		movw r22,r20
 1877               	.LVL149:
 1878 07d0 660F      		lsl r22
 1879 07d2 771F      		rol r23
 1880               	.LM351:
 1881 07d4 C901      		movw r24,r18
 1882 07d6 8627      		eor r24,r22
 1883 07d8 9727      		eor r25,r23
 1884 07da 97FF      		sbrs r25,7
 1885 07dc 00C0      		rjmp .L321
 1886               	.L214:
 1887               	.LM352:
 1888 07de A901      		movw r20,r18
 1889               	.LVL150:
 1890 07e0 440F      		lsl r20
 1891 07e2 551F      		rol r21
 1892 07e4 81E2      		ldi r24,lo8(4129)
 1893 07e6 90E1      		ldi r25,hi8(4129)
 1894 07e8 4827      		eor r20,r24
 1895 07ea 5927      		eor r21,r25
 1896               	.LM353:
 1897 07ec 9B01      		movw r18,r22
 1898               	.LVL151:
 1899 07ee 220F      		lsl r18
 1900 07f0 331F      		rol r19
 1901               	.LVL152:
 1902               	.LM354:
 1903 07f2 C901      		movw r24,r18
 1904 07f4 8427      		eor r24,r20
 1905 07f6 9527      		eor r25,r21
 1906 07f8 97FF      		sbrs r25,7
 1907 07fa 00C0      		rjmp .L322
 1908               	.L217:
 1909               	.LM355:
 1910 07fc 440F      		lsl r20
 1911 07fe 551F      		rol r21
 1912               	.LVL153:
 1913 0800 81E2      		ldi r24,lo8(4129)
 1914 0802 90E1      		ldi r25,hi8(4129)
 1915 0804 4827      		eor r20,r24
 1916 0806 5927      		eor r21,r25
 1917               	.LM356:
 1918 0808 220F      		lsl r18
 1919 080a 331F      		rol r19
 1920 080c 2427      		eor r18,r20
 1921 080e 3527      		eor r19,r21
 1922 0810 37FF      		sbrs r19,7
 1923 0812 00C0      		rjmp .L220
 1924               	.L315:
 1925               	.LM357:
 1926 0814 BA01      		movw r22,r20
 1927               	.LVL154:
 1928 0816 660F      		lsl r22
 1929 0818 771F      		rol r23
 1930 081a 81E2      		ldi r24,lo8(4129)
 1931 081c 90E1      		ldi r25,hi8(4129)
 1932 081e 6827      		eor r22,r24
 1933 0820 7927      		eor r23,r25
 1934 0822 00C0      		rjmp .L222
 1935               	.LVL155:
 1936               	.L278:
 1937               	.LBE125:
 1938               	.LBE124:
 1939               	.LM358:
 1940 0824 C701      		movw r24,r14
 1941               	/* epilogue: frame size=0 */
 1942 0826 DF91      		pop r29
 1943 0828 CF91      		pop r28
 1944 082a 1F91      		pop r17
 1945 082c 0F91      		pop r16
 1946 082e FF90      		pop r15
 1947 0830 EF90      		pop r14
 1948 0832 0895      		ret
 1949               	/* epilogue end (size=7) */
 1950               	/* function rf12_rxdata size 551 (538) */
 1951               	.LFE15:
 1953               	.global	rf12_txdata
 1955               	rf12_txdata:
 1956               	.LFB14:
 1957               	.LM359:
 1958               	/* prologue: frame size=0 */
 1959 0834 0F93      		push r16
 1960 0836 1F93      		push r17
 1961 0838 CF93      		push r28
 1962 083a DF93      		push r29
 1963               	/* prologue end (size=4) */
 1964               	.LVL156:
 1965 083c EC01      		movw r28,r24
 1966 083e 062F      		mov r16,r22
 1967               	.LBB180:
 1968               	.LBB181:
 1969               	.LM360:
 1970 0840 C498      		cbi 56-0x20,4
 1971               	.LM361:
 1972 0842 82E8      		ldi r24,lo8(-126)
 1973               	.LVL157:
 1974 0844 8FB9      		out 47-0x20,r24
 1975               	.LVL158:
 1976               	.L324:
 1977               	.LM362:
 1978 0846 779B      		sbis 46-0x20,7
 1979 0848 00C0      		rjmp .L324
 1980               	.LM363:
 1981 084a 8FB1      		in r24,47-0x20
 1982               	.LM364:
 1983 084c 88E3      		ldi r24,lo8(56)
 1984 084e 8FB9      		out 47-0x20,r24
 1985               	.L326:
 1986               	.LM365:
 1987 0850 779B      		sbis 46-0x20,7
 1988 0852 00C0      		rjmp .L326
 1989               	.LM366:
 1990 0854 8FB1      		in r24,47-0x20
 1991               	.LM367:
 1992 0856 C49A      		sbi 56-0x20,4
 1993               	.LBE181:
 1994               	.LBE180:
 1995               	.LBB182:
 1996               	.LBB183:
 1997               	.LM368:
 1998 0858 C498      		cbi 56-0x20,4
 1999               	.LM369:
 2000               	/* #APP */
 2001 085a 0000      		nop
 2002               	.LM370:
 2003 085c 0000      		nop
 2004               	.LM371:
 2005 085e 0000      		nop
 2006               	/* #NOAPP */
 2007 0860 80E0      		ldi r24,lo8(0)
 2008 0862 90E0      		ldi r25,hi8(0)
 2009 0864 A0E0      		ldi r26,hlo8(0)
 2010 0866 B0E0      		ldi r27,hhi8(0)
 2011               	.LVL159:
 2012 0868 00C0      		rjmp .L328
 2013               	.L329:
 2014               	.LM372:
 2015 086a 813A      		cpi r24,lo8(100001)
 2016 086c 26E8      		ldi r18,hi8(100001)
 2017 086e 9207      		cpc r25,r18
 2018 0870 21E0      		ldi r18,hlo8(100001)
 2019 0872 A207      		cpc r26,r18
 2020 0874 20E0      		ldi r18,hhi8(100001)
 2021 0876 B207      		cpc r27,r18
 2022 0878 01F0      		breq .L330
 2023 087a 0196      		adiw r24,1
 2024 087c A11D      		adc r26,__zero_reg__
 2025 087e B11D      		adc r27,__zero_reg__
 2026               	.L328:
 2027               	.LM373:
 2028 0880 B69B      		sbis 54-0x20,6
 2029 0882 00C0      		rjmp .L329
 2030               	.L330:
 2031               	.LM374:
 2032 0884 C49A      		sbi 56-0x20,4
 2033               	.LBE183:
 2034               	.LBE182:
 2035               	.LBB184:
 2036               	.LBB185:
 2037               	.LM375:
 2038 0886 C498      		cbi 56-0x20,4
 2039               	.LM376:
 2040 0888 88EB      		ldi r24,lo8(-72)
 2041               	.LVL160:
 2042 088a 8FB9      		out 47-0x20,r24
 2043               	.L332:
 2044               	.LM377:
 2045 088c 779B      		sbis 46-0x20,7
 2046 088e 00C0      		rjmp .L332
 2047               	.LM378:
 2048 0890 8FB1      		in r24,47-0x20
 2049               	.LM379:
 2050 0892 8AEA      		ldi r24,lo8(-86)
 2051 0894 8FB9      		out 47-0x20,r24
 2052               	.L334:
 2053               	.LM380:
 2054 0896 779B      		sbis 46-0x20,7
 2055 0898 00C0      		rjmp .L334
 2056               	.LM381:
 2057 089a 8FB1      		in r24,47-0x20
 2058               	.LM382:
 2059 089c C49A      		sbi 56-0x20,4
 2060               	.LBE185:
 2061               	.LBE184:
 2062               	.LBB186:
 2063               	.LBB187:
 2064               	.LM383:
 2065 089e C498      		cbi 56-0x20,4
 2066               	.LM384:
 2067               	/* #APP */
 2068 08a0 0000      		nop
 2069               	.LM385:
 2070 08a2 0000      		nop
 2071               	.LM386:
 2072 08a4 0000      		nop
 2073               	/* #NOAPP */
 2074 08a6 80E0      		ldi r24,lo8(0)
 2075 08a8 90E0      		ldi r25,hi8(0)
 2076 08aa A0E0      		ldi r26,hlo8(0)
 2077 08ac B0E0      		ldi r27,hhi8(0)
 2078               	.LVL161:
 2079 08ae 00C0      		rjmp .L336
 2080               	.L337:
 2081               	.LM387:
 2082 08b0 813A      		cpi r24,lo8(100001)
 2083 08b2 26E8      		ldi r18,hi8(100001)
 2084 08b4 9207      		cpc r25,r18
 2085 08b6 21E0      		ldi r18,hlo8(100001)
 2086 08b8 A207      		cpc r26,r18
 2087 08ba 20E0      		ldi r18,hhi8(100001)
 2088 08bc B207      		cpc r27,r18
 2089 08be 01F0      		breq .L338
 2090 08c0 0196      		adiw r24,1
 2091 08c2 A11D      		adc r26,__zero_reg__
 2092 08c4 B11D      		adc r27,__zero_reg__
 2093               	.L336:
 2094               	.LM388:
 2095 08c6 B69B      		sbis 54-0x20,6
 2096 08c8 00C0      		rjmp .L337
 2097               	.L338:
 2098               	.LM389:
 2099 08ca C49A      		sbi 56-0x20,4
 2100               	.LBE187:
 2101               	.LBE186:
 2102               	.LBB188:
 2103               	.LBB189:
 2104               	.LM390:
 2105 08cc C498      		cbi 56-0x20,4
 2106               	.LM391:
 2107 08ce 88EB      		ldi r24,lo8(-72)
 2108               	.LVL162:
 2109 08d0 8FB9      		out 47-0x20,r24
 2110               	.L340:
 2111               	.LM392:
 2112 08d2 779B      		sbis 46-0x20,7
 2113 08d4 00C0      		rjmp .L340
 2114               	.LM393:
 2115 08d6 8FB1      		in r24,47-0x20
 2116               	.LM394:
 2117 08d8 8AEA      		ldi r24,lo8(-86)
 2118 08da 8FB9      		out 47-0x20,r24
 2119               	.L342:
 2120               	.LM395:
 2121 08dc 779B      		sbis 46-0x20,7
 2122 08de 00C0      		rjmp .L342
 2123               	.LM396:
 2124 08e0 8FB1      		in r24,47-0x20
 2125               	.LM397:
 2126 08e2 C49A      		sbi 56-0x20,4
 2127               	.LBE189:
 2128               	.LBE188:
 2129               	.LBB190:
 2130               	.LBB191:
 2131               	.LM398:
 2132 08e4 C498      		cbi 56-0x20,4
 2133               	.LM399:
 2134               	/* #APP */
 2135 08e6 0000      		nop
 2136               	.LM400:
 2137 08e8 0000      		nop
 2138               	.LM401:
 2139 08ea 0000      		nop
 2140               	/* #NOAPP */
 2141 08ec 80E0      		ldi r24,lo8(0)
 2142 08ee 90E0      		ldi r25,hi8(0)
 2143 08f0 A0E0      		ldi r26,hlo8(0)
 2144 08f2 B0E0      		ldi r27,hhi8(0)
 2145               	.LVL163:
 2146 08f4 00C0      		rjmp .L344
 2147               	.L345:
 2148               	.LM402:
 2149 08f6 813A      		cpi r24,lo8(100001)
 2150 08f8 26E8      		ldi r18,hi8(100001)
 2151 08fa 9207      		cpc r25,r18
 2152 08fc 21E0      		ldi r18,hlo8(100001)
 2153 08fe A207      		cpc r26,r18
 2154 0900 20E0      		ldi r18,hhi8(100001)
 2155 0902 B207      		cpc r27,r18
 2156 0904 01F0      		breq .L346
 2157 0906 0196      		adiw r24,1
 2158 0908 A11D      		adc r26,__zero_reg__
 2159 090a B11D      		adc r27,__zero_reg__
 2160               	.L344:
 2161               	.LM403:
 2162 090c B69B      		sbis 54-0x20,6
 2163 090e 00C0      		rjmp .L345
 2164               	.L346:
 2165               	.LM404:
 2166 0910 C49A      		sbi 56-0x20,4
 2167               	.LBE191:
 2168               	.LBE190:
 2169               	.LBB192:
 2170               	.LBB193:
 2171               	.LM405:
 2172 0912 C498      		cbi 56-0x20,4
 2173               	.LM406:
 2174 0914 88EB      		ldi r24,lo8(-72)
 2175               	.LVL164:
 2176 0916 8FB9      		out 47-0x20,r24
 2177               	.L348:
 2178               	.LM407:
 2179 0918 779B      		sbis 46-0x20,7
 2180 091a 00C0      		rjmp .L348
 2181               	.LM408:
 2182 091c 8FB1      		in r24,47-0x20
 2183               	.LM409:
 2184 091e 8AEA      		ldi r24,lo8(-86)
 2185 0920 8FB9      		out 47-0x20,r24
 2186               	.L350:
 2187               	.LM410:
 2188 0922 779B      		sbis 46-0x20,7
 2189 0924 00C0      		rjmp .L350
 2190               	.LM411:
 2191 0926 8FB1      		in r24,47-0x20
 2192               	.LM412:
 2193 0928 C49A      		sbi 56-0x20,4
 2194               	.LBE193:
 2195               	.LBE192:
 2196               	.LBB194:
 2197               	.LBB195:
 2198               	.LM413:
 2199 092a C498      		cbi 56-0x20,4
 2200               	.LM414:
 2201               	/* #APP */
 2202 092c 0000      		nop
 2203               	.LM415:
 2204 092e 0000      		nop
 2205               	.LM416:
 2206 0930 0000      		nop
 2207               	/* #NOAPP */
 2208 0932 80E0      		ldi r24,lo8(0)
 2209 0934 90E0      		ldi r25,hi8(0)
 2210 0936 A0E0      		ldi r26,hlo8(0)
 2211 0938 B0E0      		ldi r27,hhi8(0)
 2212               	.LVL165:
 2213 093a 00C0      		rjmp .L352
 2214               	.L353:
 2215               	.LM417:
 2216 093c 813A      		cpi r24,lo8(100001)
 2217 093e 26E8      		ldi r18,hi8(100001)
 2218 0940 9207      		cpc r25,r18
 2219 0942 21E0      		ldi r18,hlo8(100001)
 2220 0944 A207      		cpc r26,r18
 2221 0946 20E0      		ldi r18,hhi8(100001)
 2222 0948 B207      		cpc r27,r18
 2223 094a 01F0      		breq .L354
 2224 094c 0196      		adiw r24,1
 2225 094e A11D      		adc r26,__zero_reg__
 2226 0950 B11D      		adc r27,__zero_reg__
 2227               	.L352:
 2228               	.LM418:
 2229 0952 B69B      		sbis 54-0x20,6
 2230 0954 00C0      		rjmp .L353
 2231               	.L354:
 2232               	.LM419:
 2233 0956 C49A      		sbi 56-0x20,4
 2234               	.LBE195:
 2235               	.LBE194:
 2236               	.LBB196:
 2237               	.LBB197:
 2238               	.LM420:
 2239 0958 C498      		cbi 56-0x20,4
 2240               	.LM421:
 2241 095a 88EB      		ldi r24,lo8(-72)
 2242               	.LVL166:
 2243 095c 8FB9      		out 47-0x20,r24
 2244               	.L356:
 2245               	.LM422:
 2246 095e 779B      		sbis 46-0x20,7
 2247 0960 00C0      		rjmp .L356
 2248               	.LM423:
 2249 0962 8FB1      		in r24,47-0x20
 2250               	.LM424:
 2251 0964 8DE2      		ldi r24,lo8(45)
 2252 0966 8FB9      		out 47-0x20,r24
 2253               	.L358:
 2254               	.LM425:
 2255 0968 779B      		sbis 46-0x20,7
 2256 096a 00C0      		rjmp .L358
 2257               	.LM426:
 2258 096c 8FB1      		in r24,47-0x20
 2259               	.LM427:
 2260 096e C49A      		sbi 56-0x20,4
 2261               	.LBE197:
 2262               	.LBE196:
 2263               	.LBB198:
 2264               	.LBB199:
 2265               	.LM428:
 2266 0970 C498      		cbi 56-0x20,4
 2267               	.LM429:
 2268               	/* #APP */
 2269 0972 0000      		nop
 2270               	.LM430:
 2271 0974 0000      		nop
 2272               	.LM431:
 2273 0976 0000      		nop
 2274               	/* #NOAPP */
 2275 0978 80E0      		ldi r24,lo8(0)
 2276 097a 90E0      		ldi r25,hi8(0)
 2277 097c A0E0      		ldi r26,hlo8(0)
 2278 097e B0E0      		ldi r27,hhi8(0)
 2279               	.LVL167:
 2280 0980 00C0      		rjmp .L360
 2281               	.L361:
 2282               	.LM432:
 2283 0982 813A      		cpi r24,lo8(100001)
 2284 0984 26E8      		ldi r18,hi8(100001)
 2285 0986 9207      		cpc r25,r18
 2286 0988 21E0      		ldi r18,hlo8(100001)
 2287 098a A207      		cpc r26,r18
 2288 098c 20E0      		ldi r18,hhi8(100001)
 2289 098e B207      		cpc r27,r18
 2290 0990 01F0      		breq .L362
 2291 0992 0196      		adiw r24,1
 2292 0994 A11D      		adc r26,__zero_reg__
 2293 0996 B11D      		adc r27,__zero_reg__
 2294               	.L360:
 2295               	.LM433:
 2296 0998 B69B      		sbis 54-0x20,6
 2297 099a 00C0      		rjmp .L361
 2298               	.L362:
 2299               	.LM434:
 2300 099c C49A      		sbi 56-0x20,4
 2301               	.LBE199:
 2302               	.LBE198:
 2303               	.LBB200:
 2304               	.LBB201:
 2305               	.LM435:
 2306 099e C498      		cbi 56-0x20,4
 2307               	.LM436:
 2308 09a0 88EB      		ldi r24,lo8(-72)
 2309               	.LVL168:
 2310 09a2 8FB9      		out 47-0x20,r24
 2311               	.L364:
 2312               	.LM437:
 2313 09a4 779B      		sbis 46-0x20,7
 2314 09a6 00C0      		rjmp .L364
 2315               	.LM438:
 2316 09a8 8FB1      		in r24,47-0x20
 2317               	.LM439:
 2318 09aa 84ED      		ldi r24,lo8(-44)
 2319 09ac 8FB9      		out 47-0x20,r24
 2320               	.L366:
 2321               	.LM440:
 2322 09ae 779B      		sbis 46-0x20,7
 2323 09b0 00C0      		rjmp .L366
 2324               	.LM441:
 2325 09b2 8FB1      		in r24,47-0x20
 2326               	.LM442:
 2327 09b4 C49A      		sbi 56-0x20,4
 2328               	.LBE201:
 2329               	.LBE200:
 2330               	.LBB202:
 2331               	.LBB203:
 2332               	.LM443:
 2333 09b6 C498      		cbi 56-0x20,4
 2334               	.LM444:
 2335               	/* #APP */
 2336 09b8 0000      		nop
 2337               	.LM445:
 2338 09ba 0000      		nop
 2339               	.LM446:
 2340 09bc 0000      		nop
 2341               	/* #NOAPP */
 2342 09be 80E0      		ldi r24,lo8(0)
 2343 09c0 90E0      		ldi r25,hi8(0)
 2344 09c2 A0E0      		ldi r26,hlo8(0)
 2345 09c4 B0E0      		ldi r27,hhi8(0)
 2346               	.LVL169:
 2347 09c6 00C0      		rjmp .L368
 2348               	.L369:
 2349               	.LM447:
 2350 09c8 813A      		cpi r24,lo8(100001)
 2351 09ca 26E8      		ldi r18,hi8(100001)
 2352 09cc 9207      		cpc r25,r18
 2353 09ce 21E0      		ldi r18,hlo8(100001)
 2354 09d0 A207      		cpc r26,r18
 2355 09d2 20E0      		ldi r18,hhi8(100001)
 2356 09d4 B207      		cpc r27,r18
 2357 09d6 01F0      		breq .L370
 2358 09d8 0196      		adiw r24,1
 2359 09da A11D      		adc r26,__zero_reg__
 2360 09dc B11D      		adc r27,__zero_reg__
 2361               	.L368:
 2362               	.LM448:
 2363 09de B69B      		sbis 54-0x20,6
 2364 09e0 00C0      		rjmp .L369
 2365               	.L370:
 2366               	.LM449:
 2367 09e2 C49A      		sbi 56-0x20,4
 2368               	.LBE203:
 2369               	.LBE202:
 2370               	.LM450:
 2371 09e4 402F      		mov r20,r16
 2372 09e6 5527      		clr r21
 2373 09e8 9A01      		movw r18,r20
 2374 09ea 386B      		ori r19,hi8(-18432)
 2375               	.LBB204:
 2376               	.LBB205:
 2377               	.LM451:
 2378 09ec C498      		cbi 56-0x20,4
 2379               	.LM452:
 2380 09ee 832F      		mov r24,r19
 2381 09f0 9927      		clr r25
 2382               	.LVL170:
 2383 09f2 8FB9      		out 47-0x20,r24
 2384               	.LVL171:
 2385               	.L372:
 2386               	.LM453:
 2387 09f4 779B      		sbis 46-0x20,7
 2388 09f6 00C0      		rjmp .L372
 2389               	.LM454:
 2390 09f8 8FB1      		in r24,47-0x20
 2391               	.LM455:
 2392 09fa 2FB9      		out 47-0x20,r18
 2393               	.L374:
 2394               	.LM456:
 2395 09fc 779B      		sbis 46-0x20,7
 2396 09fe 00C0      		rjmp .L374
 2397               	.LM457:
 2398 0a00 8FB1      		in r24,47-0x20
 2399               	.LM458:
 2400 0a02 C49A      		sbi 56-0x20,4
 2401               	.LBE205:
 2402               	.LBE204:
 2403               	.LBB206:
 2404               	.LBB207:
 2405               	.LM459:
 2406 0a04 942F      		mov r25,r20
 2407 0a06 8827      		clr r24
 2408               	.LVL172:
 2409               	.LM460:
 2410 0a08 97FD      		sbrc r25,7
 2411 0a0a 00C0      		rjmp .L529
 2412 0a0c 20E0      		ldi r18,lo8(0)
 2413 0a0e 30E0      		ldi r19,hi8(0)
 2414               	.LVL173:
 2415               	.LM461:
 2416 0a10 AC01      		movw r20,r24
 2417               	.LVL174:
 2418 0a12 440F      		lsl r20
 2419 0a14 551F      		rol r21
 2420               	.LM462:
 2421 0a16 CA01      		movw r24,r20
 2422               	.LVL175:
 2423 0a18 8227      		eor r24,r18
 2424 0a1a 9327      		eor r25,r19
 2425 0a1c 97FD      		sbrc r25,7
 2426 0a1e 00C0      		rjmp .L379
 2427               	.L533:
 2428               	.LM463:
 2429 0a20 220F      		lsl r18
 2430 0a22 331F      		rol r19
 2431               	.LVL176:
 2432               	.LM464:
 2433 0a24 440F      		lsl r20
 2434 0a26 551F      		rol r21
 2435               	.LVL177:
 2436               	.LM465:
 2437 0a28 CA01      		movw r24,r20
 2438 0a2a 8227      		eor r24,r18
 2439 0a2c 9327      		eor r25,r19
 2440 0a2e 97FD      		sbrc r25,7
 2441 0a30 00C0      		rjmp .L382
 2442               	.L534:
 2443               	.LM466:
 2444 0a32 220F      		lsl r18
 2445 0a34 331F      		rol r19
 2446               	.LVL178:
 2447               	.LM467:
 2448 0a36 440F      		lsl r20
 2449 0a38 551F      		rol r21
 2450               	.LVL179:
 2451               	.LM468:
 2452 0a3a CA01      		movw r24,r20
 2453 0a3c 8227      		eor r24,r18
 2454 0a3e 9327      		eor r25,r19
 2455 0a40 97FD      		sbrc r25,7
 2456 0a42 00C0      		rjmp .L385
 2457               	.L535:
 2458               	.LM469:
 2459 0a44 220F      		lsl r18
 2460 0a46 331F      		rol r19
 2461               	.LVL180:
 2462               	.LM470:
 2463 0a48 440F      		lsl r20
 2464 0a4a 551F      		rol r21
 2465               	.LVL181:
 2466               	.LM471:
 2467 0a4c CA01      		movw r24,r20
 2468 0a4e 8227      		eor r24,r18
 2469 0a50 9327      		eor r25,r19
 2470 0a52 97FD      		sbrc r25,7
 2471 0a54 00C0      		rjmp .L388
 2472               	.L536:
 2473               	.LM472:
 2474 0a56 220F      		lsl r18
 2475 0a58 331F      		rol r19
 2476               	.LVL182:
 2477               	.LM473:
 2478 0a5a FA01      		movw r30,r20
 2479               	.LVL183:
 2480 0a5c EE0F      		lsl r30
 2481 0a5e FF1F      		rol r31
 2482               	.LM474:
 2483 0a60 CF01      		movw r24,r30
 2484 0a62 8227      		eor r24,r18
 2485 0a64 9327      		eor r25,r19
 2486 0a66 97FD      		sbrc r25,7
 2487 0a68 00C0      		rjmp .L391
 2488               	.L537:
 2489               	.LM475:
 2490 0a6a A901      		movw r20,r18
 2491               	.LVL184:
 2492 0a6c 440F      		lsl r20
 2493 0a6e 551F      		rol r21
 2494               	.LM476:
 2495 0a70 9F01      		movw r18,r30
 2496               	.LVL185:
 2497 0a72 220F      		lsl r18
 2498 0a74 331F      		rol r19
 2499               	.LVL186:
 2500               	.LM477:
 2501 0a76 C901      		movw r24,r18
 2502 0a78 8427      		eor r24,r20
 2503 0a7a 9527      		eor r25,r21
 2504 0a7c 97FD      		sbrc r25,7
 2505 0a7e 00C0      		rjmp .L394
 2506               	.L538:
 2507               	.LM478:
 2508 0a80 440F      		lsl r20
 2509 0a82 551F      		rol r21
 2510               	.LVL187:
 2511               	.LM479:
 2512 0a84 220F      		lsl r18
 2513 0a86 331F      		rol r19
 2514 0a88 2427      		eor r18,r20
 2515 0a8a 3527      		eor r19,r21
 2516 0a8c 37FD      		sbrc r19,7
 2517 0a8e 00C0      		rjmp .L530
 2518               	.L397:
 2519               	.LM480:
 2520 0a90 BA01      		movw r22,r20
 2521               	.LVL188:
 2522 0a92 660F      		lsl r22
 2523 0a94 771F      		rol r23
 2524               	.L399:
 2525               	.LBE207:
 2526               	.LBE206:
 2527               	.LM481:
 2528 0a96 0023      		tst r16
 2529 0a98 01F4      		brne .+2
 2530 0a9a 00C0      		rjmp .L400
 2531 0a9c 10E0      		ldi r17,lo8(0)
 2532               	.LVL189:
 2533               	.LVL190:
 2534               	.L402:
 2535               	.LBB208:
 2536               	.LBB209:
 2537               	.LM482:
 2538 0a9e C498      		cbi 56-0x20,4
 2539               	.LM483:
 2540               	/* #APP */
 2541 0aa0 0000      		nop
 2542               	.LM484:
 2543 0aa2 0000      		nop
 2544               	.LM485:
 2545 0aa4 0000      		nop
 2546               	/* #NOAPP */
 2547 0aa6 80E0      		ldi r24,lo8(0)
 2548 0aa8 90E0      		ldi r25,hi8(0)
 2549 0aaa A0E0      		ldi r26,hlo8(0)
 2550 0aac B0E0      		ldi r27,hhi8(0)
 2551               	.LVL191:
 2552 0aae 00C0      		rjmp .L403
 2553               	.L404:
 2554               	.LM486:
 2555 0ab0 813A      		cpi r24,lo8(100001)
 2556 0ab2 26E8      		ldi r18,hi8(100001)
 2557 0ab4 9207      		cpc r25,r18
 2558 0ab6 21E0      		ldi r18,hlo8(100001)
 2559 0ab8 A207      		cpc r26,r18
 2560 0aba 20E0      		ldi r18,hhi8(100001)
 2561 0abc B207      		cpc r27,r18
 2562               	.LVL192:
 2563 0abe 01F0      		breq .L405
 2564 0ac0 0196      		adiw r24,1
 2565 0ac2 A11D      		adc r26,__zero_reg__
 2566 0ac4 B11D      		adc r27,__zero_reg__
 2567               	.LVL193:
 2568               	.L403:
 2569               	.LM487:
 2570 0ac6 B69B      		sbis 54-0x20,6
 2571 0ac8 00C0      		rjmp .L404
 2572               	.L405:
 2573               	.LM488:
 2574 0aca C49A      		sbi 56-0x20,4
 2575               	.LBE209:
 2576               	.LBE208:
 2577               	.LM489:
 2578 0acc FE01      		movw r30,r28
 2579               	.LVL194:
 2580 0ace E10F      		add r30,r17
 2581 0ad0 F11D      		adc r31,__zero_reg__
 2582 0ad2 8081      		ld r24,Z
 2583               	.LVL195:
 2584 0ad4 282F      		mov r18,r24
 2585 0ad6 3327      		clr r19
 2586               	.LVL196:
 2587 0ad8 386B      		ori r19,hi8(-18432)
 2588               	.LBB210:
 2589               	.LBB211:
 2590               	.LM490:
 2591 0ada C498      		cbi 56-0x20,4
 2592               	.LM491:
 2593 0adc 832F      		mov r24,r19
 2594 0ade 9927      		clr r25
 2595 0ae0 8FB9      		out 47-0x20,r24
 2596               	.L407:
 2597               	.LM492:
 2598 0ae2 779B      		sbis 46-0x20,7
 2599 0ae4 00C0      		rjmp .L407
 2600               	.LM493:
 2601 0ae6 8FB1      		in r24,47-0x20
 2602               	.LM494:
 2603 0ae8 2FB9      		out 47-0x20,r18
 2604               	.L409:
 2605               	.LM495:
 2606 0aea 779B      		sbis 46-0x20,7
 2607 0aec 00C0      		rjmp .L409
 2608               	.LM496:
 2609 0aee 8FB1      		in r24,47-0x20
 2610               	.LM497:
 2611 0af0 C49A      		sbi 56-0x20,4
 2612               	.LBE211:
 2613               	.LBE210:
 2614               	.LM498:
 2615 0af2 8081      		ld r24,Z
 2616               	.LVL197:
 2617               	.LBB212:
 2618               	.LBB213:
 2619               	.LM499:
 2620 0af4 9927      		clr r25
 2621 0af6 582F      		mov r21,r24
 2622 0af8 4427      		clr r20
 2623               	.LVL198:
 2624               	.LM500:
 2625 0afa CB01      		movw r24,r22
 2626               	.LVL199:
 2627 0afc 8427      		eor r24,r20
 2628 0afe 9527      		eor r25,r21
 2629 0b00 97FD      		sbrc r25,7
 2630 0b02 00C0      		rjmp .L411
 2631               	.LM501:
 2632 0b04 9B01      		movw r18,r22
 2633               	.LVL200:
 2634 0b06 220F      		lsl r18
 2635 0b08 331F      		rol r19
 2636               	.L413:
 2637               	.LM502:
 2638 0b0a 440F      		lsl r20
 2639 0b0c 551F      		rol r21
 2640               	.LVL201:
 2641               	.LM503:
 2642 0b0e CA01      		movw r24,r20
 2643 0b10 8227      		eor r24,r18
 2644 0b12 9327      		eor r25,r19
 2645 0b14 97FD      		sbrc r25,7
 2646 0b16 00C0      		rjmp .L414
 2647               	.LM504:
 2648 0b18 220F      		lsl r18
 2649 0b1a 331F      		rol r19
 2650               	.LVL202:
 2651               	.L416:
 2652               	.LM505:
 2653 0b1c 440F      		lsl r20
 2654 0b1e 551F      		rol r21
 2655               	.LVL203:
 2656               	.LM506:
 2657 0b20 CA01      		movw r24,r20
 2658 0b22 8227      		eor r24,r18
 2659 0b24 9327      		eor r25,r19
 2660 0b26 97FD      		sbrc r25,7
 2661 0b28 00C0      		rjmp .L417
 2662               	.LM507:
 2663 0b2a 220F      		lsl r18
 2664 0b2c 331F      		rol r19
 2665               	.LVL204:
 2666               	.L419:
 2667               	.LM508:
 2668 0b2e 440F      		lsl r20
 2669 0b30 551F      		rol r21
 2670               	.LVL205:
 2671               	.LM509:
 2672 0b32 CA01      		movw r24,r20
 2673 0b34 8227      		eor r24,r18
 2674 0b36 9327      		eor r25,r19
 2675 0b38 97FD      		sbrc r25,7
 2676 0b3a 00C0      		rjmp .L420
 2677               	.LM510:
 2678 0b3c 220F      		lsl r18
 2679 0b3e 331F      		rol r19
 2680               	.LVL206:
 2681               	.L422:
 2682               	.LM511:
 2683 0b40 440F      		lsl r20
 2684 0b42 551F      		rol r21
 2685               	.LVL207:
 2686               	.LM512:
 2687 0b44 CA01      		movw r24,r20
 2688 0b46 8227      		eor r24,r18
 2689 0b48 9327      		eor r25,r19
 2690 0b4a 97FD      		sbrc r25,7
 2691 0b4c 00C0      		rjmp .L423
 2692               	.LM513:
 2693 0b4e 220F      		lsl r18
 2694 0b50 331F      		rol r19
 2695               	.LVL208:
 2696               	.L425:
 2697               	.LM514:
 2698 0b52 FA01      		movw r30,r20
 2699               	.LVL209:
 2700 0b54 EE0F      		lsl r30
 2701 0b56 FF1F      		rol r31
 2702               	.LM515:
 2703 0b58 CF01      		movw r24,r30
 2704 0b5a 8227      		eor r24,r18
 2705 0b5c 9327      		eor r25,r19
 2706 0b5e 97FD      		sbrc r25,7
 2707 0b60 00C0      		rjmp .L426
 2708               	.LM516:
 2709 0b62 A901      		movw r20,r18
 2710               	.LVL210:
 2711 0b64 440F      		lsl r20
 2712 0b66 551F      		rol r21
 2713               	.L428:
 2714               	.LM517:
 2715 0b68 9F01      		movw r18,r30
 2716               	.LVL211:
 2717 0b6a 220F      		lsl r18
 2718 0b6c 331F      		rol r19
 2719               	.LM518:
 2720 0b6e C901      		movw r24,r18
 2721 0b70 8427      		eor r24,r20
 2722 0b72 9527      		eor r25,r21
 2723 0b74 97FD      		sbrc r25,7
 2724 0b76 00C0      		rjmp .L429
 2725               	.LM519:
 2726 0b78 440F      		lsl r20
 2727 0b7a 551F      		rol r21
 2728               	.LVL212:
 2729               	.L431:
 2730               	.LM520:
 2731 0b7c 220F      		lsl r18
 2732 0b7e 331F      		rol r19
 2733 0b80 2427      		eor r18,r20
 2734 0b82 3527      		eor r19,r21
 2735 0b84 37FD      		sbrc r19,7
 2736 0b86 00C0      		rjmp .L531
 2737               	.LM521:
 2738 0b88 BA01      		movw r22,r20
 2739               	.LVL213:
 2740 0b8a 660F      		lsl r22
 2741 0b8c 771F      		rol r23
 2742               	.L434:
 2743               	.LBE213:
 2744               	.LBE212:
 2745               	.LM522:
 2746 0b8e 1F5F      		subi r17,lo8(-(1))
 2747 0b90 0117      		cp r16,r17
 2748 0b92 01F0      		breq .+2
 2749 0b94 00C0      		rjmp .L402
 2750               	.LVL214:
 2751               	.L400:
 2752               	.LBB214:
 2753               	.LBB215:
 2754               	.LM523:
 2755 0b96 C498      		cbi 56-0x20,4
 2756               	.LM524:
 2757               	/* #APP */
 2758 0b98 0000      		nop
 2759               	.LM525:
 2760 0b9a 0000      		nop
 2761               	.LM526:
 2762 0b9c 0000      		nop
 2763               	/* #NOAPP */
 2764 0b9e 80E0      		ldi r24,lo8(0)
 2765 0ba0 90E0      		ldi r25,hi8(0)
 2766 0ba2 A0E0      		ldi r26,hlo8(0)
 2767 0ba4 B0E0      		ldi r27,hhi8(0)
 2768               	.LVL215:
 2769 0ba6 00C0      		rjmp .L435
 2770               	.L436:
 2771               	.LM527:
 2772 0ba8 813A      		cpi r24,lo8(100001)
 2773 0baa 26E8      		ldi r18,hi8(100001)
 2774 0bac 9207      		cpc r25,r18
 2775 0bae 21E0      		ldi r18,hlo8(100001)
 2776 0bb0 A207      		cpc r26,r18
 2777 0bb2 20E0      		ldi r18,hhi8(100001)
 2778 0bb4 B207      		cpc r27,r18
 2779               	.LVL216:
 2780 0bb6 01F0      		breq .L437
 2781 0bb8 0196      		adiw r24,1
 2782 0bba A11D      		adc r26,__zero_reg__
 2783 0bbc B11D      		adc r27,__zero_reg__
 2784               	.LVL217:
 2785               	.L435:
 2786               	.LM528:
 2787 0bbe B69B      		sbis 54-0x20,6
 2788 0bc0 00C0      		rjmp .L436
 2789               	.L437:
 2790               	.LM529:
 2791 0bc2 C49A      		sbi 56-0x20,4
 2792               	.LBE215:
 2793               	.LBE214:
 2794               	.LM530:
 2795 0bc4 9B01      		movw r18,r22
 2796               	.LVL218:
 2797 0bc6 3070      		andi r19,hi8(255)
 2798 0bc8 386B      		ori r19,hi8(-18432)
 2799               	.LBB216:
 2800               	.LBB217:
 2801               	.LM531:
 2802 0bca C498      		cbi 56-0x20,4
 2803               	.LM532:
 2804 0bcc 832F      		mov r24,r19
 2805 0bce 9927      		clr r25
 2806               	.LVL219:
 2807 0bd0 8FB9      		out 47-0x20,r24
 2808               	.L439:
 2809               	.LM533:
 2810 0bd2 779B      		sbis 46-0x20,7
 2811 0bd4 00C0      		rjmp .L439
 2812               	.LM534:
 2813 0bd6 8FB1      		in r24,47-0x20
 2814               	.LM535:
 2815 0bd8 2FB9      		out 47-0x20,r18
 2816               	.L441:
 2817               	.LM536:
 2818 0bda 779B      		sbis 46-0x20,7
 2819 0bdc 00C0      		rjmp .L441
 2820               	.LM537:
 2821 0bde 8FB1      		in r24,47-0x20
 2822               	.LM538:
 2823 0be0 C49A      		sbi 56-0x20,4
 2824               	.LBE217:
 2825               	.LBE216:
 2826               	.LBB218:
 2827               	.LBB219:
 2828               	.LM539:
 2829 0be2 C498      		cbi 56-0x20,4
 2830               	.LM540:
 2831               	/* #APP */
 2832 0be4 0000      		nop
 2833               	.LM541:
 2834 0be6 0000      		nop
 2835               	.LM542:
 2836 0be8 0000      		nop
 2837               	/* #NOAPP */
 2838 0bea 80E0      		ldi r24,lo8(0)
 2839 0bec 90E0      		ldi r25,hi8(0)
 2840 0bee A0E0      		ldi r26,hlo8(0)
 2841 0bf0 B0E0      		ldi r27,hhi8(0)
 2842               	.LVL220:
 2843 0bf2 00C0      		rjmp .L443
 2844               	.L444:
 2845               	.LM543:
 2846 0bf4 813A      		cpi r24,lo8(100001)
 2847 0bf6 26E8      		ldi r18,hi8(100001)
 2848 0bf8 9207      		cpc r25,r18
 2849 0bfa 21E0      		ldi r18,hlo8(100001)
 2850 0bfc A207      		cpc r26,r18
 2851 0bfe 20E0      		ldi r18,hhi8(100001)
 2852 0c00 B207      		cpc r27,r18
 2853 0c02 01F0      		breq .L445
 2854 0c04 0196      		adiw r24,1
 2855 0c06 A11D      		adc r26,__zero_reg__
 2856 0c08 B11D      		adc r27,__zero_reg__
 2857               	.L443:
 2858               	.LM544:
 2859 0c0a B69B      		sbis 54-0x20,6
 2860 0c0c 00C0      		rjmp .L444
 2861               	.L445:
 2862               	.LM545:
 2863 0c0e C49A      		sbi 56-0x20,4
 2864               	.LBE219:
 2865               	.LBE218:
 2866               	.LM546:
 2867 0c10 272F      		mov r18,r23
 2868 0c12 3327      		clr r19
 2869 0c14 386B      		ori r19,hi8(-18432)
 2870               	.LBB220:
 2871               	.LBB221:
 2872               	.LM547:
 2873 0c16 C498      		cbi 56-0x20,4
 2874               	.LM548:
 2875 0c18 832F      		mov r24,r19
 2876 0c1a 9927      		clr r25
 2877               	.LVL221:
 2878 0c1c 8FB9      		out 47-0x20,r24
 2879               	.L447:
 2880               	.LM549:
 2881 0c1e 779B      		sbis 46-0x20,7
 2882 0c20 00C0      		rjmp .L447
 2883               	.LM550:
 2884 0c22 8FB1      		in r24,47-0x20
 2885               	.LM551:
 2886 0c24 2FB9      		out 47-0x20,r18
 2887               	.L449:
 2888               	.LM552:
 2889 0c26 779B      		sbis 46-0x20,7
 2890 0c28 00C0      		rjmp .L449
 2891               	.LM553:
 2892 0c2a 8FB1      		in r24,47-0x20
 2893               	.LM554:
 2894 0c2c C49A      		sbi 56-0x20,4
 2895               	.LBE221:
 2896               	.LBE220:
 2897               	.LBB222:
 2898               	.LBB223:
 2899               	.LM555:
 2900 0c2e C498      		cbi 56-0x20,4
 2901               	.LM556:
 2902               	/* #APP */
 2903 0c30 0000      		nop
 2904               	.LM557:
 2905 0c32 0000      		nop
 2906               	.LM558:
 2907 0c34 0000      		nop
 2908               	/* #NOAPP */
 2909 0c36 80E0      		ldi r24,lo8(0)
 2910 0c38 90E0      		ldi r25,hi8(0)
 2911 0c3a A0E0      		ldi r26,hlo8(0)
 2912 0c3c B0E0      		ldi r27,hhi8(0)
 2913               	.LVL222:
 2914 0c3e 00C0      		rjmp .L451
 2915               	.L452:
 2916               	.LM559:
 2917 0c40 813A      		cpi r24,lo8(100001)
 2918 0c42 26E8      		ldi r18,hi8(100001)
 2919 0c44 9207      		cpc r25,r18
 2920 0c46 21E0      		ldi r18,hlo8(100001)
 2921 0c48 A207      		cpc r26,r18
 2922 0c4a 20E0      		ldi r18,hhi8(100001)
 2923 0c4c B207      		cpc r27,r18
 2924 0c4e 01F0      		breq .L453
 2925 0c50 0196      		adiw r24,1
 2926 0c52 A11D      		adc r26,__zero_reg__
 2927 0c54 B11D      		adc r27,__zero_reg__
 2928               	.L451:
 2929               	.LM560:
 2930 0c56 B69B      		sbis 54-0x20,6
 2931 0c58 00C0      		rjmp .L452
 2932               	.L453:
 2933               	.LM561:
 2934 0c5a C49A      		sbi 56-0x20,4
 2935               	.LBE223:
 2936               	.LBE222:
 2937               	.LBB224:
 2938               	.LBB225:
 2939               	.LM562:
 2940 0c5c C498      		cbi 56-0x20,4
 2941               	.LM563:
 2942 0c5e 88EB      		ldi r24,lo8(-72)
 2943               	.LVL223:
 2944 0c60 8FB9      		out 47-0x20,r24
 2945               	.L455:
 2946               	.LM564:
 2947 0c62 779B      		sbis 46-0x20,7
 2948 0c64 00C0      		rjmp .L455
 2949               	.LM565:
 2950 0c66 8FB1      		in r24,47-0x20
 2951               	.LM566:
 2952 0c68 8AEA      		ldi r24,lo8(-86)
 2953 0c6a 8FB9      		out 47-0x20,r24
 2954               	.L457:
 2955               	.LM567:
 2956 0c6c 779B      		sbis 46-0x20,7
 2957 0c6e 00C0      		rjmp .L457
 2958               	.LM568:
 2959 0c70 8FB1      		in r24,47-0x20
 2960               	.LM569:
 2961 0c72 C49A      		sbi 56-0x20,4
 2962               	.LBE225:
 2963               	.LBE224:
 2964               	.LBB226:
 2965               	.LBB227:
 2966               	.LM570:
 2967 0c74 C498      		cbi 56-0x20,4
 2968               	.LM571:
 2969               	/* #APP */
 2970 0c76 0000      		nop
 2971               	.LM572:
 2972 0c78 0000      		nop
 2973               	.LM573:
 2974 0c7a 0000      		nop
 2975               	/* #NOAPP */
 2976 0c7c 80E0      		ldi r24,lo8(0)
 2977 0c7e 90E0      		ldi r25,hi8(0)
 2978 0c80 A0E0      		ldi r26,hlo8(0)
 2979 0c82 B0E0      		ldi r27,hhi8(0)
 2980               	.LVL224:
 2981 0c84 00C0      		rjmp .L459
 2982               	.L460:
 2983               	.LM574:
 2984 0c86 813A      		cpi r24,lo8(100001)
 2985 0c88 26E8      		ldi r18,hi8(100001)
 2986 0c8a 9207      		cpc r25,r18
 2987 0c8c 21E0      		ldi r18,hlo8(100001)
 2988 0c8e A207      		cpc r26,r18
 2989 0c90 20E0      		ldi r18,hhi8(100001)
 2990 0c92 B207      		cpc r27,r18
 2991 0c94 01F0      		breq .L461
 2992 0c96 0196      		adiw r24,1
 2993 0c98 A11D      		adc r26,__zero_reg__
 2994 0c9a B11D      		adc r27,__zero_reg__
 2995               	.L459:
 2996               	.LM575:
 2997 0c9c B69B      		sbis 54-0x20,6
 2998 0c9e 00C0      		rjmp .L460
 2999               	.L461:
 3000               	.LM576:
 3001 0ca0 C49A      		sbi 56-0x20,4
 3002               	.LBE227:
 3003               	.LBE226:
 3004               	.LBB228:
 3005               	.LBB229:
 3006               	.LM577:
 3007 0ca2 C498      		cbi 56-0x20,4
 3008               	.LM578:
 3009 0ca4 88EB      		ldi r24,lo8(-72)
 3010               	.LVL225:
 3011 0ca6 8FB9      		out 47-0x20,r24
 3012               	.L463:
 3013               	.LM579:
 3014 0ca8 779B      		sbis 46-0x20,7
 3015 0caa 00C0      		rjmp .L463
 3016               	.LM580:
 3017 0cac 8FB1      		in r24,47-0x20
 3018               	.LM581:
 3019 0cae 8AEA      		ldi r24,lo8(-86)
 3020 0cb0 8FB9      		out 47-0x20,r24
 3021               	.L465:
 3022               	.LM582:
 3023 0cb2 779B      		sbis 46-0x20,7
 3024 0cb4 00C0      		rjmp .L465
 3025               	.LM583:
 3026 0cb6 8FB1      		in r24,47-0x20
 3027               	.LM584:
 3028 0cb8 C49A      		sbi 56-0x20,4
 3029               	.LBE229:
 3030               	.LBE228:
 3031               	.LBB230:
 3032               	.LBB231:
 3033               	.LM585:
 3034 0cba C498      		cbi 56-0x20,4
 3035               	.LM586:
 3036               	/* #APP */
 3037 0cbc 0000      		nop
 3038               	.LM587:
 3039 0cbe 0000      		nop
 3040               	.LM588:
 3041 0cc0 0000      		nop
 3042               	/* #NOAPP */
 3043 0cc2 80E0      		ldi r24,lo8(0)
 3044 0cc4 90E0      		ldi r25,hi8(0)
 3045 0cc6 A0E0      		ldi r26,hlo8(0)
 3046 0cc8 B0E0      		ldi r27,hhi8(0)
 3047               	.LVL226:
 3048 0cca 00C0      		rjmp .L467
 3049               	.L468:
 3050               	.LM589:
 3051 0ccc 813A      		cpi r24,lo8(100001)
 3052 0cce 26E8      		ldi r18,hi8(100001)
 3053 0cd0 9207      		cpc r25,r18
 3054 0cd2 21E0      		ldi r18,hlo8(100001)
 3055 0cd4 A207      		cpc r26,r18
 3056 0cd6 20E0      		ldi r18,hhi8(100001)
 3057 0cd8 B207      		cpc r27,r18
 3058 0cda 01F0      		breq .L469
 3059 0cdc 0196      		adiw r24,1
 3060 0cde A11D      		adc r26,__zero_reg__
 3061 0ce0 B11D      		adc r27,__zero_reg__
 3062               	.L467:
 3063               	.LM590:
 3064 0ce2 B69B      		sbis 54-0x20,6
 3065 0ce4 00C0      		rjmp .L468
 3066               	.L469:
 3067               	.LM591:
 3068 0ce6 C49A      		sbi 56-0x20,4
 3069               	.LBE231:
 3070               	.LBE230:
 3071               	.LBB232:
 3072               	.LBB233:
 3073               	.LM592:
 3074 0ce8 C498      		cbi 56-0x20,4
 3075               	.LM593:
 3076 0cea 82E8      		ldi r24,lo8(-126)
 3077               	.LVL227:
 3078 0cec 8FB9      		out 47-0x20,r24
 3079               	.L471:
 3080               	.LM594:
 3081 0cee 779B      		sbis 46-0x20,7
 3082 0cf0 00C0      		rjmp .L471
 3083               	.LM595:
 3084 0cf2 8FB1      		in r24,47-0x20
 3085               	.LM596:
 3086 0cf4 88E0      		ldi r24,lo8(8)
 3087 0cf6 8FB9      		out 47-0x20,r24
 3088               	.L473:
 3089               	.LM597:
 3090 0cf8 779B      		sbis 46-0x20,7
 3091 0cfa 00C0      		rjmp .L473
 3092 0cfc 00C0      		rjmp .L539
 3093               	.LVL228:
 3094               	.L531:
 3095               	.LBE233:
 3096               	.LBE232:
 3097               	.LBB234:
 3098               	.LBB235:
 3099               	.LM598:
 3100 0cfe BA01      		movw r22,r20
 3101               	.LVL229:
 3102 0d00 660F      		lsl r22
 3103 0d02 771F      		rol r23
 3104 0d04 81E2      		ldi r24,lo8(4129)
 3105 0d06 90E1      		ldi r25,hi8(4129)
 3106 0d08 6827      		eor r22,r24
 3107 0d0a 7927      		eor r23,r25
 3108 0d0c 00C0      		rjmp .L434
 3109               	.LVL230:
 3110               	.L429:
 3111 0d0e 440F      		lsl r20
 3112 0d10 551F      		rol r21
 3113               	.LVL231:
 3114 0d12 81E2      		ldi r24,lo8(4129)
 3115 0d14 90E1      		ldi r25,hi8(4129)
 3116 0d16 4827      		eor r20,r24
 3117 0d18 5927      		eor r21,r25
 3118 0d1a 00C0      		rjmp .L431
 3119               	.LVL232:
 3120               	.L426:
 3121 0d1c A901      		movw r20,r18
 3122               	.LVL233:
 3123 0d1e 440F      		lsl r20
 3124 0d20 551F      		rol r21
 3125 0d22 81E2      		ldi r24,lo8(4129)
 3126 0d24 90E1      		ldi r25,hi8(4129)
 3127 0d26 4827      		eor r20,r24
 3128 0d28 5927      		eor r21,r25
 3129 0d2a 00C0      		rjmp .L428
 3130               	.LVL234:
 3131               	.L423:
 3132 0d2c 220F      		lsl r18
 3133 0d2e 331F      		rol r19
 3134               	.LVL235:
 3135 0d30 81E2      		ldi r24,lo8(4129)
 3136 0d32 90E1      		ldi r25,hi8(4129)
 3137 0d34 2827      		eor r18,r24
 3138 0d36 3927      		eor r19,r25
 3139 0d38 00C0      		rjmp .L425
 3140               	.LVL236:
 3141               	.L420:
 3142 0d3a 220F      		lsl r18
 3143 0d3c 331F      		rol r19
 3144               	.LVL237:
 3145 0d3e 81E2      		ldi r24,lo8(4129)
 3146 0d40 90E1      		ldi r25,hi8(4129)
 3147 0d42 2827      		eor r18,r24
 3148 0d44 3927      		eor r19,r25
 3149 0d46 00C0      		rjmp .L422
 3150               	.LVL238:
 3151               	.L417:
 3152 0d48 220F      		lsl r18
 3153 0d4a 331F      		rol r19
 3154               	.LVL239:
 3155 0d4c 81E2      		ldi r24,lo8(4129)
 3156 0d4e 90E1      		ldi r25,hi8(4129)
 3157 0d50 2827      		eor r18,r24
 3158 0d52 3927      		eor r19,r25
 3159 0d54 00C0      		rjmp .L419
 3160               	.LVL240:
 3161               	.L414:
 3162 0d56 220F      		lsl r18
 3163 0d58 331F      		rol r19
 3164               	.LVL241:
 3165 0d5a 81E2      		ldi r24,lo8(4129)
 3166 0d5c 90E1      		ldi r25,hi8(4129)
 3167 0d5e 2827      		eor r18,r24
 3168 0d60 3927      		eor r19,r25
 3169 0d62 00C0      		rjmp .L416
 3170               	.LVL242:
 3171               	.L411:
 3172 0d64 9B01      		movw r18,r22
 3173               	.LVL243:
 3174 0d66 220F      		lsl r18
 3175 0d68 331F      		rol r19
 3176 0d6a 81E2      		ldi r24,lo8(4129)
 3177 0d6c 90E1      		ldi r25,hi8(4129)
 3178 0d6e 2827      		eor r18,r24
 3179 0d70 3927      		eor r19,r25
 3180 0d72 00C0      		rjmp .L413
 3181               	.LVL244:
 3182               	.L529:
 3183               	.LBE235:
 3184               	.LBE234:
 3185               	.LBB236:
 3186               	.LBB237:
 3187               	.LM599:
 3188 0d74 21E2      		ldi r18,lo8(4129)
 3189 0d76 30E1      		ldi r19,hi8(4129)
 3190               	.LVL245:
 3191               	.LM600:
 3192 0d78 AC01      		movw r20,r24
 3193               	.LVL246:
 3194 0d7a 440F      		lsl r20
 3195 0d7c 551F      		rol r21
 3196               	.LM601:
 3197 0d7e CA01      		movw r24,r20
 3198               	.LVL247:
 3199 0d80 8227      		eor r24,r18
 3200 0d82 9327      		eor r25,r19
 3201 0d84 97FF      		sbrs r25,7
 3202 0d86 00C0      		rjmp .L533
 3203               	.L379:
 3204               	.LM602:
 3205 0d88 220F      		lsl r18
 3206 0d8a 331F      		rol r19
 3207               	.LVL248:
 3208 0d8c 2162      		ori r18,lo8(4129)
 3209 0d8e 3061      		ori r19,hi8(4129)
 3210               	.LM603:
 3211 0d90 440F      		lsl r20
 3212 0d92 551F      		rol r21
 3213               	.LVL249:
 3214               	.LM604:
 3215 0d94 CA01      		movw r24,r20
 3216 0d96 8227      		eor r24,r18
 3217 0d98 9327      		eor r25,r19
 3218 0d9a 97FF      		sbrs r25,7
 3219 0d9c 00C0      		rjmp .L534
 3220               	.L382:
 3221               	.LM605:
 3222 0d9e 220F      		lsl r18
 3223 0da0 331F      		rol r19
 3224               	.LVL250:
 3225 0da2 81E2      		ldi r24,lo8(4129)
 3226 0da4 90E1      		ldi r25,hi8(4129)
 3227 0da6 2827      		eor r18,r24
 3228 0da8 3927      		eor r19,r25
 3229               	.LM606:
 3230 0daa 440F      		lsl r20
 3231 0dac 551F      		rol r21
 3232               	.LVL251:
 3233               	.LM607:
 3234 0dae CA01      		movw r24,r20
 3235 0db0 8227      		eor r24,r18
 3236 0db2 9327      		eor r25,r19
 3237 0db4 97FF      		sbrs r25,7
 3238 0db6 00C0      		rjmp .L535
 3239               	.L385:
 3240               	.LM608:
 3241 0db8 220F      		lsl r18
 3242 0dba 331F      		rol r19
 3243               	.LVL252:
 3244 0dbc 81E2      		ldi r24,lo8(4129)
 3245 0dbe 90E1      		ldi r25,hi8(4129)
 3246 0dc0 2827      		eor r18,r24
 3247 0dc2 3927      		eor r19,r25
 3248               	.LM609:
 3249 0dc4 440F      		lsl r20
 3250 0dc6 551F      		rol r21
 3251               	.LVL253:
 3252               	.LM610:
 3253 0dc8 CA01      		movw r24,r20
 3254 0dca 8227      		eor r24,r18
 3255 0dcc 9327      		eor r25,r19
 3256 0dce 97FF      		sbrs r25,7
 3257 0dd0 00C0      		rjmp .L536
 3258               	.L388:
 3259               	.LM611:
 3260 0dd2 220F      		lsl r18
 3261 0dd4 331F      		rol r19
 3262               	.LVL254:
 3263 0dd6 81E2      		ldi r24,lo8(4129)
 3264 0dd8 90E1      		ldi r25,hi8(4129)
 3265 0dda 2827      		eor r18,r24
 3266 0ddc 3927      		eor r19,r25
 3267               	.LM612:
 3268 0dde FA01      		movw r30,r20
 3269               	.LVL255:
 3270 0de0 EE0F      		lsl r30
 3271 0de2 FF1F      		rol r31
 3272               	.LM613:
 3273 0de4 CF01      		movw r24,r30
 3274 0de6 8227      		eor r24,r18
 3275 0de8 9327      		eor r25,r19
 3276 0dea 97FF      		sbrs r25,7
 3277 0dec 00C0      		rjmp .L537
 3278               	.L391:
 3279               	.LM614:
 3280 0dee A901      		movw r20,r18
 3281               	.LVL256:
 3282 0df0 440F      		lsl r20
 3283 0df2 551F      		rol r21
 3284 0df4 81E2      		ldi r24,lo8(4129)
 3285 0df6 90E1      		ldi r25,hi8(4129)
 3286 0df8 4827      		eor r20,r24
 3287 0dfa 5927      		eor r21,r25
 3288               	.LM615:
 3289 0dfc 9F01      		movw r18,r30
 3290               	.LVL257:
 3291 0dfe 220F      		lsl r18
 3292 0e00 331F      		rol r19
 3293               	.LVL258:
 3294               	.LM616:
 3295 0e02 C901      		movw r24,r18
 3296 0e04 8427      		eor r24,r20
 3297 0e06 9527      		eor r25,r21
 3298 0e08 97FF      		sbrs r25,7
 3299 0e0a 00C0      		rjmp .L538
 3300               	.L394:
 3301               	.LM617:
 3302 0e0c 440F      		lsl r20
 3303 0e0e 551F      		rol r21
 3304               	.LVL259:
 3305 0e10 81E2      		ldi r24,lo8(4129)
 3306 0e12 90E1      		ldi r25,hi8(4129)
 3307 0e14 4827      		eor r20,r24
 3308 0e16 5927      		eor r21,r25
 3309               	.LM618:
 3310 0e18 220F      		lsl r18
 3311 0e1a 331F      		rol r19
 3312 0e1c 2427      		eor r18,r20
 3313 0e1e 3527      		eor r19,r21
 3314 0e20 37FF      		sbrs r19,7
 3315 0e22 00C0      		rjmp .L397
 3316               	.L530:
 3317               	.LM619:
 3318 0e24 BA01      		movw r22,r20
 3319               	.LVL260:
 3320 0e26 660F      		lsl r22
 3321 0e28 771F      		rol r23
 3322 0e2a 81E2      		ldi r24,lo8(4129)
 3323 0e2c 90E1      		ldi r25,hi8(4129)
 3324 0e2e 6827      		eor r22,r24
 3325 0e30 7927      		eor r23,r25
 3326 0e32 00C0      		rjmp .L399
 3327               	.LVL261:
 3328               	.L539:
 3329               	.LBE237:
 3330               	.LBE236:
 3331               	.LBB238:
 3332               	.LBB239:
 3333               	.LM620:
 3334 0e34 8FB1      		in r24,47-0x20
 3335               	.LM621:
 3336 0e36 C49A      		sbi 56-0x20,4
 3337               	.LBE239:
 3338               	.LBE238:
 3339               	/* epilogue: frame size=0 */
 3340 0e38 DF91      		pop r29
 3341 0e3a CF91      		pop r28
 3342 0e3c 1F91      		pop r17
 3343 0e3e 0F91      		pop r16
 3344 0e40 0895      		ret
 3345               	/* epilogue end (size=5) */
 3346               	/* function rf12_txdata size 812 (803) */
 3347               	.LFE14:
 3445               	.Letext0:
DEFINED SYMBOLS
                            *ABS*:00000000 rf12.c
C:\DOKUME~1\ArnePe\LOKALE~1\Temp/ccW9N2hC.s:3      *ABS*:0000003f __SREG__
C:\DOKUME~1\ArnePe\LOKALE~1\Temp/ccW9N2hC.s:4      *ABS*:0000003e __SP_H__
C:\DOKUME~1\ArnePe\LOKALE~1\Temp/ccW9N2hC.s:5      *ABS*:0000003d __SP_L__
C:\DOKUME~1\ArnePe\LOKALE~1\Temp/ccW9N2hC.s:6      *ABS*:00000000 __tmp_reg__
C:\DOKUME~1\ArnePe\LOKALE~1\Temp/ccW9N2hC.s:7      *ABS*:00000001 __zero_reg__
C:\DOKUME~1\ArnePe\LOKALE~1\Temp/ccW9N2hC.s:20     .text:00000000 crcUpdate
C:\DOKUME~1\ArnePe\LOKALE~1\Temp/ccW9N2hC.s:297    .text:00000158 rf12_trans
C:\DOKUME~1\ArnePe\LOKALE~1\Temp/ccW9N2hC.s:345    .text:0000017e rf12_ready
C:\DOKUME~1\ArnePe\LOKALE~1\Temp/ccW9N2hC.s:394    .text:000001ae rf12_setpower
C:\DOKUME~1\ArnePe\LOKALE~1\Temp/ccW9N2hC.s:452    .text:000001e6 rf12_setbaud
C:\DOKUME~1\ArnePe\LOKALE~1\Temp/ccW9N2hC.s:563    .text:0000025c rf12_setfreq
C:\DOKUME~1\ArnePe\LOKALE~1\Temp/ccW9N2hC.s:640    .text:000002a0 rf12_setbandwidth
C:\DOKUME~1\ArnePe\LOKALE~1\Temp/ccW9N2hC.s:711    .text:000002f4 rf12_init
C:\DOKUME~1\ArnePe\LOKALE~1\Temp/ccW9N2hC.s:1011   .text:000003fe rf12_rxdata
C:\DOKUME~1\ArnePe\LOKALE~1\Temp/ccW9N2hC.s:1955   .text:00000834 rf12_txdata

UNDEFINED SYMBOLS
__do_copy_data
__do_clear_bss
__udivmodsi4
__divmodsi4
