   1               		.file	"main.c"
   2               		.arch atmega16
   3               	__SREG__ = 0x3f
   4               	__SP_H__ = 0x3e
   5               	__SP_L__ = 0x3d
   6               	__tmp_reg__ = 0
   7               	__zero_reg__ = 1
   8               		.global __do_copy_data
   9               		.global __do_clear_bss
  17               	.Ltext0:
  18               	.global	stellwert
  19               	.global	stellwert
  20               		.section .bss
  23               	stellwert:
  24 0000 0000 0000 		.skip 4,0
  25               	.global	differenzierer
  26               	.global	differenzierer
  29               	differenzierer:
  30 0004 0000 0000 		.skip 4,0
  31               	.global	integrator
  32               	.global	integrator
  35               	integrator:
  36 0008 0000 0000 		.skip 4,0
  37               	.global	fehler_alt
  38               	.global	fehler_alt
  41               	fehler_alt:
  42 000c 0000 0000 		.skip 4,0
  43               	.global	fehler
  44               	.global	fehler
  47               	fehler:
  48 0010 0000 0000 		.skip 4,0
  49               	.global	istwert
  50               	.global	istwert
  53               	istwert:
  54 0014 0000 0000 		.skip 4,0
  55               	.global	sollwert
  56               	.global	sollwert
  59               	sollwert:
  60 0018 0000 0000 		.skip 4,0
  61               	.global	startzeit
  62               	.global	startzeit
  65               	startzeit:
  66 001c 0000 0000 		.skip 4,0
  67               	.global	zeit
  68               	.global	zeit
  71               	zeit:
  72 0020 0000 0000 		.skip 4,0
  73               		.text
  74               	.global	regelung
  76               	regelung:
  77               	.LFB5:
  78               	.LM1:
  79               	/* prologue: frame size=0 */
  80 0000 CF92      		push r12
  81 0002 DF92      		push r13
  82 0004 EF92      		push r14
  83 0006 FF92      		push r15
  84 0008 0F93      		push r16
  85 000a 1F93      		push r17
  86 000c CF93      		push r28
  87 000e DF93      		push r29
  88               	/* prologue end (size=8) */
  89               	.LM2:
  90 0010 E82E      		mov r14,r24
  91 0012 FF24      		clr r15
  92 0014 E701      		movw r28,r14
  93 0016 CE0D      		add r28,r14
  94 0018 DF1D      		adc r29,r15
  95 001a 40E0      		ldi r20,lo8(sollwert)
  96 001c C42E      		mov r12,r20
  97 001e 40E0      		ldi r20,hi8(sollwert)
  98 0020 D42E      		mov r13,r20
  99 0022 CC0E      		add r12,r28
 100 0024 DD1E      		adc r13,r29
 101 0026 F601      		movw r30,r12
 102 0028 2081      		ld r18,Z
 103 002a 3181      		ldd r19,Z+1
 104 002c 2115      		cp r18,__zero_reg__
 105 002e 3105      		cpc r19,__zero_reg__
 106 0030 C9F4      		brne .L2
 107               	.LM3:
 108 0032 FE01      		movw r30,r28
 109 0034 E050      		subi r30,lo8(-(fehler))
 110 0036 F040      		sbci r31,hi8(-(fehler))
 111 0038 3183      		std Z+1,r19
 112 003a 2083      		st Z,r18
 113               	.LM4:
 114 003c FE01      		movw r30,r28
 115 003e E050      		subi r30,lo8(-(fehler_alt))
 116 0040 F040      		sbci r31,hi8(-(fehler_alt))
 117 0042 3183      		std Z+1,r19
 118 0044 2083      		st Z,r18
 119               	.LM5:
 120 0046 FE01      		movw r30,r28
 121 0048 E050      		subi r30,lo8(-(integrator))
 122 004a F040      		sbci r31,hi8(-(integrator))
 123 004c 3183      		std Z+1,r19
 124 004e 2083      		st Z,r18
 125               	.LM6:
 126 0050 FE01      		movw r30,r28
 127 0052 E050      		subi r30,lo8(-(differenzierer))
 128 0054 F040      		sbci r31,hi8(-(differenzierer))
 129 0056 3183      		std Z+1,r19
 130 0058 2083      		st Z,r18
 131               	.LM7:
 132 005a FE01      		movw r30,r28
 133 005c E050      		subi r30,lo8(-(stellwert))
 134 005e F040      		sbci r31,hi8(-(stellwert))
 135 0060 3183      		std Z+1,r19
 136 0062 2083      		st Z,r18
 137               	.L2:
 138               	.LM8:
 139 0064 8E01      		movw r16,r28
 140 0066 0050      		subi r16,lo8(-(istwert))
 141 0068 1040      		sbci r17,hi8(-(istwert))
 142 006a 0E94 0000 		call encoderGet
 143 006e F801      		movw r30,r16
 144 0070 9183      		std Z+1,r25
 145 0072 8083      		st Z,r24
 146               	.LM9:
 147 0074 AE01      		movw r20,r28
 148 0076 4050      		subi r20,lo8(-(fehler))
 149 0078 5040      		sbci r21,hi8(-(fehler))
 150 007a F601      		movw r30,r12
 151 007c 2081      		ld r18,Z
 152 007e 3181      		ldd r19,Z+1
 153 0080 281B      		sub r18,r24
 154 0082 390B      		sbc r19,r25
 155 0084 FA01      		movw r30,r20
 156 0086 3183      		std Z+1,r19
 157 0088 2083      		st Z,r18
 158               	.LM10:
 159 008a DE01      		movw r26,r28
 160 008c A050      		subi r26,lo8(-(integrator))
 161 008e B040      		sbci r27,hi8(-(integrator))
 162 0090 8D91      		ld r24,X+
 163 0092 9C91      		ld r25,X
 164 0094 1197      		sbiw r26,1
 165 0096 820F      		add r24,r18
 166 0098 931F      		adc r25,r19
 167 009a 1196      		adiw r26,1
 168 009c 9C93      		st X,r25
 169 009e 8E93      		st -X,r24
 170               	.LM11:
 171 00a0 8050      		subi r24,lo8(1024)
 172 00a2 9440      		sbci r25,hi8(1024)
 173 00a4 2CF0      		brlt .L3
 174               	.LM12:
 175 00a6 8FEF      		ldi r24,lo8(1023)
 176 00a8 93E0      		ldi r25,hi8(1023)
 177 00aa 1196      		adiw r26,1
 178 00ac 9C93      		st X,r25
 179 00ae 8E93      		st -X,r24
 180               	.L3:
 181               	.LM13:
 182 00b0 8D91      		ld r24,X+
 183 00b2 9C91      		ld r25,X
 184 00b4 1197      		sbiw r26,1
 185 00b6 8150      		subi r24,lo8(-1023)
 186 00b8 9C4F      		sbci r25,hi8(-1023)
 187 00ba 2CF4      		brge .L4
 188               	.LM14:
 189 00bc 81E0      		ldi r24,lo8(-1023)
 190 00be 9CEF      		ldi r25,hi8(-1023)
 191 00c0 1196      		adiw r26,1
 192 00c2 9C93      		st X,r25
 193 00c4 8E93      		st -X,r24
 194               	.L4:
 195               	.LM15:
 196 00c6 30E0      		ldi r19,lo8(differenzierer)
 197 00c8 C32E      		mov r12,r19
 198 00ca 30E0      		ldi r19,hi8(differenzierer)
 199 00cc D32E      		mov r13,r19
 200 00ce CC0E      		add r12,r28
 201 00d0 DD1E      		adc r13,r29
 202 00d2 BE01      		movw r22,r28
 203 00d4 6050      		subi r22,lo8(-(fehler_alt))
 204 00d6 7040      		sbci r23,hi8(-(fehler_alt))
 205 00d8 FA01      		movw r30,r20
 206 00da 4081      		ld r20,Z
 207 00dc 5181      		ldd r21,Z+1
 208 00de FB01      		movw r30,r22
 209 00e0 8081      		ld r24,Z
 210 00e2 9181      		ldd r25,Z+1
 211 00e4 9A01      		movw r18,r20
 212 00e6 281B      		sub r18,r24
 213 00e8 390B      		sbc r19,r25
 214 00ea F601      		movw r30,r12
 215 00ec 3183      		std Z+1,r19
 216 00ee 2083      		st Z,r18
 217               	.LM16:
 218 00f0 C050      		subi r28,lo8(-(stellwert))
 219 00f2 D040      		sbci r29,hi8(-(stellwert))
 220 00f4 8D91      		ld r24,X+
 221 00f6 9C91      		ld r25,X
 222 00f8 97FD      		sbrc r25,7
 223 00fa 0196      		adiw r24,1
 224               	.L5:
 225 00fc 9595      		asr r25
 226 00fe 8795      		ror r24
 227               	.LM17:
 228 0100 9A01      		movw r18,r20
 229 0102 240F      		add r18,r20
 230 0104 351F      		adc r19,r21
 231 0106 820F      		add r24,r18
 232 0108 931F      		adc r25,r19
 233 010a 9983      		std Y+1,r25
 234 010c 8883      		st Y,r24
 235               	.LM18:
 236 010e 8F3F      		cpi r24,255
 237 0110 9105      		cpc r25,__zero_reg__
 238 0112 29F0      		breq .L6
 239 0114 24F0      		brlt .L6
 240               	.LM19:
 241 0116 8FEF      		ldi r24,lo8(255)
 242 0118 90E0      		ldi r25,hi8(255)
 243 011a 9983      		std Y+1,r25
 244 011c 8883      		st Y,r24
 245               	.L6:
 246               	.LM20:
 247 011e 8881      		ld r24,Y
 248 0120 9981      		ldd r25,Y+1
 249 0122 8150      		subi r24,lo8(-255)
 250 0124 9F4F      		sbci r25,hi8(-255)
 251 0126 24F4      		brge .L7
 252               	.LM21:
 253 0128 81E0      		ldi r24,lo8(-255)
 254 012a 9FEF      		ldi r25,hi8(-255)
 255 012c 9983      		std Y+1,r25
 256 012e 8883      		st Y,r24
 257               	.L7:
 258               	.LM22:
 259 0130 FB01      		movw r30,r22
 260 0132 5183      		std Z+1,r21
 261 0134 4083      		st Z,r20
 262               	.LM23:
 263 0136 E114      		cp r14,__zero_reg__
 264 0138 F104      		cpc r15,__zero_reg__
 265 013a 29F0      		breq .L9
 266 013c F1E0      		ldi r31,lo8(1)
 267 013e EF16      		cp r14,r31
 268 0140 F104      		cpc r15,__zero_reg__
 269 0142 B1F0      		breq .L12
 270 0144 2BC0      		rjmp .L8
 271               	.L9:
 272               	.LM24:
 273 0146 8881      		ld r24,Y
 274 0148 9981      		ldd r25,Y+1
 275 014a 1816      		cp __zero_reg__,r24
 276 014c 1906      		cpc __zero_reg__,r25
 277 014e 24F4      		brge .L10
 278               	.LM25:
 279 0150 63E0      		ldi r22,lo8(3)
 280 0152 80E0      		ldi r24,lo8(0)
 281 0154 0E94 0000 		call motor_dir
 282               	.L10:
 283               	.LM26:
 284 0158 8881      		ld r24,Y
 285 015a 9981      		ldd r25,Y+1
 286 015c 97FF      		sbrs r25,7
 287 015e 1EC0      		rjmp .L8
 288               	.LM27:
 289 0160 9095      		com r25
 290 0162 8195      		neg r24
 291 0164 9F4F      		sbci r25,lo8(-1)
 292 0166 9983      		std Y+1,r25
 293 0168 8883      		st Y,r24
 294               	.LM28:
 295 016a 63E0      		ldi r22,lo8(3)
 296 016c 81E0      		ldi r24,lo8(1)
 297 016e 14C0      		rjmp .L15
 298               	.L12:
 299               	.LM29:
 300 0170 8881      		ld r24,Y
 301 0172 9981      		ldd r25,Y+1
 302 0174 1816      		cp __zero_reg__,r24
 303 0176 1906      		cpc __zero_reg__,r25
 304 0178 24F4      		brge .L13
 305               	.LM30:
 306 017a 60E0      		ldi r22,lo8(0)
 307 017c 83E0      		ldi r24,lo8(3)
 308 017e 0E94 0000 		call motor_dir
 309               	.L13:
 310               	.LM31:
 311 0182 8881      		ld r24,Y
 312 0184 9981      		ldd r25,Y+1
 313 0186 97FF      		sbrs r25,7
 314 0188 09C0      		rjmp .L8
 315               	.LM32:
 316 018a 9095      		com r25
 317 018c 8195      		neg r24
 318 018e 9F4F      		sbci r25,lo8(-1)
 319 0190 9983      		std Y+1,r25
 320 0192 8883      		st Y,r24
 321               	.LM33:
 322 0194 61E0      		ldi r22,lo8(1)
 323 0196 83E0      		ldi r24,lo8(3)
 324               	.L15:
 325 0198 0E94 0000 		call motor_dir
 326               	.L8:
 327               	.LM34:
 328 019c 6091 0000 		lds r22,stellwert+2
 329 01a0 8091 0000 		lds r24,stellwert
 330 01a4 0E94 0000 		call motor_speed
 331               	/* epilogue: frame size=0 */
 332 01a8 DF91      		pop r29
 333 01aa CF91      		pop r28
 334 01ac 1F91      		pop r17
 335 01ae 0F91      		pop r16
 336 01b0 FF90      		pop r15
 337 01b2 EF90      		pop r14
 338 01b4 DF90      		pop r13
 339 01b6 CF90      		pop r12
 340 01b8 0895      		ret
 341               	/* epilogue end (size=9) */
 342               	/* function regelung size 225 (208) */
 343               	.LFE5:
 345               		.data
 346               	.LC0:
 347 0000 0C20 2A2A 		.string	"\f *** DEBUG Regler **"
 347      2A20 4445 
 347      4255 4720 
 347      5265 676C 
 347      6572 202A 
 348               	.LC1:
 349 0016 736F 6C6C 		.string	"soll:\t"
 349      3A09 00
 350               	.LC2:
 351 001d 0A0D 00   		.string	"\n\r"
 352               	.LC3:
 353 0020 653A 0900 		.string	"e:\t"
 354               	.LC4:
 355 0024 696E 743A 		.string	"int:\t"
 355      0900 
 356               	.LC5:
 357 002a 6469 663A 		.string	"dif:\t"
 357      0900 
 358               	.LC6:
 359 0030 7374 656C 		.string	"stell:\t"
 359      6C3A 0900 
 360               	.LC7:
 361 0038 0D0A 00   		.string	"\r\n"
 362               		.text
 363               	.global	reglerwerte_ausgeben
 365               	reglerwerte_ausgeben:
 366               	.LFB6:
 367               	.LM35:
 368               	/* prologue: frame size=0 */
 369 01ba 0F93      		push r16
 370 01bc 1F93      		push r17
 371               	/* prologue end (size=2) */
 372 01be 182F      		mov r17,r24
 373               	.LM36:
 374 01c0 80E0      		ldi r24,lo8(.LC0)
 375 01c2 90E0      		ldi r25,hi8(.LC0)
 376 01c4 0E94 0000 		call uart_puts
 377               	.LM37:
 378 01c8 80E0      		ldi r24,lo8(.LC1)
 379 01ca 90E0      		ldi r25,hi8(.LC1)
 380 01cc 0E94 0000 		call uart_puts
 381               	.LM38:
 382 01d0 012F      		mov r16,r17
 383 01d2 1127      		clr r17
 384 01d4 000F      		add r16,r16
 385 01d6 111F      		adc r17,r17
 386 01d8 F801      		movw r30,r16
 387 01da E050      		subi r30,lo8(-(sollwert))
 388 01dc F040      		sbci r31,hi8(-(sollwert))
 389 01de 8081      		ld r24,Z
 390 01e0 9181      		ldd r25,Z+1
 391 01e2 0E94 0000 		call uart_puti
 392               	.LM39:
 393 01e6 80E0      		ldi r24,lo8(.LC2)
 394 01e8 90E0      		ldi r25,hi8(.LC2)
 395 01ea 0E94 0000 		call uart_puts
 396               	.LM40:
 397 01ee 80E0      		ldi r24,lo8(.LC3)
 398 01f0 90E0      		ldi r25,hi8(.LC3)
 399 01f2 0E94 0000 		call uart_puts
 400               	.LM41:
 401 01f6 F801      		movw r30,r16
 402 01f8 E050      		subi r30,lo8(-(fehler))
 403 01fa F040      		sbci r31,hi8(-(fehler))
 404 01fc 8081      		ld r24,Z
 405 01fe 9181      		ldd r25,Z+1
 406 0200 0E94 0000 		call uart_puti
 407               	.LM42:
 408 0204 80E0      		ldi r24,lo8(.LC2)
 409 0206 90E0      		ldi r25,hi8(.LC2)
 410 0208 0E94 0000 		call uart_puts
 411               	.LM43:
 412 020c 80E0      		ldi r24,lo8(.LC4)
 413 020e 90E0      		ldi r25,hi8(.LC4)
 414 0210 0E94 0000 		call uart_puts
 415               	.LM44:
 416 0214 F801      		movw r30,r16
 417 0216 E050      		subi r30,lo8(-(integrator))
 418 0218 F040      		sbci r31,hi8(-(integrator))
 419 021a 8081      		ld r24,Z
 420 021c 9181      		ldd r25,Z+1
 421 021e 0E94 0000 		call uart_puti
 422               	.LM45:
 423 0222 80E0      		ldi r24,lo8(.LC2)
 424 0224 90E0      		ldi r25,hi8(.LC2)
 425 0226 0E94 0000 		call uart_puts
 426               	.LM46:
 427 022a 80E0      		ldi r24,lo8(.LC5)
 428 022c 90E0      		ldi r25,hi8(.LC5)
 429 022e 0E94 0000 		call uart_puts
 430               	.LM47:
 431 0232 F801      		movw r30,r16
 432 0234 E050      		subi r30,lo8(-(differenzierer))
 433 0236 F040      		sbci r31,hi8(-(differenzierer))
 434 0238 8081      		ld r24,Z
 435 023a 9181      		ldd r25,Z+1
 436 023c 0E94 0000 		call uart_puti
 437               	.LM48:
 438 0240 80E0      		ldi r24,lo8(.LC2)
 439 0242 90E0      		ldi r25,hi8(.LC2)
 440 0244 0E94 0000 		call uart_puts
 441               	.LM49:
 442 0248 80E0      		ldi r24,lo8(.LC6)
 443 024a 90E0      		ldi r25,hi8(.LC6)
 444 024c 0E94 0000 		call uart_puts
 445               	.LM50:
 446 0250 0050      		subi r16,lo8(-(stellwert))
 447 0252 1040      		sbci r17,hi8(-(stellwert))
 448 0254 F801      		movw r30,r16
 449 0256 8081      		ld r24,Z
 450 0258 9181      		ldd r25,Z+1
 451 025a 0E94 0000 		call uart_puti
 452               	.LM51:
 453 025e 80E0      		ldi r24,lo8(.LC2)
 454 0260 90E0      		ldi r25,hi8(.LC2)
 455 0262 0E94 0000 		call uart_puts
 456               	.LM52:
 457 0266 80E0      		ldi r24,lo8(.LC7)
 458 0268 90E0      		ldi r25,hi8(.LC7)
 459 026a 0E94 0000 		call uart_puts
 460               	/* epilogue: frame size=0 */
 461 026e 1F91      		pop r17
 462 0270 0F91      		pop r16
 463 0272 0895      		ret
 464               	/* epilogue end (size=3) */
 465               	/* function reglerwerte_ausgeben size 93 (88) */
 466               	.LFE6:
 468               		.data
 469               	.LC8:
 470 003b 0C20 2A2A 		.string	"\f ** DEBUG Encoder **"
 470      2044 4542 
 470      5547 2045 
 470      6E63 6F64 
 470      6572 202A 
 471               	.LC9:
 472 0051 5A65 6974 		.string	"Zeit       Flanken\tPWM\r\n"
 472      2020 2020 
 472      2020 2046 
 472      6C61 6E6B 
 472      656E 0950 
 473               	.LC10:
 474 006a 2020 2020 		.string	"    "
 474      00
 475               	.LC11:
 476 006f 2020 2020 		.string	"    \t"
 476      0900 
 477               	.LC12:
 478 0075 2520 2020 		.string	"%    \r\n"
 478      200D 0A00 
 479               	.LC13:
 480 007d 0920 2020 		.string	"\t   "
 480      00
 481               	.LC14:
 482 0082 2520 2020 		.string	"%   \r\n"
 482      0D0A 00
 483               		.text
 484               	.global	encoder_ausgeben
 486               	encoder_ausgeben:
 487               	.LFB7:
 488               	.LM53:
 489               	/* prologue: frame size=0 */
 490 0274 EF92      		push r14
 491 0276 FF92      		push r15
 492 0278 0F93      		push r16
 493 027a 1F93      		push r17
 494               	/* prologue end (size=4) */
 495               	.LM54:
 496 027c 80E0      		ldi r24,lo8(.LC8)
 497 027e 90E0      		ldi r25,hi8(.LC8)
 498 0280 0E94 0000 		call uart_puts
 499               	.LM55:
 500 0284 80E0      		ldi r24,lo8(.LC9)
 501 0286 90E0      		ldi r25,hi8(.LC9)
 502 0288 0E94 0000 		call uart_puts
 503               	.LM56:
 504 028c 0E94 0000 		call uart_printtime
 505               	.LM57:
 506 0290 80E0      		ldi r24,lo8(.LC10)
 507 0292 90E0      		ldi r25,hi8(.LC10)
 508 0294 0E94 0000 		call uart_puts
 509               	.LM58:
 510 0298 8091 0000 		lds r24,istwert
 511 029c 9091 0000 		lds r25,(istwert)+1
 512 02a0 0E94 0000 		call uart_puti
 513               	.LM59:
 514 02a4 80E0      		ldi r24,lo8(.LC11)
 515 02a6 90E0      		ldi r25,hi8(.LC11)
 516 02a8 0E94 0000 		call uart_puts
 517               	.LM60:
 518 02ac 8091 0000 		lds r24,stellwert
 519 02b0 9091 0000 		lds r25,(stellwert)+1
 520 02b4 04E6      		ldi r16,lo8(100)
 521 02b6 10E0      		ldi r17,hi8(100)
 522 02b8 5FEF      		ldi r21,lo8(255)
 523 02ba E52E      		mov r14,r21
 524 02bc F12C      		mov r15,__zero_reg__
 525 02be 809F      		mul r24,r16
 526 02c0 9001      		movw r18,r0
 527 02c2 819F      		mul r24,r17
 528 02c4 300D      		add r19,r0
 529 02c6 909F      		mul r25,r16
 530 02c8 300D      		add r19,r0
 531 02ca 1124      		clr r1
 532 02cc C901      		movw r24,r18
 533 02ce B701      		movw r22,r14
 534 02d0 0E94 0000 		call __divmodhi4
 535 02d4 CB01      		movw r24,r22
 536 02d6 0E94 0000 		call uart_puti
 537               	.LM61:
 538 02da 80E0      		ldi r24,lo8(.LC12)
 539 02dc 90E0      		ldi r25,hi8(.LC12)
 540 02de 0E94 0000 		call uart_puts
 541               	.LM62:
 542 02e2 80E0      		ldi r24,lo8(.LC13)
 543 02e4 90E0      		ldi r25,hi8(.LC13)
 544 02e6 0E94 0000 		call uart_puts
 545               	.LM63:
 546 02ea 8091 0000 		lds r24,istwert+2
 547 02ee 9091 0000 		lds r25,(istwert+2)+1
 548 02f2 0E94 0000 		call uart_puti
 549               	.LM64:
 550 02f6 80E0      		ldi r24,lo8(.LC11)
 551 02f8 90E0      		ldi r25,hi8(.LC11)
 552 02fa 0E94 0000 		call uart_puts
 553               	.LM65:
 554 02fe 8091 0000 		lds r24,stellwert+2
 555 0302 9091 0000 		lds r25,(stellwert+2)+1
 556 0306 809F      		mul r24,r16
 557 0308 9001      		movw r18,r0
 558 030a 819F      		mul r24,r17
 559 030c 300D      		add r19,r0
 560 030e 909F      		mul r25,r16
 561 0310 300D      		add r19,r0
 562 0312 1124      		clr r1
 563 0314 C901      		movw r24,r18
 564 0316 B701      		movw r22,r14
 565 0318 0E94 0000 		call __divmodhi4
 566 031c CB01      		movw r24,r22
 567 031e 0E94 0000 		call uart_puti
 568               	.LM66:
 569 0322 80E0      		ldi r24,lo8(.LC14)
 570 0324 90E0      		ldi r25,hi8(.LC14)
 571 0326 0E94 0000 		call uart_puts
 572               	/* epilogue: frame size=0 */
 573 032a 1F91      		pop r17
 574 032c 0F91      		pop r16
 575 032e FF90      		pop r15
 576 0330 EF90      		pop r14
 577 0332 0895      		ret
 578               	/* epilogue end (size=5) */
 579               	/* function encoder_ausgeben size 96 (87) */
 580               	.LFE7:
 582               		.section	.progmem.data,"a",@progbits
 585               	__c.0:
 586 0000 0C20 2A2A 		.string	"\f *** Hallo! ***\r\n"
 586      2A20 4861 
 586      6C6C 6F21 
 586      202A 2A2A 
 586      0D0A 00
 589               	__c.1:
 590 0013 2049 6368 		.string	" Ich bin ein kleiner Roboter.\r\n"
 590      2062 696E 
 590      2065 696E 
 590      206B 6C65 
 590      696E 6572 
 593               	__c.2:
 594 0033 424F 543A 		.string	"BOT:\\>"
 594      5C3E 00
 595               		.text
 596               	.global	main
 598               	main:
 599               	.LFB4:
 600               	.LM67:
 601               	/* prologue: frame size=0 */
 602 0334 C0E0      		ldi r28,lo8(__stack - 0)
 603 0336 D0E0      		ldi r29,hi8(__stack - 0)
 604 0338 DEBF      		out __SP_H__,r29
 605 033a CDBF      		out __SP_L__,r28
 606               	/* prologue end (size=4) */
 607               	.LM68:
 608 033c 0E94 0000 		call uart_init
 609               	.LM69:
 610 0340 0E94 0000 		call timer2_init
 611               	.LM70:
 612 0344 0E94 0000 		call motor_init
 613               	.LM71:
 614 0348 0E94 0000 		call encoder_init
 615               	.LM72:
 616 034c 8A9A      		sbi 49-0x20,2
 617               	.LM73:
 618 034e 9298      		cbi 50-0x20,2
 619               	.LM74:
 620 0350 80E0      		ldi r24,lo8(__c.0)
 621 0352 90E0      		ldi r25,hi8(__c.0)
 622 0354 0E94 0000 		call uart_puts_p
 623               	.LM75:
 624 0358 80E0      		ldi r24,lo8(__c.1)
 625 035a 90E0      		ldi r25,hi8(__c.1)
 626 035c 0E94 0000 		call uart_puts_p
 627               	.LM76:
 628 0360 80E0      		ldi r24,lo8(__c.2)
 629 0362 90E0      		ldi r25,hi8(__c.2)
 630 0364 0E94 0000 		call uart_puts_p
 631               	.LM77:
 632 0368 C0E0      		ldi r28,lo8(0)
 633               	.LM78:
 634               	/* #APP */
 635 036a 7894      		sei
 636               	/* #NOAPP */
 637               	.L76:
 638               	.LM79:
 639 036c 0E94 0000 		call Gettime
 640 0370 9B01      		movw r18,r22
 641 0372 AC01      		movw r20,r24
 642 0374 8091 0000 		lds r24,zeit
 643 0378 9091 0000 		lds r25,(zeit)+1
 644 037c A091 0000 		lds r26,(zeit)+2
 645 0380 B091 0000 		lds r27,(zeit)+3
 646 0384 8C59      		subi r24,lo8(-(100))
 647 0386 9F4F      		sbci r25,hi8(-(100))
 648 0388 AF4F      		sbci r26,hlo8(-(100))
 649 038a BF4F      		sbci r27,hhi8(-(100))
 650 038c 2817      		cp r18,r24
 651 038e 3907      		cpc r19,r25
 652 0390 4A07      		cpc r20,r26
 653 0392 5B07      		cpc r21,r27
 654 0394 58F3      		brlo .L76
 655               	.LM80:
 656 0396 0E94 0000 		call Gettime
 657 039a DC01      		movw r26,r24
 658 039c CB01      		movw r24,r22
 659 039e 8093 0000 		sts zeit,r24
 660 03a2 9093 0000 		sts (zeit)+1,r25
 661 03a6 A093 0000 		sts (zeit)+2,r26
 662 03aa B093 0000 		sts (zeit)+3,r27
 663               	.LM81:
 664 03ae 80E0      		ldi r24,lo8(0)
 665 03b0 0E94 0000 		call regelung
 666               	.LM82:
 667 03b4 81E0      		ldi r24,lo8(1)
 668 03b6 0E94 0000 		call regelung
 669               	.LM83:
 670 03ba 0E94 0000 		call uart_getc
 671               	.LM84:
 672 03be 0E94 0000 		call command_put
 673               	.LM85:
 674 03c2 0E94 0000 		call command_get
 675 03c6 182F      		mov r17,r24
 676               	.LM86:
 677 03c8 0E94 0000 		call command_prompt
 678               	.LM87:
 679 03cc 812F      		mov r24,r17
 680 03ce 9927      		clr r25
 681 03d0 8B31      		cpi r24,27
 682 03d2 9105      		cpc r25,__zero_reg__
 683 03d4 09F4      		brne .+2
 684 03d6 71C0      		rjmp .L39
 685 03d8 8C31      		cpi r24,28
 686 03da 9105      		cpc r25,__zero_reg__
 687 03dc 7CF4      		brge .L41
 688 03de 8630      		cpi r24,6
 689 03e0 9105      		cpc r25,__zero_reg__
 690 03e2 09F1      		breq .L24
 691 03e4 8730      		cpi r24,7
 692 03e6 9105      		cpc r25,__zero_reg__
 693 03e8 1CF4      		brge .L42
 694 03ea 0597      		sbiw r24,5
 695 03ec D1F0      		breq .L23
 696 03ee 6EC0      		rjmp .L22
 697               	.L42:
 698 03f0 8C30      		cpi r24,12
 699 03f2 9105      		cpc r25,__zero_reg__
 700 03f4 51F1      		breq .L25
 701 03f6 0D97      		sbiw r24,13
 702 03f8 51F1      		breq .L26
 703 03fa 68C0      		rjmp .L22
 704               	.L41:
 705 03fc 8234      		cpi r24,66
 706 03fe 9105      		cpc r25,__zero_reg__
 707 0400 C9F1      		breq .L30
 708 0402 8334      		cpi r24,67
 709 0404 9105      		cpc r25,__zero_reg__
 710 0406 24F4      		brge .L43
 711 0408 8134      		cpi r24,65
 712 040a 9105      		cpc r25,__zero_reg__
 713 040c 11F1      		breq .L27
 714 040e 5EC0      		rjmp .L22
 715               	.L43:
 716 0410 8434      		cpi r24,68
 717 0412 9105      		cpc r25,__zero_reg__
 718 0414 09F4      		brne .+2
 719 0416 43C0      		rjmp .L33
 720 0418 8534      		cpi r24,69
 721 041a 9105      		cpc r25,__zero_reg__
 722 041c 09F4      		brne .+2
 723 041e 46C0      		rjmp .L36
 724 0420 55C0      		rjmp .L22
 725               	.L23:
 726               	.LM88:
 727 0422 C1E0      		ldi r28,lo8(1)
 728               	.LM89:
 729 0424 53C0      		rjmp .L22
 730               	.L24:
 731               	.LM90:
 732 0426 8091 0000 		lds r24,zeit
 733 042a 9091 0000 		lds r25,(zeit)+1
 734 042e A091 0000 		lds r26,(zeit)+2
 735 0432 B091 0000 		lds r27,(zeit)+3
 736 0436 8093 0000 		sts startzeit,r24
 737 043a 9093 0000 		sts (startzeit)+1,r25
 738 043e A093 0000 		sts (startzeit)+2,r26
 739 0442 B093 0000 		sts (startzeit)+3,r27
 740               	.LM91:
 741 0446 C2E0      		ldi r28,lo8(2)
 742               	.LM92:
 743 0448 41C0      		rjmp .L22
 744               	.L25:
 745               	.LM93:
 746 044a CBE0      		ldi r28,lo8(11)
 747               	.LM94:
 748 044c 3FC0      		rjmp .L22
 749               	.L26:
 750               	.LM95:
 751 044e CDE0      		ldi r28,lo8(13)
 752               	.LM96:
 753 0450 3DC0      		rjmp .L22
 754               	.L27:
 755               	.LM97:
 756 0452 C130      		cpi r28,lo8(1)
 757 0454 D9F5      		brne .L22
 758               	.LM98:
 759 0456 8091 0000 		lds r24,sollwert
 760 045a 9091 0000 		lds r25,(sollwert)+1
 761 045e 4496      		adiw r24,20
 762 0460 9093 0000 		sts (sollwert)+1,r25
 763 0464 8093 0000 		sts sollwert,r24
 764               	.LM99:
 765 0468 8091 0000 		lds r24,sollwert+2
 766 046c 9091 0000 		lds r25,(sollwert+2)+1
 767 0470 4496      		adiw r24,20
 768 0472 10C0      		rjmp .L74
 769               	.L30:
 770               	.LM100:
 771 0474 C130      		cpi r28,lo8(1)
 772 0476 51F5      		brne .L22
 773               	.LM101:
 774 0478 8091 0000 		lds r24,sollwert
 775 047c 9091 0000 		lds r25,(sollwert)+1
 776 0480 4497      		sbiw r24,20
 777 0482 9093 0000 		sts (sollwert)+1,r25
 778 0486 8093 0000 		sts sollwert,r24
 779               	.LM102:
 780 048a 8091 0000 		lds r24,sollwert+2
 781 048e 9091 0000 		lds r25,(sollwert+2)+1
 782 0492 4497      		sbiw r24,20
 783               	.L74:
 784 0494 9093 0000 		sts (sollwert+2)+1,r25
 785 0498 8093 0000 		sts sollwert+2,r24
 786               	.LM103:
 787 049c 17C0      		rjmp .L22
 788               	.L33:
 789               	.LM104:
 790 049e C130      		cpi r28,lo8(1)
 791 04a0 A9F4      		brne .L22
 792               	.LM105:
 793 04a2 1092 0000 		sts (sollwert)+1,__zero_reg__
 794 04a6 1092 0000 		sts sollwert,__zero_reg__
 795               	.LM106:
 796 04aa 10C0      		rjmp .L22
 797               	.L36:
 798               	.LM107:
 799 04ac C130      		cpi r28,lo8(1)
 800 04ae 71F4      		brne .L22
 801               	.LM108:
 802 04b0 1092 0000 		sts (sollwert+2)+1,__zero_reg__
 803 04b4 1092 0000 		sts sollwert+2,__zero_reg__
 804               	.LM109:
 805 04b8 09C0      		rjmp .L22
 806               	.L39:
 807               	.LM110:
 808 04ba 1092 0000 		sts (sollwert)+1,__zero_reg__
 809 04be 1092 0000 		sts sollwert,__zero_reg__
 810               	.LM111:
 811 04c2 1092 0000 		sts (sollwert+2)+1,__zero_reg__
 812 04c6 1092 0000 		sts sollwert+2,__zero_reg__
 813               	.LM112:
 814 04ca C0E0      		ldi r28,lo8(0)
 815               	.L22:
 816               	.LM113:
 817 04cc 8C2F      		mov r24,r28
 818 04ce 9927      		clr r25
 819 04d0 8B30      		cpi r24,11
 820 04d2 9105      		cpc r25,__zero_reg__
 821 04d4 49F0      		breq .L47
 822 04d6 8C30      		cpi r24,12
 823 04d8 9105      		cpc r25,__zero_reg__
 824 04da 1CF4      		brge .L68
 825 04dc 0297      		sbiw r24,2
 826 04de 71F0      		breq .L49
 827 04e0 45CF      		rjmp .L76
 828               	.L68:
 829 04e2 0D97      		sbiw r24,13
 830 04e4 21F0      		breq .L48
 831 04e6 42CF      		rjmp .L76
 832               	.L47:
 833               	.LM114:
 834 04e8 0E94 0000 		call encoder_ausgeben
 835               	.LM115:
 836 04ec 3FCF      		rjmp .L76
 837               	.L48:
 838               	.LM116:
 839 04ee 80E0      		ldi r24,lo8(0)
 840 04f0 0E94 0000 		call reglerwerte_ausgeben
 841               	.LM117:
 842 04f4 81E0      		ldi r24,lo8(1)
 843 04f6 0E94 0000 		call reglerwerte_ausgeben
 844               	.LM118:
 845 04fa 38CF      		rjmp .L76
 846               	.L49:
 847               	.LM119:
 848 04fc 2091 0000 		lds r18,zeit
 849 0500 3091 0000 		lds r19,(zeit)+1
 850 0504 4091 0000 		lds r20,(zeit)+2
 851 0508 5091 0000 		lds r21,(zeit)+3
 852 050c 8091 0000 		lds r24,startzeit
 853 0510 9091 0000 		lds r25,(startzeit)+1
 854 0514 A091 0000 		lds r26,(startzeit)+2
 855 0518 B091 0000 		lds r27,(startzeit)+3
 856 051c 281B      		sub r18,r24
 857 051e 390B      		sbc r19,r25
 858 0520 4A0B      		sbc r20,r26
 859 0522 5B0B      		sbc r21,r27
 860 0524 2032      		cpi r18,lo8(20000)
 861 0526 8EE4      		ldi r24,hi8(20000)
 862 0528 3807      		cpc r19,r24
 863 052a 80E0      		ldi r24,hlo8(20000)
 864 052c 4807      		cpc r20,r24
 865 052e 80E0      		ldi r24,hhi8(20000)
 866 0530 5807      		cpc r21,r24
 867 0532 09F4      		brne .+2
 868 0534 80C0      		rjmp .L58
 869 0536 2132      		cpi r18,lo8(20001)
 870 0538 8EE4      		ldi r24,hi8(20001)
 871 053a 3807      		cpc r19,r24
 872 053c 80E0      		ldi r24,hlo8(20001)
 873 053e 4807      		cpc r20,r24
 874 0540 80E0      		ldi r24,hhi8(20001)
 875 0542 5807      		cpc r21,r24
 876 0544 88F5      		brsh .L63
 877 0546 2034      		cpi r18,lo8(8000)
 878 0548 8FE1      		ldi r24,hi8(8000)
 879 054a 3807      		cpc r19,r24
 880 054c 80E0      		ldi r24,hlo8(8000)
 881 054e 4807      		cpc r20,r24
 882 0550 80E0      		ldi r24,hhi8(8000)
 883 0552 5807      		cpc r21,r24
 884 0554 09F4      		brne .+2
 885 0556 66C0      		rjmp .L53
 886 0558 2134      		cpi r18,lo8(8001)
 887 055a 8FE1      		ldi r24,hi8(8001)
 888 055c 3807      		cpc r19,r24
 889 055e 80E0      		ldi r24,hlo8(8001)
 890 0560 4807      		cpc r20,r24
 891 0562 80E0      		ldi r24,hhi8(8001)
 892 0564 5807      		cpc r21,r24
 893 0566 80F4      		brsh .L64
 894 0568 283B      		cpi r18,lo8(3000)
 895 056a 8BE0      		ldi r24,hi8(3000)
 896 056c 3807      		cpc r19,r24
 897 056e 80E0      		ldi r24,hlo8(3000)
 898 0570 4807      		cpc r20,r24
 899 0572 80E0      		ldi r24,hhi8(3000)
 900 0574 5807      		cpc r21,r24
 901 0576 09F4      		brne .+2
 902 0578 52C0      		rjmp .L51
 903 057a 2C57      		subi r18,lo8(5500)
 904 057c 3541      		sbci r19,hi8(5500)
 905 057e 4040      		sbci r20,hlo8(5500)
 906 0580 5040      		sbci r21,hhi8(5500)
 907 0582 09F4      		brne .+2
 908 0584 62C0      		rjmp .L60
 909 0586 F2CE      		rjmp .L76
 910               	.L64:
 911 0588 2839      		cpi r18,lo8(15000)
 912 058a 8AE3      		ldi r24,hi8(15000)
 913 058c 3807      		cpc r19,r24
 914 058e 80E0      		ldi r24,hlo8(15000)
 915 0590 4807      		cpc r20,r24
 916 0592 80E0      		ldi r24,hhi8(15000)
 917 0594 5807      		cpc r21,r24
 918 0596 09F4      		brne .+2
 919 0598 58C0      		rjmp .L60
 920 059a 2C55      		subi r18,lo8(17500)
 921 059c 3444      		sbci r19,hi8(17500)
 922 059e 4040      		sbci r20,hlo8(17500)
 923 05a0 5040      		sbci r21,hhi8(17500)
 924 05a2 09F4      		brne .+2
 925 05a4 42C0      		rjmp .L55
 926 05a6 E2CE      		rjmp .L76
 927               	.L63:
 928 05a8 2C36      		cpi r18,lo8(27500)
 929 05aa 8BE6      		ldi r24,hi8(27500)
 930 05ac 3807      		cpc r19,r24
 931 05ae 80E0      		ldi r24,hlo8(27500)
 932 05b0 4807      		cpc r20,r24
 933 05b2 80E0      		ldi r24,hhi8(27500)
 934 05b4 5807      		cpc r21,r24
 935 05b6 09F4      		brne .+2
 936 05b8 45C0      		rjmp .L59
 937 05ba 2D36      		cpi r18,lo8(27501)
 938 05bc 8BE6      		ldi r24,hi8(27501)
 939 05be 3807      		cpc r19,r24
 940 05c0 80E0      		ldi r24,hlo8(27501)
 941 05c2 4807      		cpc r20,r24
 942 05c4 80E0      		ldi r24,hhi8(27501)
 943 05c6 5807      		cpc r21,r24
 944 05c8 70F4      		brsh .L65
 945 05ca 243E      		cpi r18,lo8(22500)
 946 05cc 87E5      		ldi r24,hi8(22500)
 947 05ce 3807      		cpc r19,r24
 948 05d0 80E0      		ldi r24,hlo8(22500)
 949 05d2 4807      		cpc r20,r24
 950 05d4 80E0      		ldi r24,hhi8(22500)
 951 05d6 5807      		cpc r21,r24
 952 05d8 59F1      		breq .L57
 953 05da 285A      		subi r18,lo8(25000)
 954 05dc 3146      		sbci r19,hi8(25000)
 955 05de 4040      		sbci r20,hlo8(25000)
 956 05e0 5040      		sbci r21,hhi8(25000)
 957 05e2 49F1      		breq .L58
 958 05e4 C3CE      		rjmp .L76
 959               	.L65:
 960 05e6 243F      		cpi r18,lo8(32500)
 961 05e8 8EE7      		ldi r24,hi8(32500)
 962 05ea 3807      		cpc r19,r24
 963 05ec 80E0      		ldi r24,hlo8(32500)
 964 05ee 4807      		cpc r20,r24
 965 05f0 80E0      		ldi r24,hhi8(32500)
 966 05f2 5807      		cpc r21,r24
 967 05f4 89F1      		breq .L61
 968 05f6 253F      		cpi r18,lo8(32501)
 969 05f8 8EE7      		ldi r24,hi8(32501)
 970 05fa 3807      		cpc r19,r24
 971 05fc 80E0      		ldi r24,hlo8(32501)
 972 05fe 4807      		cpc r20,r24
 973 0600 80E0      		ldi r24,hhi8(32501)
 974 0602 5807      		cpc r21,r24
 975 0604 30F4      		brsh .L66
 976 0606 2053      		subi r18,lo8(30000)
 977 0608 3547      		sbci r19,hi8(30000)
 978 060a 4040      		sbci r20,hlo8(30000)
 979 060c 5040      		sbci r21,hhi8(30000)
 980 060e E9F0      		breq .L60
 981 0610 ADCE      		rjmp .L76
 982               	.L66:
 983 0612 285B      		subi r18,lo8(35000)
 984 0614 3848      		sbci r19,hi8(35000)
 985 0616 4040      		sbci r20,hlo8(35000)
 986 0618 5040      		sbci r21,hhi8(35000)
 987 061a 49F1      		breq .L62
 988 061c A7CE      		rjmp .L76
 989               	.L51:
 990               	.LM120:
 991 061e 82E3      		ldi r24,lo8(50)
 992 0620 90E0      		ldi r25,hi8(50)
 993 0622 1CC0      		rjmp .L75
 994               	.L53:
 995               	.LM121:
 996 0624 8EE1      		ldi r24,lo8(30)
 997 0626 90E0      		ldi r25,hi8(30)
 998 0628 19C0      		rjmp .L75
 999               	.L55:
 1000               	.LM122:
 1001 062a 8CE3      		ldi r24,lo8(60)
 1002 062c 90E0      		ldi r25,hi8(60)
 1003 062e 16C0      		rjmp .L75
 1004               	.L57:
 1005               	.LM123:
 1006 0630 80E5      		ldi r24,lo8(80)
 1007 0632 90E0      		ldi r25,hi8(80)
 1008 0634 13C0      		rjmp .L75
 1009               	.L58:
 1010               	.LM124:
 1011 0636 82E3      		ldi r24,lo8(50)
 1012 0638 90E0      		ldi r25,hi8(50)
 1013 063a 9093 0000 		sts (sollwert)+1,r25
 1014 063e 8093 0000 		sts sollwert,r24
 1015 0642 19C0      		rjmp .L73
 1016               	.L59:
 1017               	.LM125:
 1018 0644 84E6      		ldi r24,lo8(100)
 1019 0646 90E0      		ldi r25,hi8(100)
 1020 0648 09C0      		rjmp .L75
 1021               	.L60:
 1022               	.LM126:
 1023 064a 1092 0000 		sts (sollwert)+1,__zero_reg__
 1024 064e 1092 0000 		sts sollwert,__zero_reg__
 1025               	.LM127:
 1026 0652 82E3      		ldi r24,lo8(50)
 1027 0654 90E0      		ldi r25,hi8(50)
 1028 0656 06C0      		rjmp .L72
 1029               	.L61:
 1030               	.LM128:
 1031 0658 86E9      		ldi r24,lo8(150)
 1032 065a 90E0      		ldi r25,hi8(150)
 1033               	.L75:
 1034 065c 9093 0000 		sts (sollwert)+1,r25
 1035 0660 8093 0000 		sts sollwert,r24
 1036               	.L72:
 1037               	.LM129:
 1038 0664 9093 0000 		sts (sollwert+2)+1,r25
 1039 0668 8093 0000 		sts sollwert+2,r24
 1040               	.LM130:
 1041 066c 7FCE      		rjmp .L76
 1042               	.L62:
 1043               	.LM131:
 1044 066e 1092 0000 		sts (sollwert)+1,__zero_reg__
 1045 0672 1092 0000 		sts sollwert,__zero_reg__
 1046               	.L73:
 1047               	.LM132:
 1048 0676 1092 0000 		sts (sollwert+2)+1,__zero_reg__
 1049 067a 1092 0000 		sts sollwert+2,__zero_reg__
 1050               	.LM133:
 1051 067e 76CE      		rjmp .L76
 1052               	/* epilogue: frame size=0 */
 1053               	/* epilogue: noreturn */
 1054               	/* epilogue end (size=0) */
 1055               	/* function main size 442 (438) */
 1056               	.LFE4:
 1058               		.comm count36kHz,1,1
 1059               		.comm timebase,4,1
 1060               	.Letext0:
DEFINED SYMBOLS
                            *ABS*:00000000 main.c
C:\DOKUME~1\ArnePe\LOKALE~1\Temp/ccCkaaaa.s:3      *ABS*:0000003f __SREG__
C:\DOKUME~1\ArnePe\LOKALE~1\Temp/ccCkaaaa.s:4      *ABS*:0000003e __SP_H__
C:\DOKUME~1\ArnePe\LOKALE~1\Temp/ccCkaaaa.s:5      *ABS*:0000003d __SP_L__
C:\DOKUME~1\ArnePe\LOKALE~1\Temp/ccCkaaaa.s:6      *ABS*:00000000 __tmp_reg__
C:\DOKUME~1\ArnePe\LOKALE~1\Temp/ccCkaaaa.s:7      *ABS*:00000001 __zero_reg__
C:\DOKUME~1\ArnePe\LOKALE~1\Temp/ccCkaaaa.s:23     .bss:00000000 stellwert
C:\DOKUME~1\ArnePe\LOKALE~1\Temp/ccCkaaaa.s:29     .bss:00000004 differenzierer
C:\DOKUME~1\ArnePe\LOKALE~1\Temp/ccCkaaaa.s:35     .bss:00000008 integrator
C:\DOKUME~1\ArnePe\LOKALE~1\Temp/ccCkaaaa.s:41     .bss:0000000c fehler_alt
C:\DOKUME~1\ArnePe\LOKALE~1\Temp/ccCkaaaa.s:47     .bss:00000010 fehler
C:\DOKUME~1\ArnePe\LOKALE~1\Temp/ccCkaaaa.s:53     .bss:00000014 istwert
C:\DOKUME~1\ArnePe\LOKALE~1\Temp/ccCkaaaa.s:59     .bss:00000018 sollwert
C:\DOKUME~1\ArnePe\LOKALE~1\Temp/ccCkaaaa.s:65     .bss:0000001c startzeit
C:\DOKUME~1\ArnePe\LOKALE~1\Temp/ccCkaaaa.s:71     .bss:00000020 zeit
C:\DOKUME~1\ArnePe\LOKALE~1\Temp/ccCkaaaa.s:76     .text:00000000 regelung
C:\DOKUME~1\ArnePe\LOKALE~1\Temp/ccCkaaaa.s:365    .text:000001ba reglerwerte_ausgeben
C:\DOKUME~1\ArnePe\LOKALE~1\Temp/ccCkaaaa.s:486    .text:00000274 encoder_ausgeben
C:\DOKUME~1\ArnePe\LOKALE~1\Temp/ccCkaaaa.s:585    .progmem.data:00000000 __c.0
C:\DOKUME~1\ArnePe\LOKALE~1\Temp/ccCkaaaa.s:589    .progmem.data:00000013 __c.1
C:\DOKUME~1\ArnePe\LOKALE~1\Temp/ccCkaaaa.s:593    .progmem.data:00000033 __c.2
C:\DOKUME~1\ArnePe\LOKALE~1\Temp/ccCkaaaa.s:598    .text:00000334 main
                            *COM*:00000001 count36kHz
                            *COM*:00000004 timebase

UNDEFINED SYMBOLS
__do_copy_data
__do_clear_bss
encoderGet
motor_dir
motor_speed
uart_puts
uart_puti
uart_printtime
__divmodhi4
__stack
uart_init
timer2_init
motor_init
encoder_init
uart_puts_p
Gettime
uart_getc
command_put
command_get
command_prompt
