   1               		.file	"rf12.c"
   2               	__SREG__ = 0x3f
   3               	__SP_H__ = 0x3e
   4               	__SP_L__ = 0x3d
   5               	__tmp_reg__ = 0
   6               	__zero_reg__ = 1
   7               		.global __do_copy_data
   8               		.global __do_clear_bss
  16               	.Ltext0:
  17               	.global	crcUpdate
  19               	crcUpdate:
  20               	.LFB6:
  21               	.LM1:
  22               	/* prologue: frame size=0 */
  23               	/* prologue end (size=0) */
  24               	.LVL0:
  25 0000 9C01      		movw r18,r24
  26               	.LM2:
  27 0002 70E0      		ldi r23,lo8(0)
  28               	.LVL1:
  29 0004 762F      		mov r23,r22
  30 0006 6627      		clr r22
  31               	.LVL2:
  32               	.LM3:
  33 0008 CB01      		movw r24,r22
  34               	.LVL3:
  35 000a 8227      		eor r24,r18
  36 000c 9327      		eor r25,r19
  37 000e 97FD      		sbrc r25,7
  38 0010 00C0      		rjmp .L2
  39               	.LM4:
  40 0012 220F      		lsl r18
  41 0014 331F      		rol r19
  42               	.LVL4:
  43               	.LM5:
  44 0016 660F      		lsl r22
  45 0018 771F      		rol r23
  46               	.LVL5:
  47               	.LM6:
  48 001a C901      		movw r24,r18
  49 001c 8627      		eor r24,r22
  50 001e 9727      		eor r25,r23
  51 0020 97FD      		sbrc r25,7
  52 0022 00C0      		rjmp .L5
  53               	.L29:
  54               	.LM7:
  55 0024 220F      		lsl r18
  56 0026 331F      		rol r19
  57               	.LVL6:
  58               	.LM8:
  59 0028 660F      		lsl r22
  60 002a 771F      		rol r23
  61               	.LVL7:
  62               	.LM9:
  63 002c C901      		movw r24,r18
  64 002e 8627      		eor r24,r22
  65 0030 9727      		eor r25,r23
  66 0032 97FD      		sbrc r25,7
  67 0034 00C0      		rjmp .L8
  68               	.L30:
  69               	.LM10:
  70 0036 220F      		lsl r18
  71 0038 331F      		rol r19
  72               	.LVL8:
  73               	.LM11:
  74 003a 660F      		lsl r22
  75 003c 771F      		rol r23
  76               	.LVL9:
  77               	.LM12:
  78 003e C901      		movw r24,r18
  79 0040 8627      		eor r24,r22
  80 0042 9727      		eor r25,r23
  81 0044 97FD      		sbrc r25,7
  82 0046 00C0      		rjmp .L11
  83               	.L31:
  84               	.LM13:
  85 0048 220F      		lsl r18
  86 004a 331F      		rol r19
  87               	.LVL10:
  88               	.LM14:
  89 004c 660F      		lsl r22
  90 004e 771F      		rol r23
  91               	.LVL11:
  92               	.LM15:
  93 0050 C901      		movw r24,r18
  94 0052 8627      		eor r24,r22
  95 0054 9727      		eor r25,r23
  96 0056 97FD      		sbrc r25,7
  97 0058 00C0      		rjmp .L14
  98               	.L32:
  99               	.LM16:
 100 005a 220F      		lsl r18
 101 005c 331F      		rol r19
 102               	.LVL12:
 103               	.LM17:
 104 005e 660F      		lsl r22
 105 0060 771F      		rol r23
 106               	.LVL13:
 107               	.LM18:
 108 0062 C901      		movw r24,r18
 109 0064 8627      		eor r24,r22
 110 0066 9727      		eor r25,r23
 111 0068 97FD      		sbrc r25,7
 112 006a 00C0      		rjmp .L17
 113               	.L33:
 114               	.LM19:
 115 006c 220F      		lsl r18
 116 006e 331F      		rol r19
 117               	.LVL14:
 118               	.LM20:
 119 0070 660F      		lsl r22
 120 0072 771F      		rol r23
 121               	.LVL15:
 122               	.LM21:
 123 0074 C901      		movw r24,r18
 124 0076 8627      		eor r24,r22
 125 0078 9727      		eor r25,r23
 126 007a 97FD      		sbrc r25,7
 127 007c 00C0      		rjmp .L20
 128               	.L34:
 129               	.LM22:
 130 007e 220F      		lsl r18
 131 0080 331F      		rol r19
 132               	.LVL16:
 133               	.LM23:
 134 0082 660F      		lsl r22
 135 0084 771F      		rol r23
 136 0086 6227      		eor r22,r18
 137 0088 7327      		eor r23,r19
 138 008a 77FD      		sbrc r23,7
 139 008c 00C0      		rjmp .L28
 140               	.L23:
 141               	.LM24:
 142 008e 220F      		lsl r18
 143 0090 331F      		rol r19
 144               	.LVL17:
 145 0092 00C0      		rjmp .L25
 146               	.L2:
 147               	.LM25:
 148 0094 220F      		lsl r18
 149 0096 331F      		rol r19
 150               	.LVL18:
 151 0098 81E2      		ldi r24,lo8(4129)
 152 009a 90E1      		ldi r25,hi8(4129)
 153 009c 2827      		eor r18,r24
 154 009e 3927      		eor r19,r25
 155               	.LM26:
 156 00a0 660F      		lsl r22
 157 00a2 771F      		rol r23
 158               	.LVL19:
 159               	.LM27:
 160 00a4 C901      		movw r24,r18
 161 00a6 8627      		eor r24,r22
 162 00a8 9727      		eor r25,r23
 163 00aa 97FF      		sbrs r25,7
 164 00ac 00C0      		rjmp .L29
 165               	.L5:
 166               	.LM28:
 167 00ae 220F      		lsl r18
 168 00b0 331F      		rol r19
 169               	.LVL20:
 170 00b2 81E2      		ldi r24,lo8(4129)
 171 00b4 90E1      		ldi r25,hi8(4129)
 172 00b6 2827      		eor r18,r24
 173 00b8 3927      		eor r19,r25
 174               	.LM29:
 175 00ba 660F      		lsl r22
 176 00bc 771F      		rol r23
 177               	.LVL21:
 178               	.LM30:
 179 00be C901      		movw r24,r18
 180 00c0 8627      		eor r24,r22
 181 00c2 9727      		eor r25,r23
 182 00c4 97FF      		sbrs r25,7
 183 00c6 00C0      		rjmp .L30
 184               	.L8:
 185               	.LM31:
 186 00c8 220F      		lsl r18
 187 00ca 331F      		rol r19
 188               	.LVL22:
 189 00cc 81E2      		ldi r24,lo8(4129)
 190 00ce 90E1      		ldi r25,hi8(4129)
 191 00d0 2827      		eor r18,r24
 192 00d2 3927      		eor r19,r25
 193               	.LM32:
 194 00d4 660F      		lsl r22
 195 00d6 771F      		rol r23
 196               	.LVL23:
 197               	.LM33:
 198 00d8 C901      		movw r24,r18
 199 00da 8627      		eor r24,r22
 200 00dc 9727      		eor r25,r23
 201 00de 97FF      		sbrs r25,7
 202 00e0 00C0      		rjmp .L31
 203               	.L11:
 204               	.LM34:
 205 00e2 220F      		lsl r18
 206 00e4 331F      		rol r19
 207               	.LVL24:
 208 00e6 81E2      		ldi r24,lo8(4129)
 209 00e8 90E1      		ldi r25,hi8(4129)
 210 00ea 2827      		eor r18,r24
 211 00ec 3927      		eor r19,r25
 212               	.LM35:
 213 00ee 660F      		lsl r22
 214 00f0 771F      		rol r23
 215               	.LVL25:
 216               	.LM36:
 217 00f2 C901      		movw r24,r18
 218 00f4 8627      		eor r24,r22
 219 00f6 9727      		eor r25,r23
 220 00f8 97FF      		sbrs r25,7
 221 00fa 00C0      		rjmp .L32
 222               	.L14:
 223               	.LM37:
 224 00fc 220F      		lsl r18
 225 00fe 331F      		rol r19
 226               	.LVL26:
 227 0100 81E2      		ldi r24,lo8(4129)
 228 0102 90E1      		ldi r25,hi8(4129)
 229 0104 2827      		eor r18,r24
 230 0106 3927      		eor r19,r25
 231               	.LM38:
 232 0108 660F      		lsl r22
 233 010a 771F      		rol r23
 234               	.LVL27:
 235               	.LM39:
 236 010c C901      		movw r24,r18
 237 010e 8627      		eor r24,r22
 238 0110 9727      		eor r25,r23
 239 0112 97FF      		sbrs r25,7
 240 0114 00C0      		rjmp .L33
 241               	.L17:
 242               	.LM40:
 243 0116 220F      		lsl r18
 244 0118 331F      		rol r19
 245               	.LVL28:
 246 011a 81E2      		ldi r24,lo8(4129)
 247 011c 90E1      		ldi r25,hi8(4129)
 248 011e 2827      		eor r18,r24
 249 0120 3927      		eor r19,r25
 250               	.LM41:
 251 0122 660F      		lsl r22
 252 0124 771F      		rol r23
 253               	.LVL29:
 254               	.LM42:
 255 0126 C901      		movw r24,r18
 256 0128 8627      		eor r24,r22
 257 012a 9727      		eor r25,r23
 258 012c 97FF      		sbrs r25,7
 259 012e 00C0      		rjmp .L34
 260               	.L20:
 261               	.LM43:
 262 0130 220F      		lsl r18
 263 0132 331F      		rol r19
 264               	.LVL30:
 265 0134 81E2      		ldi r24,lo8(4129)
 266 0136 90E1      		ldi r25,hi8(4129)
 267 0138 2827      		eor r18,r24
 268 013a 3927      		eor r19,r25
 269               	.LM44:
 270 013c 660F      		lsl r22
 271 013e 771F      		rol r23
 272 0140 6227      		eor r22,r18
 273 0142 7327      		eor r23,r19
 274 0144 77FF      		sbrs r23,7
 275 0146 00C0      		rjmp .L23
 276               	.L28:
 277               	.LM45:
 278 0148 220F      		lsl r18
 279 014a 331F      		rol r19
 280               	.LVL31:
 281 014c 81E2      		ldi r24,lo8(4129)
 282 014e 90E1      		ldi r25,hi8(4129)
 283 0150 2827      		eor r18,r24
 284 0152 3927      		eor r19,r25
 285               	.L25:
 286               	.LM46:
 287 0154 C901      		movw r24,r18
 288               	/* epilogue: frame size=0 */
 289 0156 0895      		ret
 290               	/* epilogue end (size=1) */
 291               	/* function crcUpdate size 172 (171) */
 292               	.LFE6:
 294               	.global	rf12_trans
 296               	rf12_trans:
 297               	.LFB7:
 298               	.LM47:
 299               	/* prologue: frame size=0 */
 300               	/* prologue end (size=0) */
 301               	.LVL32:
 302 0158 9C01      		movw r18,r24
 303               	.LM48:
 304 015a C498      		cbi 56-0x20,4
 305               	.LM49:
 306 015c 892F      		mov r24,r25
 307 015e 9927      		clr r25
 308               	.LVL33:
 309 0160 8FB9      		out 47-0x20,r24
 310               	.L36:
 311               	.LM50:
 312 0162 779B      		sbis 46-0x20,7
 313 0164 00C0      		rjmp .L36
 314               	.LM51:
 315 0166 8FB1      		in r24,47-0x20
 316               	.LM52:
 317 0168 2FB9      		out 47-0x20,r18
 318               	.L38:
 319               	.LM53:
 320 016a 779B      		sbis 46-0x20,7
 321 016c 00C0      		rjmp .L38
 322               	.LM54:
 323 016e 2FB1      		in r18,47-0x20
 324               	.LVL34:
 325               	.LM55:
 326 0170 90E0      		ldi r25,lo8(0)
 327 0172 982F      		mov r25,r24
 328 0174 8827      		clr r24
 329               	.LVL35:
 330               	.LM56:
 331 0176 C49A      		sbi 56-0x20,4
 332               	.LM57:
 333 0178 820F      		add r24,r18
 334 017a 911D      		adc r25,__zero_reg__
 335               	.LVL36:
 336               	/* epilogue: frame size=0 */
 337 017c 0895      		ret
 338               	/* epilogue end (size=1) */
 339               	/* function rf12_trans size 19 (18) */
 340               	.LFE7:
 342               	.global	rf12_ready
 344               	rf12_ready:
 345               	.LFB13:
 346               	.LM58:
 347               	/* prologue: frame size=0 */
 348               	/* prologue end (size=0) */
 349               	.LM59:
 350 017e C498      		cbi 56-0x20,4
 351               	.LM60:
 352               	/* #APP */
 353 0180 0000      		nop
 354               	.LM61:
 355 0182 0000      		nop
 356               	.LM62:
 357 0184 0000      		nop
 358               	/* #NOAPP */
 359 0186 80E0      		ldi r24,lo8(0)
 360 0188 90E0      		ldi r25,hi8(0)
 361 018a A0E0      		ldi r26,hlo8(0)
 362 018c B0E0      		ldi r27,hhi8(0)
 363               	.LVL37:
 364 018e 00C0      		rjmp .L46
 365               	.L47:
 366               	.LM63:
 367 0190 813A      		cpi r24,lo8(100001)
 368 0192 26E8      		ldi r18,hi8(100001)
 369 0194 9207      		cpc r25,r18
 370 0196 21E0      		ldi r18,hlo8(100001)
 371 0198 A207      		cpc r26,r18
 372 019a 20E0      		ldi r18,hhi8(100001)
 373 019c B207      		cpc r27,r18
 374 019e 01F0      		breq .L48
 375 01a0 0196      		adiw r24,1
 376 01a2 A11D      		adc r26,__zero_reg__
 377 01a4 B11D      		adc r27,__zero_reg__
 378               	.L46:
 379               	.LM64:
 380 01a6 B69B      		sbis 54-0x20,6
 381 01a8 00C0      		rjmp .L47
 382               	.L48:
 383               	.LM65:
 384 01aa C49A      		sbi 56-0x20,4
 385               	/* epilogue: frame size=0 */
 386 01ac 0895      		ret
 387               	/* epilogue end (size=1) */
 388               	/* function rf12_ready size 27 (26) */
 389               	.LFE13:
 391               	.global	rf12_setpower
 393               	rf12_setpower:
 394               	.LFB12:
 395               	.LM66:
 396               	/* prologue: frame size=0 */
 397               	/* prologue end (size=0) */
 398               	.LVL38:
 399               	.LM67:
 400 01ae 282F      		mov r18,r24
 401 01b0 30E0      		ldi r19,lo8(0)
 402 01b2 2770      		andi r18,lo8(7)
 403 01b4 3070      		andi r19,hi8(7)
 404 01b6 3869      		ori r19,hi8(-26624)
 405 01b8 70E0      		ldi r23,lo8(0)
 406               	.LVL39:
 407 01ba 6F70      		andi r22,lo8(15)
 408 01bc 7070      		andi r23,hi8(15)
 409               	.LVL40:
 410 01be 6295      		swap r22
 411 01c0 7295      		swap r23
 412 01c2 707F      		andi r23,0xf0
 413 01c4 7627      		eor r23,r22
 414 01c6 607F      		andi r22,0xf0
 415 01c8 7627      		eor r23,r22
 416 01ca 262B      		or r18,r22
 417 01cc 372B      		or r19,r23
 418               	.LBB8:
 419               	.LBB9:
 420               	.LM68:
 421 01ce C498      		cbi 56-0x20,4
 422               	.LM69:
 423 01d0 832F      		mov r24,r19
 424 01d2 9927      		clr r25
 425               	.LVL41:
 426 01d4 8FB9      		out 47-0x20,r24
 427               	.L52:
 428               	.LM70:
 429 01d6 779B      		sbis 46-0x20,7
 430 01d8 00C0      		rjmp .L52
 431               	.LM71:
 432 01da 8FB1      		in r24,47-0x20
 433               	.LM72:
 434 01dc 2FB9      		out 47-0x20,r18
 435               	.L54:
 436               	.LM73:
 437 01de 779B      		sbis 46-0x20,7
 438 01e0 00C0      		rjmp .L54
 439               	.LM74:
 440 01e2 8FB1      		in r24,47-0x20
 441               	.LM75:
 442 01e4 C49A      		sbi 56-0x20,4
 443               	.LBE9:
 444               	.LBE8:
 445               	/* epilogue: frame size=0 */
 446 01e6 0895      		ret
 447               	/* epilogue end (size=1) */
 448               	/* function rf12_setpower size 29 (28) */
 449               	.LFE12:
 451               	.global	rf12_setbaud
 453               	rf12_setbaud:
 454               	.LFB11:
 455               	.LM76:
 456               	/* prologue: frame size=0 */
 457               	/* prologue end (size=0) */
 458               	.LVL42:
 459               	.LM77:
 460 01e8 22E0      		ldi r18,hi8(663)
 461 01ea 8739      		cpi r24,lo8(663)
 462 01ec 9207      		cpc r25,r18
 463 01ee 00F0      		brlo .L74
 464               	.LM78:
 465 01f0 25E1      		ldi r18,hi8(5400)
 466 01f2 8831      		cpi r24,lo8(5400)
 467 01f4 9207      		cpc r25,r18
 468 01f6 00F4      		brsh .L64
 469               	.LM79:
 470 01f8 9C01      		movw r18,r24
 471 01fa 40E0      		ldi r20,lo8(0)
 472 01fc 50E0      		ldi r21,hi8(0)
 473               	.LVL43:
 474 01fe 60E6      		ldi r22,lo8(43104)
 475 0200 78EA      		ldi r23,hi8(43104)
 476 0202 80E0      		ldi r24,hlo8(43104)
 477 0204 90E0      		ldi r25,hhi8(43104)
 478 0206 0E94 0000 		call __divmodsi4
 479 020a 2150      		subi r18,lo8(-(-1))
 480 020c 3040      		sbci r19,hi8(-(-1))
 481               	.LVL44:
 482 020e 2068      		ori r18,lo8(-14720)
 483 0210 366C      		ori r19,hi8(-14720)
 484               	.LBB14:
 485               	.LBB15:
 486               	.LM80:
 487 0212 C498      		cbi 56-0x20,4
 488               	.LM81:
 489 0214 832F      		mov r24,r19
 490 0216 9927      		clr r25
 491               	.LVL45:
 492 0218 8FB9      		out 47-0x20,r24
 493               	.L66:
 494               	.LM82:
 495 021a 779B      		sbis 46-0x20,7
 496 021c 00C0      		rjmp .L66
 497               	.LM83:
 498 021e 8FB1      		in r24,47-0x20
 499               	.LM84:
 500 0220 2FB9      		out 47-0x20,r18
 501               	.L68:
 502               	.LM85:
 503 0222 779B      		sbis 46-0x20,7
 504 0224 00C0      		rjmp .L68
 505               	.LM86:
 506 0226 8FB1      		in r24,47-0x20
 507               	.LM87:
 508 0228 C49A      		sbi 56-0x20,4
 509 022a 0895      		ret
 510               	.LVL46:
 511               	.L64:
 512               	.LBE15:
 513               	.LBE14:
 514               	.LM88:
 515 022c 9C01      		movw r18,r24
 516 022e 40E0      		ldi r20,lo8(0)
 517 0230 50E0      		ldi r21,hi8(0)
 518               	.LVL47:
 519 0232 6CEF      		ldi r22,lo8(344828)
 520 0234 72E4      		ldi r23,hi8(344828)
 521 0236 85E0      		ldi r24,hlo8(344828)
 522 0238 90E0      		ldi r25,hhi8(344828)
 523 023a 0E94 0000 		call __udivmodsi4
 524 023e 2150      		subi r18,lo8(-(-1))
 525 0240 3040      		sbci r19,hi8(-(-1))
 526               	.LVL48:
 527 0242 366C      		ori r19,hi8(-14848)
 528               	.LBB16:
 529               	.LBB17:
 530               	.LM89:
 531 0244 C498      		cbi 56-0x20,4
 532               	.LM90:
 533 0246 832F      		mov r24,r19
 534 0248 9927      		clr r25
 535               	.LVL49:
 536 024a 8FB9      		out 47-0x20,r24
 537               	.L70:
 538               	.LM91:
 539 024c 779B      		sbis 46-0x20,7
 540 024e 00C0      		rjmp .L70
 541               	.LM92:
 542 0250 8FB1      		in r24,47-0x20
 543               	.LM93:
 544 0252 2FB9      		out 47-0x20,r18
 545               	.L72:
 546               	.LM94:
 547 0254 779B      		sbis 46-0x20,7
 548 0256 00C0      		rjmp .L72
 549               	.LM95:
 550 0258 8FB1      		in r24,47-0x20
 551               	.LM96:
 552 025a C49A      		sbi 56-0x20,4
 553               	.LVL50:
 554               	.L74:
 555 025c 0895      		ret
 556               	.LBE17:
 557               	.LBE16:
 558               	/* epilogue: frame size=0 */
 559               	/* epilogue: noreturn */
 560               	/* epilogue end (size=0) */
 561               	/* function rf12_setbaud size 59 (59) */
 562               	.LFE11:
 564               	.global	rf12_setfreq
 566               	rf12_setfreq:
 567               	.LFB10:
 568               	.LM97:
 569               	/* prologue: frame size=0 */
 570               	/* prologue end (size=0) */
 571               	.LVL51:
 572               	.LM98:
 573 025e 8036      		cpi r24,96
 574 0260 9105      		cpc r25,__zero_reg__
 575 0262 00F4      		brsh .L84
 576               	.LM99:
 577 0264 20E6      		ldi r18,lo8(-24480)
 578 0266 30EA      		ldi r19,hi8(-24480)
 579 0268 80EA      		ldi r24,lo8(-96)
 580               	.LVL52:
 581               	.L86:
 582               	.LBB20:
 583               	.LBB21:
 584               	.LM100:
 585 026a C498      		cbi 56-0x20,4
 586               	.LM101:
 587 026c 8FB9      		out 47-0x20,r24
 588               	.L88:
 589               	.LM102:
 590 026e 779B      		sbis 46-0x20,7
 591 0270 00C0      		rjmp .L88
 592               	.LM103:
 593 0272 8FB1      		in r24,47-0x20
 594               	.LM104:
 595 0274 2FB9      		out 47-0x20,r18
 596               	.L90:
 597               	.LM105:
 598 0276 779B      		sbis 46-0x20,7
 599 0278 00C0      		rjmp .L90
 600 027a 00C0      		rjmp .L99
 601               	.LVL53:
 602               	.L84:
 603               	.LBE21:
 604               	.LBE20:
 605               	.LM106:
 606 027c 2FE0      		ldi r18,hi8(3904)
 607 027e 8034      		cpi r24,lo8(3904)
 608 0280 9207      		cpc r25,r18
 609 0282 00F4      		brsh .L98
 610 0284 9C01      		movw r18,r24
 611 0286 306A      		ori r19,hi8(-24576)
 612 0288 832F      		mov r24,r19
 613 028a 9927      		clr r25
 614               	.LVL54:
 615 028c 00C0      		rjmp .L86
 616               	.LVL55:
 617               	.L98:
 618 028e 8FE3      		ldi r24,lo8(3903)
 619 0290 9FE0      		ldi r25,hi8(3903)
 620               	.LVL56:
 621 0292 9C01      		movw r18,r24
 622 0294 306A      		ori r19,hi8(-24576)
 623 0296 832F      		mov r24,r19
 624 0298 9927      		clr r25
 625               	.LVL57:
 626 029a 00C0      		rjmp .L86
 627               	.L99:
 628               	.LBB23:
 629               	.LBB22:
 630               	.LM107:
 631 029c 8FB1      		in r24,47-0x20
 632               	.LM108:
 633 029e C49A      		sbi 56-0x20,4
 634               	.LBE22:
 635               	.LBE23:
 636               	/* epilogue: frame size=0 */
 637 02a0 0895      		ret
 638               	/* epilogue end (size=1) */
 639               	/* function rf12_setfreq size 34 (33) */
 640               	.LFE10:
 642               	.global	rf12_setbandwidth
 644               	rf12_setbandwidth:
 645               	.LFB9:
 646               	.LM109:
 647               	/* prologue: frame size=0 */
 648               	/* prologue end (size=0) */
 649               	.LVL58:
 650               	.LM110:
 651 02a2 282F      		mov r18,r24
 652 02a4 30E0      		ldi r19,lo8(0)
 653 02a6 2770      		andi r18,lo8(7)
 654 02a8 3070      		andi r19,hi8(7)
 655 02aa 220F      		lsl r18
 656 02ac 331F      		rol r19
 657 02ae 2295      		swap r18
 658 02b0 3295      		swap r19
 659 02b2 307F      		andi r19,0xf0
 660 02b4 3227      		eor r19,r18
 661 02b6 207F      		andi r18,0xf0
 662 02b8 3227      		eor r19,r18
 663 02ba 50E0      		ldi r21,lo8(0)
 664               	.LVL59:
 665 02bc 4770      		andi r20,lo8(7)
 666 02be 5070      		andi r21,hi8(7)
 667               	.LVL60:
 668 02c0 242B      		or r18,r20
 669 02c2 352B      		or r19,r21
 670 02c4 3469      		ori r19,hi8(-27648)
 671 02c6 70E0      		ldi r23,lo8(0)
 672               	.LVL61:
 673 02c8 6370      		andi r22,lo8(3)
 674 02ca 7070      		andi r23,hi8(3)
 675               	.LVL62:
 676 02cc 660F      		lsl r22
 677 02ce 771F      		rol r23
 678 02d0 660F      		lsl r22
 679 02d2 771F      		rol r23
 680 02d4 660F      		lsl r22
 681 02d6 771F      		rol r23
 682 02d8 262B      		or r18,r22
 683 02da 372B      		or r19,r23
 684               	.LBB26:
 685               	.LBB27:
 686               	.LM111:
 687 02dc C498      		cbi 56-0x20,4
 688               	.LM112:
 689 02de 832F      		mov r24,r19
 690 02e0 9927      		clr r25
 691               	.LVL63:
 692 02e2 8FB9      		out 47-0x20,r24
 693               	.L101:
 694               	.LM113:
 695 02e4 779B      		sbis 46-0x20,7
 696 02e6 00C0      		rjmp .L101
 697               	.LM114:
 698 02e8 8FB1      		in r24,47-0x20
 699               	.LM115:
 700 02ea 2FB9      		out 47-0x20,r18
 701               	.L103:
 702               	.LM116:
 703 02ec 779B      		sbis 46-0x20,7
 704 02ee 00C0      		rjmp .L103
 705               	.LM117:
 706 02f0 8FB1      		in r24,47-0x20
 707               	.LM118:
 708 02f2 C49A      		sbi 56-0x20,4
 709               	.LBE27:
 710               	.LBE26:
 711               	/* epilogue: frame size=0 */
 712 02f4 0895      		ret
 713               	/* epilogue end (size=1) */
 714               	/* function rf12_setbandwidth size 42 (41) */
 715               	.LFE9:
 717               	.global	rf12_init
 719               	rf12_init:
 720               	.LFB8:
 721               	.LM119:
 722               	/* prologue: frame size=0 */
 723               	/* prologue end (size=0) */
 724               	.LM120:
 725 02f6 87B3      		in r24,55-0x20
 726 02f8 806B      		ori r24,lo8(-80)
 727 02fa 87BB      		out 55-0x20,r24
 728               	.LM121:
 729 02fc BE98      		cbi 55-0x20,6
 730               	.LM122:
 731 02fe C49A      		sbi 56-0x20,4
 732               	.LM123:
 733 0300 83E5      		ldi r24,lo8(83)
 734 0302 8DB9      		out 45-0x20,r24
 735               	.LM124:
 736 0304 8EB1      		in r24,46-0x20
 737 0306 8EB9      		out 46-0x20,r24
 738               	.LBB50:
 739               	.LBB51:
 740               	.LBB52:
 741               	.LBB53:
 742               	.LM125:
 743 0308 8FEF      		ldi r24,lo8(27647)
 744 030a 9BE6      		ldi r25,hi8(27647)
 745 030c FC01      		movw r30,r24
 746               	.LVL64:
 747               	/* #APP */
 748 030e 3197      		1: sbiw r30,1
 749 0310 01F4      		brne 1b
 750               	/* #NOAPP */
 751 0312 FC01      		movw r30,r24
 752               	.LVL65:
 753               	/* #APP */
 754 0314 3197      		1: sbiw r30,1
 755 0316 01F4      		brne 1b
 756               	/* #NOAPP */
 757 0318 FC01      		movw r30,r24
 758               	.LVL66:
 759               	/* #APP */
 760 031a 3197      		1: sbiw r30,1
 761 031c 01F4      		brne 1b
 762               	/* #NOAPP */
 763 031e FC01      		movw r30,r24
 764               	.LVL67:
 765               	/* #APP */
 766 0320 3197      		1: sbiw r30,1
 767 0322 01F4      		brne 1b
 768               	/* #NOAPP */
 769 0324 FC01      		movw r30,r24
 770               	.LVL68:
 771               	/* #APP */
 772 0326 3197      		1: sbiw r30,1
 773 0328 01F4      		brne 1b
 774               	/* #NOAPP */
 775 032a FC01      		movw r30,r24
 776               	.LVL69:
 777               	/* #APP */
 778 032c 3197      		1: sbiw r30,1
 779 032e 01F4      		brne 1b
 780               	/* #NOAPP */
 781 0330 FC01      		movw r30,r24
 782               	.LVL70:
 783               	/* #APP */
 784 0332 3197      		1: sbiw r30,1
 785 0334 01F4      		brne 1b
 786               	/* #NOAPP */
 787 0336 FC01      		movw r30,r24
 788               	.LVL71:
 789               	/* #APP */
 790 0338 3197      		1: sbiw r30,1
 791 033a 01F4      		brne 1b
 792               	/* #NOAPP */
 793 033c FC01      		movw r30,r24
 794               	.LVL72:
 795               	/* #APP */
 796 033e 3197      		1: sbiw r30,1
 797 0340 01F4      		brne 1b
 798 0342 0197      		1: sbiw r24,1
 799 0344 01F4      		brne 1b
 800               	.LVL73:
 801               	/* #NOAPP */
 802               	.LBE53:
 803               	.LBE52:
 804               	.LBE51:
 805               	.LBE50:
 806               	.LBB54:
 807               	.LBB55:
 808               	.LM126:
 809 0346 C498      		cbi 56-0x20,4
 810               	.LM127:
 811 0348 80EC      		ldi r24,lo8(-64)
 812               	.LVL74:
 813 034a 8FB9      		out 47-0x20,r24
 814               	.L111:
 815               	.LM128:
 816 034c 779B      		sbis 46-0x20,7
 817 034e 00C0      		rjmp .L111
 818               	.LM129:
 819 0350 8FB1      		in r24,47-0x20
 820               	.LM130:
 821 0352 80EE      		ldi r24,lo8(-32)
 822 0354 8FB9      		out 47-0x20,r24
 823               	.L113:
 824               	.LM131:
 825 0356 779B      		sbis 46-0x20,7
 826 0358 00C0      		rjmp .L113
 827               	.LM132:
 828 035a 8FB1      		in r24,47-0x20
 829               	.LM133:
 830 035c C49A      		sbi 56-0x20,4
 831               	.LBE55:
 832               	.LBE54:
 833               	.LBB56:
 834               	.LBB57:
 835               	.LM134:
 836 035e C498      		cbi 56-0x20,4
 837               	.LM135:
 838 0360 80E8      		ldi r24,lo8(-128)
 839 0362 8FB9      		out 47-0x20,r24
 840               	.L115:
 841               	.LM136:
 842 0364 779B      		sbis 46-0x20,7
 843 0366 00C0      		rjmp .L115
 844               	.LM137:
 845 0368 8FB1      		in r24,47-0x20
 846               	.LM138:
 847 036a 87ED      		ldi r24,lo8(-41)
 848 036c 8FB9      		out 47-0x20,r24
 849               	.L117:
 850               	.LM139:
 851 036e 779B      		sbis 46-0x20,7
 852 0370 00C0      		rjmp .L117
 853               	.LM140:
 854 0372 8FB1      		in r24,47-0x20
 855               	.LM141:
 856 0374 C49A      		sbi 56-0x20,4
 857               	.LBE57:
 858               	.LBE56:
 859               	.LBB58:
 860               	.LBB59:
 861               	.LM142:
 862 0376 C498      		cbi 56-0x20,4
 863               	.LM143:
 864 0378 82EC      		ldi r24,lo8(-62)
 865 037a 8FB9      		out 47-0x20,r24
 866               	.L119:
 867               	.LM144:
 868 037c 779B      		sbis 46-0x20,7
 869 037e 00C0      		rjmp .L119
 870               	.LM145:
 871 0380 8FB1      		in r24,47-0x20
 872               	.LM146:
 873 0382 8BEA      		ldi r24,lo8(-85)
 874 0384 8FB9      		out 47-0x20,r24
 875               	.L121:
 876               	.LM147:
 877 0386 779B      		sbis 46-0x20,7
 878 0388 00C0      		rjmp .L121
 879               	.LM148:
 880 038a 8FB1      		in r24,47-0x20
 881               	.LM149:
 882 038c C49A      		sbi 56-0x20,4
 883               	.LBE59:
 884               	.LBE58:
 885               	.LBB60:
 886               	.LBB61:
 887               	.LM150:
 888 038e C498      		cbi 56-0x20,4
 889               	.LM151:
 890 0390 8AEC      		ldi r24,lo8(-54)
 891 0392 8FB9      		out 47-0x20,r24
 892               	.L123:
 893               	.LM152:
 894 0394 779B      		sbis 46-0x20,7
 895 0396 00C0      		rjmp .L123
 896               	.LM153:
 897 0398 8FB1      		in r24,47-0x20
 898               	.LM154:
 899 039a 81E8      		ldi r24,lo8(-127)
 900 039c 8FB9      		out 47-0x20,r24
 901               	.L125:
 902               	.LM155:
 903 039e 779B      		sbis 46-0x20,7
 904 03a0 00C0      		rjmp .L125
 905               	.LM156:
 906 03a2 8FB1      		in r24,47-0x20
 907               	.LM157:
 908 03a4 C49A      		sbi 56-0x20,4
 909               	.LBE61:
 910               	.LBE60:
 911               	.LBB62:
 912               	.LBB63:
 913               	.LM158:
 914 03a6 C498      		cbi 56-0x20,4
 915               	.LM159:
 916 03a8 80EE      		ldi r24,lo8(-32)
 917 03aa 8FB9      		out 47-0x20,r24
 918               	.L127:
 919               	.LM160:
 920 03ac 779B      		sbis 46-0x20,7
 921 03ae 00C0      		rjmp .L127
 922               	.LM161:
 923 03b0 8FB1      		in r24,47-0x20
 924               	.LM162:
 925 03b2 1FB8      		out 47-0x20,__zero_reg__
 926               	.L129:
 927               	.LM163:
 928 03b4 779B      		sbis 46-0x20,7
 929 03b6 00C0      		rjmp .L129
 930               	.LM164:
 931 03b8 8FB1      		in r24,47-0x20
 932               	.LM165:
 933 03ba C49A      		sbi 56-0x20,4
 934               	.LBE63:
 935               	.LBE62:
 936               	.LBB64:
 937               	.LBB65:
 938               	.LM166:
 939 03bc C498      		cbi 56-0x20,4
 940               	.LM167:
 941 03be 88EC      		ldi r24,lo8(-56)
 942 03c0 8FB9      		out 47-0x20,r24
 943               	.L131:
 944               	.LM168:
 945 03c2 779B      		sbis 46-0x20,7
 946 03c4 00C0      		rjmp .L131
 947               	.LM169:
 948 03c6 8FB1      		in r24,47-0x20
 949               	.LM170:
 950 03c8 1FB8      		out 47-0x20,__zero_reg__
 951               	.L133:
 952               	.LM171:
 953 03ca 779B      		sbis 46-0x20,7
 954 03cc 00C0      		rjmp .L133
 955               	.LM172:
 956 03ce 8FB1      		in r24,47-0x20
 957               	.LM173:
 958 03d0 C49A      		sbi 56-0x20,4
 959               	.LBE65:
 960               	.LBE64:
 961               	.LBB66:
 962               	.LBB67:
 963               	.LM174:
 964 03d2 C498      		cbi 56-0x20,4
 965               	.LM175:
 966 03d4 84EC      		ldi r24,lo8(-60)
 967 03d6 8FB9      		out 47-0x20,r24
 968               	.L135:
 969               	.LM176:
 970 03d8 779B      		sbis 46-0x20,7
 971 03da 00C0      		rjmp .L135
 972               	.LM177:
 973 03dc 8FB1      		in r24,47-0x20
 974               	.LM178:
 975 03de 87EF      		ldi r24,lo8(-9)
 976 03e0 8FB9      		out 47-0x20,r24
 977               	.L137:
 978               	.LM179:
 979 03e2 779B      		sbis 46-0x20,7
 980 03e4 00C0      		rjmp .L137
 981               	.LM180:
 982 03e6 8FB1      		in r24,47-0x20
 983               	.LM181:
 984 03e8 C49A      		sbi 56-0x20,4
 985               	.LBE67:
 986               	.LBE66:
 987               	.LBB68:
 988               	.LBB69:
 989               	.LM182:
 990 03ea C498      		cbi 56-0x20,4
 991               	.LM183:
 992 03ec 1FB8      		out 47-0x20,__zero_reg__
 993               	.L139:
 994               	.LM184:
 995 03ee 779B      		sbis 46-0x20,7
 996 03f0 00C0      		rjmp .L139
 997               	.LM185:
 998 03f2 8FB1      		in r24,47-0x20
 999               	.LM186:
 1000 03f4 1FB8      		out 47-0x20,__zero_reg__
 1001               	.L141:
 1002               	.LM187:
 1003 03f6 779B      		sbis 46-0x20,7
 1004 03f8 00C0      		rjmp .L141
 1005               	.LM188:
 1006 03fa 8FB1      		in r24,47-0x20
 1007               	.LM189:
 1008 03fc C49A      		sbi 56-0x20,4
 1009               	.LBE69:
 1010               	.LBE68:
 1011               	/* epilogue: frame size=0 */
 1012 03fe 0895      		ret
 1013               	/* epilogue end (size=1) */
 1014               	/* function rf12_init size 153 (152) */
 1015               	.LFE8:
 1017               	.global	rf12_rxdata
 1019               	rf12_rxdata:
 1020               	.LFB15:
 1021               	.LM190:
 1022               	/* prologue: frame size=0 */
 1023 0400 EF92      		push r14
 1024 0402 FF92      		push r15
 1025 0404 1F93      		push r17
 1026 0406 CF93      		push r28
 1027 0408 DF93      		push r29
 1028               	/* prologue end (size=5) */
 1029               	.LVL75:
 1030 040a 7C01      		movw r14,r24
 1031               	.LBB98:
 1032               	.LBB99:
 1033               	.LM191:
 1034 040c C498      		cbi 56-0x20,4
 1035               	.LM192:
 1036 040e 82E8      		ldi r24,lo8(-126)
 1037               	.LVL76:
 1038 0410 8FB9      		out 47-0x20,r24
 1039               	.L177:
 1040               	.LM193:
 1041 0412 779B      		sbis 46-0x20,7
 1042 0414 00C0      		rjmp .L177
 1043               	.LM194:
 1044 0416 8FB1      		in r24,47-0x20
 1045               	.LM195:
 1046 0418 88EC      		ldi r24,lo8(-56)
 1047 041a 8FB9      		out 47-0x20,r24
 1048               	.L179:
 1049               	.LM196:
 1050 041c 779B      		sbis 46-0x20,7
 1051 041e 00C0      		rjmp .L179
 1052               	.LM197:
 1053 0420 8FB1      		in r24,47-0x20
 1054               	.LM198:
 1055 0422 C49A      		sbi 56-0x20,4
 1056               	.LBE99:
 1057               	.LBE98:
 1058               	.LBB100:
 1059               	.LBB101:
 1060               	.LM199:
 1061 0424 C498      		cbi 56-0x20,4
 1062               	.LM200:
 1063 0426 8AEC      		ldi r24,lo8(-54)
 1064 0428 8FB9      		out 47-0x20,r24
 1065               	.L181:
 1066               	.LM201:
 1067 042a 779B      		sbis 46-0x20,7
 1068 042c 00C0      		rjmp .L181
 1069               	.LM202:
 1070 042e 8FB1      		in r24,47-0x20
 1071               	.LM203:
 1072 0430 81E8      		ldi r24,lo8(-127)
 1073 0432 8FB9      		out 47-0x20,r24
 1074               	.L183:
 1075               	.LM204:
 1076 0434 779B      		sbis 46-0x20,7
 1077 0436 00C0      		rjmp .L183
 1078               	.LM205:
 1079 0438 8FB1      		in r24,47-0x20
 1080               	.LM206:
 1081 043a C49A      		sbi 56-0x20,4
 1082               	.LBE101:
 1083               	.LBE100:
 1084               	.LBB102:
 1085               	.LBB103:
 1086               	.LM207:
 1087 043c C498      		cbi 56-0x20,4
 1088               	.LM208:
 1089 043e 8AEC      		ldi r24,lo8(-54)
 1090 0440 8FB9      		out 47-0x20,r24
 1091               	.L185:
 1092               	.LM209:
 1093 0442 779B      		sbis 46-0x20,7
 1094 0444 00C0      		rjmp .L185
 1095               	.LM210:
 1096 0446 8FB1      		in r24,47-0x20
 1097               	.LM211:
 1098 0448 83E8      		ldi r24,lo8(-125)
 1099 044a 8FB9      		out 47-0x20,r24
 1100               	.L187:
 1101               	.LM212:
 1102 044c 779B      		sbis 46-0x20,7
 1103 044e 00C0      		rjmp .L187
 1104               	.LM213:
 1105 0450 8FB1      		in r24,47-0x20
 1106               	.LM214:
 1107 0452 C49A      		sbi 56-0x20,4
 1108               	.LBE103:
 1109               	.LBE102:
 1110               	.LBB104:
 1111               	.LBB105:
 1112               	.LM215:
 1113 0454 C498      		cbi 56-0x20,4
 1114               	.LM216:
 1115               	/* #APP */
 1116 0456 0000      		nop
 1117               	.LM217:
 1118 0458 0000      		nop
 1119               	.LM218:
 1120 045a 0000      		nop
 1121               	/* #NOAPP */
 1122 045c 80E0      		ldi r24,lo8(0)
 1123 045e 90E0      		ldi r25,hi8(0)
 1124 0460 A0E0      		ldi r26,hlo8(0)
 1125 0462 B0E0      		ldi r27,hhi8(0)
 1126               	.LVL77:
 1127 0464 00C0      		rjmp .L189
 1128               	.L190:
 1129               	.LM219:
 1130 0466 813A      		cpi r24,lo8(100001)
 1131 0468 26E8      		ldi r18,hi8(100001)
 1132 046a 9207      		cpc r25,r18
 1133 046c 21E0      		ldi r18,hlo8(100001)
 1134 046e A207      		cpc r26,r18
 1135 0470 20E0      		ldi r18,hhi8(100001)
 1136 0472 B207      		cpc r27,r18
 1137 0474 01F0      		breq .L191
 1138 0476 0196      		adiw r24,1
 1139 0478 A11D      		adc r26,__zero_reg__
 1140 047a B11D      		adc r27,__zero_reg__
 1141               	.L189:
 1142               	.LM220:
 1143 047c B69B      		sbis 54-0x20,6
 1144 047e 00C0      		rjmp .L190
 1145               	.L191:
 1146               	.LM221:
 1147 0480 C49A      		sbi 56-0x20,4
 1148               	.LBE105:
 1149               	.LBE104:
 1150               	.LBB106:
 1151               	.LBB107:
 1152               	.LM222:
 1153 0482 C498      		cbi 56-0x20,4
 1154               	.LM223:
 1155 0484 80EB      		ldi r24,lo8(-80)
 1156               	.LVL78:
 1157 0486 8FB9      		out 47-0x20,r24
 1158               	.L193:
 1159               	.LM224:
 1160 0488 779B      		sbis 46-0x20,7
 1161 048a 00C0      		rjmp .L193
 1162               	.LM225:
 1163 048c 8FB1      		in r24,47-0x20
 1164               	.LM226:
 1165 048e 1FB8      		out 47-0x20,__zero_reg__
 1166               	.L195:
 1167               	.LM227:
 1168 0490 779B      		sbis 46-0x20,7
 1169 0492 00C0      		rjmp .L195
 1170               	.LM228:
 1171 0494 8FB1      		in r24,47-0x20
 1172               	.LM229:
 1173 0496 C49A      		sbi 56-0x20,4
 1174               	.LBE107:
 1175               	.LBE106:
 1176               	.LM230:
 1177 0498 182F      		mov r17,r24
 1178               	.LVL79:
 1179 049a 893C      		cpi r24,lo8(-55)
 1180 049c 00F0      		brlo .L197
 1181               	.LVL80:
 1182 049e 18EC      		ldi r17,lo8(-56)
 1183               	.LVL81:
 1184               	.L197:
 1185               	.LBB108:
 1186               	.LBB109:
 1187               	.LM231:
 1188 04a0 C12F      		mov r28,r17
 1189 04a2 D0E0      		ldi r29,lo8(0)
 1190               	.LM232:
 1191 04a4 9C2F      		mov r25,r28
 1192 04a6 8827      		clr r24
 1193               	.LVL82:
 1194 04a8 17FD      		sbrc r17,7
 1195 04aa 00C0      		rjmp .L313
 1196               	.LVL83:
 1197 04ac 20E0      		ldi r18,lo8(0)
 1198 04ae 30E0      		ldi r19,hi8(0)
 1199               	.LVL84:
 1200               	.LM233:
 1201 04b0 AC01      		movw r20,r24
 1202 04b2 440F      		lsl r20
 1203 04b4 551F      		rol r21
 1204               	.LVL85:
 1205               	.LM234:
 1206 04b6 C901      		movw r24,r18
 1207 04b8 8427      		eor r24,r20
 1208 04ba 9527      		eor r25,r21
 1209 04bc 97FD      		sbrc r25,7
 1210 04be 00C0      		rjmp .L201
 1211               	.L316:
 1212               	.LM235:
 1213 04c0 220F      		lsl r18
 1214 04c2 331F      		rol r19
 1215               	.LVL86:
 1216               	.LM236:
 1217 04c4 440F      		lsl r20
 1218 04c6 551F      		rol r21
 1219               	.LVL87:
 1220               	.LM237:
 1221 04c8 C901      		movw r24,r18
 1222 04ca 8427      		eor r24,r20
 1223 04cc 9527      		eor r25,r21
 1224 04ce 97FD      		sbrc r25,7
 1225 04d0 00C0      		rjmp .L204
 1226               	.L317:
 1227               	.LM238:
 1228 04d2 220F      		lsl r18
 1229 04d4 331F      		rol r19
 1230               	.LVL88:
 1231               	.LM239:
 1232 04d6 440F      		lsl r20
 1233 04d8 551F      		rol r21
 1234               	.LVL89:
 1235               	.LM240:
 1236 04da C901      		movw r24,r18
 1237 04dc 8427      		eor r24,r20
 1238 04de 9527      		eor r25,r21
 1239 04e0 97FD      		sbrc r25,7
 1240 04e2 00C0      		rjmp .L207
 1241               	.L318:
 1242               	.LM241:
 1243 04e4 220F      		lsl r18
 1244 04e6 331F      		rol r19
 1245               	.LVL90:
 1246               	.LM242:
 1247 04e8 440F      		lsl r20
 1248 04ea 551F      		rol r21
 1249               	.LVL91:
 1250               	.LM243:
 1251 04ec C901      		movw r24,r18
 1252 04ee 8427      		eor r24,r20
 1253 04f0 9527      		eor r25,r21
 1254 04f2 97FD      		sbrc r25,7
 1255 04f4 00C0      		rjmp .L210
 1256               	.L319:
 1257               	.LM244:
 1258 04f6 220F      		lsl r18
 1259 04f8 331F      		rol r19
 1260               	.LVL92:
 1261               	.LM245:
 1262 04fa BA01      		movw r22,r20
 1263 04fc 660F      		lsl r22
 1264 04fe 771F      		rol r23
 1265               	.LVL93:
 1266               	.LM246:
 1267 0500 C901      		movw r24,r18
 1268 0502 8627      		eor r24,r22
 1269 0504 9727      		eor r25,r23
 1270 0506 97FD      		sbrc r25,7
 1271 0508 00C0      		rjmp .L213
 1272               	.L320:
 1273               	.LM247:
 1274 050a A901      		movw r20,r18
 1275 050c 440F      		lsl r20
 1276 050e 551F      		rol r21
 1277               	.LVL94:
 1278               	.LM248:
 1279 0510 9B01      		movw r18,r22
 1280 0512 220F      		lsl r18
 1281 0514 331F      		rol r19
 1282               	.LVL95:
 1283               	.LM249:
 1284 0516 CA01      		movw r24,r20
 1285 0518 8227      		eor r24,r18
 1286 051a 9327      		eor r25,r19
 1287 051c 97FD      		sbrc r25,7
 1288 051e 00C0      		rjmp .L216
 1289               	.L321:
 1290               	.LM250:
 1291 0520 440F      		lsl r20
 1292 0522 551F      		rol r21
 1293               	.LVL96:
 1294               	.LM251:
 1295 0524 220F      		lsl r18
 1296 0526 331F      		rol r19
 1297 0528 2427      		eor r18,r20
 1298 052a 3527      		eor r19,r21
 1299 052c 37FD      		sbrc r19,7
 1300 052e 00C0      		rjmp .L314
 1301               	.L219:
 1302               	.LM252:
 1303 0530 440F      		lsl r20
 1304 0532 551F      		rol r21
 1305               	.LVL97:
 1306               	.L221:
 1307               	.LBE109:
 1308               	.LBE108:
 1309               	.LM253:
 1310 0534 1123      		tst r17
 1311               	.LVL98:
 1312 0536 01F4      		brne .+2
 1313 0538 00C0      		rjmp .L222
 1314 053a F701      		movw r30,r14
 1315 053c 60E0      		ldi r22,lo8(0)
 1316               	.LVL99:
 1317               	.L224:
 1318               	.LBB111:
 1319               	.LBB112:
 1320               	.LM254:
 1321 053e C498      		cbi 56-0x20,4
 1322               	.LM255:
 1323               	/* #APP */
 1324 0540 0000      		nop
 1325               	.LM256:
 1326 0542 0000      		nop
 1327               	.LM257:
 1328 0544 0000      		nop
 1329               	/* #NOAPP */
 1330 0546 80E0      		ldi r24,lo8(0)
 1331 0548 90E0      		ldi r25,hi8(0)
 1332 054a A0E0      		ldi r26,hlo8(0)
 1333 054c B0E0      		ldi r27,hhi8(0)
 1334               	.LVL100:
 1335 054e 00C0      		rjmp .L225
 1336               	.L226:
 1337               	.LM258:
 1338 0550 813A      		cpi r24,lo8(100001)
 1339 0552 36E8      		ldi r19,hi8(100001)
 1340 0554 9307      		cpc r25,r19
 1341 0556 31E0      		ldi r19,hlo8(100001)
 1342 0558 A307      		cpc r26,r19
 1343 055a 30E0      		ldi r19,hhi8(100001)
 1344 055c B307      		cpc r27,r19
 1345               	.LVL101:
 1346 055e 01F0      		breq .L227
 1347 0560 0196      		adiw r24,1
 1348 0562 A11D      		adc r26,__zero_reg__
 1349 0564 B11D      		adc r27,__zero_reg__
 1350               	.LVL102:
 1351               	.L225:
 1352               	.LM259:
 1353 0566 B69B      		sbis 54-0x20,6
 1354 0568 00C0      		rjmp .L226
 1355               	.L227:
 1356               	.LM260:
 1357 056a C49A      		sbi 56-0x20,4
 1358               	.LBE112:
 1359               	.LBE111:
 1360               	.LBB113:
 1361               	.LBB114:
 1362               	.LM261:
 1363 056c C498      		cbi 56-0x20,4
 1364               	.LM262:
 1365 056e 80EB      		ldi r24,lo8(-80)
 1366               	.LVL103:
 1367 0570 8FB9      		out 47-0x20,r24
 1368               	.L229:
 1369               	.LM263:
 1370 0572 779B      		sbis 46-0x20,7
 1371 0574 00C0      		rjmp .L229
 1372               	.LM264:
 1373 0576 2FB1      		in r18,47-0x20
 1374               	.LVL104:
 1375               	.LM265:
 1376 0578 1FB8      		out 47-0x20,__zero_reg__
 1377               	.L231:
 1378               	.LM266:
 1379 057a 779B      		sbis 46-0x20,7
 1380 057c 00C0      		rjmp .L231
 1381               	.LM267:
 1382 057e 8FB1      		in r24,47-0x20
 1383               	.LM268:
 1384 0580 30E0      		ldi r19,lo8(0)
 1385               	.LVL105:
 1386 0582 322F      		mov r19,r18
 1387 0584 2227      		clr r18
 1388               	.LM269:
 1389 0586 C49A      		sbi 56-0x20,4
 1390               	.LBE114:
 1391               	.LBE113:
 1392               	.LM270:
 1393 0588 280F      		add r18,r24
 1394 058a 311D      		adc r19,__zero_reg__
 1395 058c 2083      		st Z,r18
 1396               	.LBB115:
 1397               	.LBB116:
 1398               	.LM271:
 1399 058e 30E0      		ldi r19,lo8(0)
 1400               	.LVL106:
 1401 0590 322F      		mov r19,r18
 1402 0592 2227      		clr r18
 1403               	.LVL107:
 1404               	.LM272:
 1405 0594 C901      		movw r24,r18
 1406 0596 8427      		eor r24,r20
 1407 0598 9527      		eor r25,r21
 1408 059a 97FD      		sbrc r25,7
 1409 059c 00C0      		rjmp .L233
 1410               	.LM273:
 1411 059e 440F      		lsl r20
 1412 05a0 551F      		rol r21
 1413               	.LVL108:
 1414               	.L235:
 1415               	.LM274:
 1416 05a2 220F      		lsl r18
 1417 05a4 331F      		rol r19
 1418               	.LVL109:
 1419               	.LM275:
 1420 05a6 CA01      		movw r24,r20
 1421 05a8 8227      		eor r24,r18
 1422 05aa 9327      		eor r25,r19
 1423 05ac 97FD      		sbrc r25,7
 1424 05ae 00C0      		rjmp .L236
 1425               	.LM276:
 1426 05b0 440F      		lsl r20
 1427 05b2 551F      		rol r21
 1428               	.LVL110:
 1429               	.L238:
 1430               	.LM277:
 1431 05b4 220F      		lsl r18
 1432 05b6 331F      		rol r19
 1433               	.LVL111:
 1434               	.LM278:
 1435 05b8 CA01      		movw r24,r20
 1436 05ba 8227      		eor r24,r18
 1437 05bc 9327      		eor r25,r19
 1438 05be 97FD      		sbrc r25,7
 1439 05c0 00C0      		rjmp .L239
 1440               	.LM279:
 1441 05c2 440F      		lsl r20
 1442 05c4 551F      		rol r21
 1443               	.LVL112:
 1444               	.L241:
 1445               	.LM280:
 1446 05c6 220F      		lsl r18
 1447 05c8 331F      		rol r19
 1448               	.LVL113:
 1449               	.LM281:
 1450 05ca CA01      		movw r24,r20
 1451 05cc 8227      		eor r24,r18
 1452 05ce 9327      		eor r25,r19
 1453 05d0 97FD      		sbrc r25,7
 1454 05d2 00C0      		rjmp .L242
 1455               	.LM282:
 1456 05d4 440F      		lsl r20
 1457 05d6 551F      		rol r21
 1458               	.LVL114:
 1459               	.L244:
 1460               	.LM283:
 1461 05d8 220F      		lsl r18
 1462 05da 331F      		rol r19
 1463               	.LVL115:
 1464               	.LM284:
 1465 05dc CA01      		movw r24,r20
 1466 05de 8227      		eor r24,r18
 1467 05e0 9327      		eor r25,r19
 1468 05e2 97FD      		sbrc r25,7
 1469 05e4 00C0      		rjmp .L245
 1470               	.LM285:
 1471 05e6 440F      		lsl r20
 1472 05e8 551F      		rol r21
 1473               	.LVL116:
 1474               	.L247:
 1475               	.LM286:
 1476 05ea 220F      		lsl r18
 1477 05ec 331F      		rol r19
 1478               	.LVL117:
 1479               	.LM287:
 1480 05ee CA01      		movw r24,r20
 1481 05f0 8227      		eor r24,r18
 1482 05f2 9327      		eor r25,r19
 1483 05f4 97FD      		sbrc r25,7
 1484 05f6 00C0      		rjmp .L248
 1485               	.LM288:
 1486 05f8 440F      		lsl r20
 1487 05fa 551F      		rol r21
 1488               	.LVL118:
 1489               	.L250:
 1490               	.LM289:
 1491 05fc 220F      		lsl r18
 1492 05fe 331F      		rol r19
 1493               	.LVL119:
 1494               	.LM290:
 1495 0600 CA01      		movw r24,r20
 1496 0602 8227      		eor r24,r18
 1497 0604 9327      		eor r25,r19
 1498 0606 97FD      		sbrc r25,7
 1499 0608 00C0      		rjmp .L251
 1500               	.LM291:
 1501 060a 440F      		lsl r20
 1502 060c 551F      		rol r21
 1503               	.LVL120:
 1504               	.L253:
 1505               	.LM292:
 1506 060e 220F      		lsl r18
 1507 0610 331F      		rol r19
 1508 0612 2427      		eor r18,r20
 1509 0614 3527      		eor r19,r21
 1510 0616 37FD      		sbrc r19,7
 1511 0618 00C0      		rjmp .L315
 1512               	.LM293:
 1513 061a 440F      		lsl r20
 1514 061c 551F      		rol r21
 1515               	.LVL121:
 1516               	.L256:
 1517               	.LBE116:
 1518               	.LBE115:
 1519               	.LM294:
 1520 061e 6F5F      		subi r22,lo8(-(1))
 1521 0620 3196      		adiw r30,1
 1522 0622 6117      		cp r22,r17
 1523 0624 01F0      		breq .+2
 1524 0626 00C0      		rjmp .L224
 1525               	.LVL122:
 1526               	.L222:
 1527               	.LM295:
 1528 0628 EC0E      		add r14,r28
 1529 062a FD1E      		adc r15,r29
 1530 062c F701      		movw r30,r14
 1531 062e 1182      		std Z+1,__zero_reg__
 1532               	.LBB118:
 1533               	.LBB119:
 1534               	.LM296:
 1535 0630 C498      		cbi 56-0x20,4
 1536               	.LM297:
 1537               	/* #APP */
 1538 0632 0000      		nop
 1539               	.LM298:
 1540 0634 0000      		nop
 1541               	.LM299:
 1542 0636 0000      		nop
 1543               	/* #NOAPP */
 1544 0638 80E0      		ldi r24,lo8(0)
 1545 063a 90E0      		ldi r25,hi8(0)
 1546 063c A0E0      		ldi r26,hlo8(0)
 1547 063e B0E0      		ldi r27,hhi8(0)
 1548               	.LVL123:
 1549 0640 00C0      		rjmp .L257
 1550               	.L258:
 1551               	.LM300:
 1552 0642 813A      		cpi r24,lo8(100001)
 1553 0644 F6E8      		ldi r31,hi8(100001)
 1554 0646 9F07      		cpc r25,r31
 1555 0648 F1E0      		ldi r31,hlo8(100001)
 1556 064a AF07      		cpc r26,r31
 1557 064c F0E0      		ldi r31,hhi8(100001)
 1558 064e BF07      		cpc r27,r31
 1559 0650 01F0      		breq .L259
 1560 0652 0196      		adiw r24,1
 1561 0654 A11D      		adc r26,__zero_reg__
 1562 0656 B11D      		adc r27,__zero_reg__
 1563               	.L257:
 1564               	.LM301:
 1565 0658 B69B      		sbis 54-0x20,6
 1566 065a 00C0      		rjmp .L258
 1567               	.L259:
 1568               	.LM302:
 1569 065c C49A      		sbi 56-0x20,4
 1570               	.LBE119:
 1571               	.LBE118:
 1572               	.LBB120:
 1573               	.LBB121:
 1574               	.LM303:
 1575 065e C498      		cbi 56-0x20,4
 1576               	.LM304:
 1577 0660 80EB      		ldi r24,lo8(-80)
 1578               	.LVL124:
 1579 0662 8FB9      		out 47-0x20,r24
 1580               	.L261:
 1581               	.LM305:
 1582 0664 779B      		sbis 46-0x20,7
 1583 0666 00C0      		rjmp .L261
 1584               	.LM306:
 1585 0668 6FB1      		in r22,47-0x20
 1586               	.LVL125:
 1587               	.LM307:
 1588 066a 1FB8      		out 47-0x20,__zero_reg__
 1589               	.L263:
 1590               	.LM308:
 1591 066c 779B      		sbis 46-0x20,7
 1592 066e 00C0      		rjmp .L263
 1593               	.LM309:
 1594 0670 2FB1      		in r18,47-0x20
 1595               	.LVL126:
 1596               	.LM310:
 1597 0672 C49A      		sbi 56-0x20,4
 1598               	.LBE121:
 1599               	.LBE120:
 1600               	.LBB122:
 1601               	.LBB123:
 1602               	.LM311:
 1603 0674 C498      		cbi 56-0x20,4
 1604               	.LM312:
 1605               	/* #APP */
 1606 0676 0000      		nop
 1607               	.LM313:
 1608 0678 0000      		nop
 1609               	.LM314:
 1610 067a 0000      		nop
 1611               	/* #NOAPP */
 1612 067c 80E0      		ldi r24,lo8(0)
 1613 067e 90E0      		ldi r25,hi8(0)
 1614 0680 A0E0      		ldi r26,hlo8(0)
 1615 0682 B0E0      		ldi r27,hhi8(0)
 1616               	.LVL127:
 1617 0684 00C0      		rjmp .L265
 1618               	.L266:
 1619               	.LM315:
 1620 0686 813A      		cpi r24,lo8(100001)
 1621 0688 36E8      		ldi r19,hi8(100001)
 1622 068a 9307      		cpc r25,r19
 1623 068c 31E0      		ldi r19,hlo8(100001)
 1624 068e A307      		cpc r26,r19
 1625 0690 30E0      		ldi r19,hhi8(100001)
 1626 0692 B307      		cpc r27,r19
 1627               	.LVL128:
 1628 0694 01F0      		breq .L267
 1629 0696 0196      		adiw r24,1
 1630 0698 A11D      		adc r26,__zero_reg__
 1631 069a B11D      		adc r27,__zero_reg__
 1632               	.LVL129:
 1633               	.L265:
 1634               	.LM316:
 1635 069c B69B      		sbis 54-0x20,6
 1636 069e 00C0      		rjmp .L266
 1637               	.L267:
 1638               	.LM317:
 1639 06a0 C49A      		sbi 56-0x20,4
 1640               	.LBE123:
 1641               	.LBE122:
 1642               	.LBB124:
 1643               	.LBB125:
 1644               	.LM318:
 1645 06a2 C498      		cbi 56-0x20,4
 1646               	.LM319:
 1647 06a4 80EB      		ldi r24,lo8(-80)
 1648               	.LVL130:
 1649 06a6 8FB9      		out 47-0x20,r24
 1650               	.L269:
 1651               	.LM320:
 1652 06a8 779B      		sbis 46-0x20,7
 1653 06aa 00C0      		rjmp .L269
 1654               	.LM321:
 1655 06ac 3FB1      		in r19,47-0x20
 1656               	.LVL131:
 1657               	.LM322:
 1658 06ae 1FB8      		out 47-0x20,__zero_reg__
 1659               	.L271:
 1660               	.LM323:
 1661 06b0 779B      		sbis 46-0x20,7
 1662 06b2 00C0      		rjmp .L271
 1663               	.LM324:
 1664 06b4 9FB1      		in r25,47-0x20
 1665               	.LM325:
 1666 06b6 C49A      		sbi 56-0x20,4
 1667               	.LBE125:
 1668               	.LBE124:
 1669               	.LBB126:
 1670               	.LBB127:
 1671               	.LM326:
 1672 06b8 C498      		cbi 56-0x20,4
 1673               	.LM327:
 1674 06ba 82E8      		ldi r24,lo8(-126)
 1675 06bc 8FB9      		out 47-0x20,r24
 1676               	.L273:
 1677               	.LM328:
 1678 06be 779B      		sbis 46-0x20,7
 1679 06c0 00C0      		rjmp .L273
 1680               	.LM329:
 1681 06c2 8FB1      		in r24,47-0x20
 1682               	.LM330:
 1683 06c4 88E0      		ldi r24,lo8(8)
 1684 06c6 8FB9      		out 47-0x20,r24
 1685               	.L275:
 1686               	.LM331:
 1687 06c8 779B      		sbis 46-0x20,7
 1688 06ca 00C0      		rjmp .L275
 1689               	.LM332:
 1690 06cc 8FB1      		in r24,47-0x20
 1691               	.LM333:
 1692 06ce C49A      		sbi 56-0x20,4
 1693               	.LBE127:
 1694               	.LBE126:
 1695               	.LM334:
 1696 06d0 30E0      		ldi r19,lo8(0)
 1697               	.LVL132:
 1698               	.LM335:
 1699 06d2 892F      		mov r24,r25
 1700 06d4 90E0      		ldi r25,lo8(0)
 1701 06d6 982F      		mov r25,r24
 1702 06d8 8827      		clr r24
 1703 06da 822B      		or r24,r18
 1704 06dc 932B      		or r25,r19
 1705               	.LVL133:
 1706 06de 8417      		cp r24,r20
 1707 06e0 9507      		cpc r25,r21
 1708 06e2 01F4      		brne .+2
 1709 06e4 00C0      		rjmp .L277
 1710 06e6 C0E0      		ldi r28,lo8(0)
 1711 06e8 D0E0      		ldi r29,hi8(0)
 1712 06ea 00C0      		rjmp .L277
 1713               	.LVL134:
 1714               	.L315:
 1715               	.LBB128:
 1716               	.LBB117:
 1717               	.LM336:
 1718 06ec 440F      		lsl r20
 1719 06ee 551F      		rol r21
 1720               	.LVL135:
 1721 06f0 81E2      		ldi r24,lo8(4129)
 1722 06f2 90E1      		ldi r25,hi8(4129)
 1723 06f4 4827      		eor r20,r24
 1724 06f6 5927      		eor r21,r25
 1725 06f8 00C0      		rjmp .L256
 1726               	.L251:
 1727 06fa 440F      		lsl r20
 1728 06fc 551F      		rol r21
 1729               	.LVL136:
 1730 06fe 81E2      		ldi r24,lo8(4129)
 1731 0700 90E1      		ldi r25,hi8(4129)
 1732 0702 4827      		eor r20,r24
 1733 0704 5927      		eor r21,r25
 1734 0706 00C0      		rjmp .L253
 1735               	.L248:
 1736 0708 440F      		lsl r20
 1737 070a 551F      		rol r21
 1738               	.LVL137:
 1739 070c 81E2      		ldi r24,lo8(4129)
 1740 070e 90E1      		ldi r25,hi8(4129)
 1741 0710 4827      		eor r20,r24
 1742 0712 5927      		eor r21,r25
 1743 0714 00C0      		rjmp .L250
 1744               	.L245:
 1745 0716 440F      		lsl r20
 1746 0718 551F      		rol r21
 1747               	.LVL138:
 1748 071a 81E2      		ldi r24,lo8(4129)
 1749 071c 90E1      		ldi r25,hi8(4129)
 1750 071e 4827      		eor r20,r24
 1751 0720 5927      		eor r21,r25
 1752 0722 00C0      		rjmp .L247
 1753               	.L242:
 1754 0724 440F      		lsl r20
 1755 0726 551F      		rol r21
 1756               	.LVL139:
 1757 0728 81E2      		ldi r24,lo8(4129)
 1758 072a 90E1      		ldi r25,hi8(4129)
 1759 072c 4827      		eor r20,r24
 1760 072e 5927      		eor r21,r25
 1761 0730 00C0      		rjmp .L244
 1762               	.L239:
 1763 0732 440F      		lsl r20
 1764 0734 551F      		rol r21
 1765               	.LVL140:
 1766 0736 81E2      		ldi r24,lo8(4129)
 1767 0738 90E1      		ldi r25,hi8(4129)
 1768 073a 4827      		eor r20,r24
 1769 073c 5927      		eor r21,r25
 1770 073e 00C0      		rjmp .L241
 1771               	.L236:
 1772 0740 440F      		lsl r20
 1773 0742 551F      		rol r21
 1774               	.LVL141:
 1775 0744 81E2      		ldi r24,lo8(4129)
 1776 0746 90E1      		ldi r25,hi8(4129)
 1777 0748 4827      		eor r20,r24
 1778 074a 5927      		eor r21,r25
 1779 074c 00C0      		rjmp .L238
 1780               	.L233:
 1781 074e 440F      		lsl r20
 1782 0750 551F      		rol r21
 1783               	.LVL142:
 1784 0752 81E2      		ldi r24,lo8(4129)
 1785 0754 90E1      		ldi r25,hi8(4129)
 1786 0756 4827      		eor r20,r24
 1787 0758 5927      		eor r21,r25
 1788 075a 00C0      		rjmp .L235
 1789               	.LVL143:
 1790               	.L313:
 1791               	.LBE117:
 1792               	.LBE128:
 1793               	.LBB129:
 1794               	.LBB110:
 1795               	.LM337:
 1796 075c 21E2      		ldi r18,lo8(4129)
 1797 075e 30E1      		ldi r19,hi8(4129)
 1798               	.LVL144:
 1799               	.LM338:
 1800 0760 AC01      		movw r20,r24
 1801 0762 440F      		lsl r20
 1802 0764 551F      		rol r21
 1803               	.LVL145:
 1804               	.LM339:
 1805 0766 C901      		movw r24,r18
 1806 0768 8427      		eor r24,r20
 1807 076a 9527      		eor r25,r21
 1808 076c 97FF      		sbrs r25,7
 1809 076e 00C0      		rjmp .L316
 1810               	.L201:
 1811               	.LM340:
 1812 0770 220F      		lsl r18
 1813 0772 331F      		rol r19
 1814               	.LVL146:
 1815 0774 2162      		ori r18,lo8(4129)
 1816 0776 3061      		ori r19,hi8(4129)
 1817               	.LM341:
 1818 0778 440F      		lsl r20
 1819 077a 551F      		rol r21
 1820               	.LVL147:
 1821               	.LM342:
 1822 077c C901      		movw r24,r18
 1823 077e 8427      		eor r24,r20
 1824 0780 9527      		eor r25,r21
 1825 0782 97FF      		sbrs r25,7
 1826 0784 00C0      		rjmp .L317
 1827               	.L204:
 1828               	.LM343:
 1829 0786 220F      		lsl r18
 1830 0788 331F      		rol r19
 1831               	.LVL148:
 1832 078a 81E2      		ldi r24,lo8(4129)
 1833 078c 90E1      		ldi r25,hi8(4129)
 1834 078e 2827      		eor r18,r24
 1835 0790 3927      		eor r19,r25
 1836               	.LM344:
 1837 0792 440F      		lsl r20
 1838 0794 551F      		rol r21
 1839               	.LVL149:
 1840               	.LM345:
 1841 0796 C901      		movw r24,r18
 1842 0798 8427      		eor r24,r20
 1843 079a 9527      		eor r25,r21
 1844 079c 97FF      		sbrs r25,7
 1845 079e 00C0      		rjmp .L318
 1846               	.L207:
 1847               	.LM346:
 1848 07a0 220F      		lsl r18
 1849 07a2 331F      		rol r19
 1850               	.LVL150:
 1851 07a4 81E2      		ldi r24,lo8(4129)
 1852 07a6 90E1      		ldi r25,hi8(4129)
 1853 07a8 2827      		eor r18,r24
 1854 07aa 3927      		eor r19,r25
 1855               	.LM347:
 1856 07ac 440F      		lsl r20
 1857 07ae 551F      		rol r21
 1858               	.LVL151:
 1859               	.LM348:
 1860 07b0 C901      		movw r24,r18
 1861 07b2 8427      		eor r24,r20
 1862 07b4 9527      		eor r25,r21
 1863 07b6 97FF      		sbrs r25,7
 1864 07b8 00C0      		rjmp .L319
 1865               	.L210:
 1866               	.LM349:
 1867 07ba 220F      		lsl r18
 1868 07bc 331F      		rol r19
 1869               	.LVL152:
 1870 07be 81E2      		ldi r24,lo8(4129)
 1871 07c0 90E1      		ldi r25,hi8(4129)
 1872 07c2 2827      		eor r18,r24
 1873 07c4 3927      		eor r19,r25
 1874               	.LM350:
 1875 07c6 BA01      		movw r22,r20
 1876 07c8 660F      		lsl r22
 1877 07ca 771F      		rol r23
 1878               	.LVL153:
 1879               	.LM351:
 1880 07cc C901      		movw r24,r18
 1881 07ce 8627      		eor r24,r22
 1882 07d0 9727      		eor r25,r23
 1883 07d2 97FF      		sbrs r25,7
 1884 07d4 00C0      		rjmp .L320
 1885               	.L213:
 1886               	.LM352:
 1887 07d6 A901      		movw r20,r18
 1888 07d8 440F      		lsl r20
 1889 07da 551F      		rol r21
 1890               	.LVL154:
 1891 07dc 81E2      		ldi r24,lo8(4129)
 1892 07de 90E1      		ldi r25,hi8(4129)
 1893 07e0 4827      		eor r20,r24
 1894 07e2 5927      		eor r21,r25
 1895               	.LM353:
 1896 07e4 9B01      		movw r18,r22
 1897 07e6 220F      		lsl r18
 1898 07e8 331F      		rol r19
 1899               	.LVL155:
 1900               	.LM354:
 1901 07ea CA01      		movw r24,r20
 1902 07ec 8227      		eor r24,r18
 1903 07ee 9327      		eor r25,r19
 1904 07f0 97FF      		sbrs r25,7
 1905 07f2 00C0      		rjmp .L321
 1906               	.L216:
 1907               	.LM355:
 1908 07f4 440F      		lsl r20
 1909 07f6 551F      		rol r21
 1910               	.LVL156:
 1911 07f8 81E2      		ldi r24,lo8(4129)
 1912 07fa 90E1      		ldi r25,hi8(4129)
 1913 07fc 4827      		eor r20,r24
 1914 07fe 5927      		eor r21,r25
 1915               	.LM356:
 1916 0800 220F      		lsl r18
 1917 0802 331F      		rol r19
 1918 0804 2427      		eor r18,r20
 1919 0806 3527      		eor r19,r21
 1920 0808 37FF      		sbrs r19,7
 1921 080a 00C0      		rjmp .L219
 1922               	.L314:
 1923               	.LM357:
 1924 080c 440F      		lsl r20
 1925 080e 551F      		rol r21
 1926               	.LVL157:
 1927 0810 81E2      		ldi r24,lo8(4129)
 1928 0812 90E1      		ldi r25,hi8(4129)
 1929 0814 4827      		eor r20,r24
 1930 0816 5927      		eor r21,r25
 1931 0818 00C0      		rjmp .L221
 1932               	.LVL158:
 1933               	.L277:
 1934               	.LBE110:
 1935               	.LBE129:
 1936               	.LM358:
 1937 081a CE01      		movw r24,r28
 1938               	/* epilogue: frame size=0 */
 1939 081c DF91      		pop r29
 1940 081e CF91      		pop r28
 1941 0820 1F91      		pop r17
 1942 0822 FF90      		pop r15
 1943 0824 EF90      		pop r14
 1944 0826 0895      		ret
 1945               	/* epilogue end (size=6) */
 1946               	/* function rf12_rxdata size 544 (533) */
 1947               	.LFE15:
 1949               	.global	rf12_txdata
 1951               	rf12_txdata:
 1952               	.LFB14:
 1953               	.LM359:
 1954               	/* prologue: frame size=0 */
 1955 0828 CF93      		push r28
 1956 082a DF93      		push r29
 1957               	/* prologue end (size=2) */
 1958               	.LVL159:
 1959 082c EC01      		movw r28,r24
 1960               	.LBB184:
 1961               	.LBB185:
 1962               	.LM360:
 1963 082e C498      		cbi 56-0x20,4
 1964               	.LM361:
 1965 0830 82E8      		ldi r24,lo8(-126)
 1966               	.LVL160:
 1967 0832 8FB9      		out 47-0x20,r24
 1968               	.L323:
 1969               	.LM362:
 1970 0834 779B      		sbis 46-0x20,7
 1971 0836 00C0      		rjmp .L323
 1972               	.LM363:
 1973 0838 8FB1      		in r24,47-0x20
 1974               	.LM364:
 1975 083a 88E3      		ldi r24,lo8(56)
 1976 083c 8FB9      		out 47-0x20,r24
 1977               	.L325:
 1978               	.LM365:
 1979 083e 779B      		sbis 46-0x20,7
 1980 0840 00C0      		rjmp .L325
 1981               	.LM366:
 1982 0842 8FB1      		in r24,47-0x20
 1983               	.LM367:
 1984 0844 C49A      		sbi 56-0x20,4
 1985               	.LBE185:
 1986               	.LBE184:
 1987               	.LBB186:
 1988               	.LBB187:
 1989               	.LM368:
 1990 0846 C498      		cbi 56-0x20,4
 1991               	.LM369:
 1992               	/* #APP */
 1993 0848 0000      		nop
 1994               	.LM370:
 1995 084a 0000      		nop
 1996               	.LM371:
 1997 084c 0000      		nop
 1998               	/* #NOAPP */
 1999 084e 80E0      		ldi r24,lo8(0)
 2000 0850 90E0      		ldi r25,hi8(0)
 2001 0852 A0E0      		ldi r26,hlo8(0)
 2002 0854 B0E0      		ldi r27,hhi8(0)
 2003               	.LVL161:
 2004 0856 00C0      		rjmp .L327
 2005               	.L328:
 2006               	.LM372:
 2007 0858 813A      		cpi r24,lo8(100001)
 2008 085a 26E8      		ldi r18,hi8(100001)
 2009 085c 9207      		cpc r25,r18
 2010 085e 21E0      		ldi r18,hlo8(100001)
 2011 0860 A207      		cpc r26,r18
 2012 0862 20E0      		ldi r18,hhi8(100001)
 2013 0864 B207      		cpc r27,r18
 2014 0866 01F0      		breq .L329
 2015 0868 0196      		adiw r24,1
 2016 086a A11D      		adc r26,__zero_reg__
 2017 086c B11D      		adc r27,__zero_reg__
 2018               	.L327:
 2019               	.LM373:
 2020 086e B69B      		sbis 54-0x20,6
 2021 0870 00C0      		rjmp .L328
 2022               	.L329:
 2023               	.LM374:
 2024 0872 C49A      		sbi 56-0x20,4
 2025               	.LBE187:
 2026               	.LBE186:
 2027               	.LBB188:
 2028               	.LBB189:
 2029               	.LM375:
 2030 0874 C498      		cbi 56-0x20,4
 2031               	.LM376:
 2032 0876 88EB      		ldi r24,lo8(-72)
 2033               	.LVL162:
 2034 0878 8FB9      		out 47-0x20,r24
 2035               	.L331:
 2036               	.LM377:
 2037 087a 779B      		sbis 46-0x20,7
 2038 087c 00C0      		rjmp .L331
 2039               	.LM378:
 2040 087e 8FB1      		in r24,47-0x20
 2041               	.LM379:
 2042 0880 8AEA      		ldi r24,lo8(-86)
 2043 0882 8FB9      		out 47-0x20,r24
 2044               	.L333:
 2045               	.LM380:
 2046 0884 779B      		sbis 46-0x20,7
 2047 0886 00C0      		rjmp .L333
 2048               	.LM381:
 2049 0888 8FB1      		in r24,47-0x20
 2050               	.LM382:
 2051 088a C49A      		sbi 56-0x20,4
 2052               	.LBE189:
 2053               	.LBE188:
 2054               	.LBB190:
 2055               	.LBB191:
 2056               	.LM383:
 2057 088c C498      		cbi 56-0x20,4
 2058               	.LM384:
 2059               	/* #APP */
 2060 088e 0000      		nop
 2061               	.LM385:
 2062 0890 0000      		nop
 2063               	.LM386:
 2064 0892 0000      		nop
 2065               	/* #NOAPP */
 2066 0894 80E0      		ldi r24,lo8(0)
 2067 0896 90E0      		ldi r25,hi8(0)
 2068 0898 A0E0      		ldi r26,hlo8(0)
 2069 089a B0E0      		ldi r27,hhi8(0)
 2070               	.LVL163:
 2071 089c 00C0      		rjmp .L335
 2072               	.L336:
 2073               	.LM387:
 2074 089e 813A      		cpi r24,lo8(100001)
 2075 08a0 26E8      		ldi r18,hi8(100001)
 2076 08a2 9207      		cpc r25,r18
 2077 08a4 21E0      		ldi r18,hlo8(100001)
 2078 08a6 A207      		cpc r26,r18
 2079 08a8 20E0      		ldi r18,hhi8(100001)
 2080 08aa B207      		cpc r27,r18
 2081 08ac 01F0      		breq .L337
 2082 08ae 0196      		adiw r24,1
 2083 08b0 A11D      		adc r26,__zero_reg__
 2084 08b2 B11D      		adc r27,__zero_reg__
 2085               	.L335:
 2086               	.LM388:
 2087 08b4 B69B      		sbis 54-0x20,6
 2088 08b6 00C0      		rjmp .L336
 2089               	.L337:
 2090               	.LM389:
 2091 08b8 C49A      		sbi 56-0x20,4
 2092               	.LBE191:
 2093               	.LBE190:
 2094               	.LBB192:
 2095               	.LBB193:
 2096               	.LM390:
 2097 08ba C498      		cbi 56-0x20,4
 2098               	.LM391:
 2099 08bc 88EB      		ldi r24,lo8(-72)
 2100               	.LVL164:
 2101 08be 8FB9      		out 47-0x20,r24
 2102               	.L339:
 2103               	.LM392:
 2104 08c0 779B      		sbis 46-0x20,7
 2105 08c2 00C0      		rjmp .L339
 2106               	.LM393:
 2107 08c4 8FB1      		in r24,47-0x20
 2108               	.LM394:
 2109 08c6 8AEA      		ldi r24,lo8(-86)
 2110 08c8 8FB9      		out 47-0x20,r24
 2111               	.L341:
 2112               	.LM395:
 2113 08ca 779B      		sbis 46-0x20,7
 2114 08cc 00C0      		rjmp .L341
 2115               	.LM396:
 2116 08ce 8FB1      		in r24,47-0x20
 2117               	.LM397:
 2118 08d0 C49A      		sbi 56-0x20,4
 2119               	.LBE193:
 2120               	.LBE192:
 2121               	.LBB194:
 2122               	.LBB195:
 2123               	.LM398:
 2124 08d2 C498      		cbi 56-0x20,4
 2125               	.LM399:
 2126               	/* #APP */
 2127 08d4 0000      		nop
 2128               	.LM400:
 2129 08d6 0000      		nop
 2130               	.LM401:
 2131 08d8 0000      		nop
 2132               	/* #NOAPP */
 2133 08da 80E0      		ldi r24,lo8(0)
 2134 08dc 90E0      		ldi r25,hi8(0)
 2135 08de A0E0      		ldi r26,hlo8(0)
 2136 08e0 B0E0      		ldi r27,hhi8(0)
 2137               	.LVL165:
 2138 08e2 00C0      		rjmp .L343
 2139               	.L344:
 2140               	.LM402:
 2141 08e4 813A      		cpi r24,lo8(100001)
 2142 08e6 26E8      		ldi r18,hi8(100001)
 2143 08e8 9207      		cpc r25,r18
 2144 08ea 21E0      		ldi r18,hlo8(100001)
 2145 08ec A207      		cpc r26,r18
 2146 08ee 20E0      		ldi r18,hhi8(100001)
 2147 08f0 B207      		cpc r27,r18
 2148 08f2 01F0      		breq .L345
 2149 08f4 0196      		adiw r24,1
 2150 08f6 A11D      		adc r26,__zero_reg__
 2151 08f8 B11D      		adc r27,__zero_reg__
 2152               	.L343:
 2153               	.LM403:
 2154 08fa B69B      		sbis 54-0x20,6
 2155 08fc 00C0      		rjmp .L344
 2156               	.L345:
 2157               	.LM404:
 2158 08fe C49A      		sbi 56-0x20,4
 2159               	.LBE195:
 2160               	.LBE194:
 2161               	.LBB196:
 2162               	.LBB197:
 2163               	.LM405:
 2164 0900 C498      		cbi 56-0x20,4
 2165               	.LM406:
 2166 0902 88EB      		ldi r24,lo8(-72)
 2167               	.LVL166:
 2168 0904 8FB9      		out 47-0x20,r24
 2169               	.L347:
 2170               	.LM407:
 2171 0906 779B      		sbis 46-0x20,7
 2172 0908 00C0      		rjmp .L347
 2173               	.LM408:
 2174 090a 8FB1      		in r24,47-0x20
 2175               	.LM409:
 2176 090c 8AEA      		ldi r24,lo8(-86)
 2177 090e 8FB9      		out 47-0x20,r24
 2178               	.L349:
 2179               	.LM410:
 2180 0910 779B      		sbis 46-0x20,7
 2181 0912 00C0      		rjmp .L349
 2182               	.LM411:
 2183 0914 8FB1      		in r24,47-0x20
 2184               	.LM412:
 2185 0916 C49A      		sbi 56-0x20,4
 2186               	.LBE197:
 2187               	.LBE196:
 2188               	.LBB198:
 2189               	.LBB199:
 2190               	.LM413:
 2191 0918 C498      		cbi 56-0x20,4
 2192               	.LM414:
 2193               	/* #APP */
 2194 091a 0000      		nop
 2195               	.LM415:
 2196 091c 0000      		nop
 2197               	.LM416:
 2198 091e 0000      		nop
 2199               	/* #NOAPP */
 2200 0920 80E0      		ldi r24,lo8(0)
 2201 0922 90E0      		ldi r25,hi8(0)
 2202 0924 A0E0      		ldi r26,hlo8(0)
 2203 0926 B0E0      		ldi r27,hhi8(0)
 2204               	.LVL167:
 2205 0928 00C0      		rjmp .L351
 2206               	.L352:
 2207               	.LM417:
 2208 092a 813A      		cpi r24,lo8(100001)
 2209 092c 26E8      		ldi r18,hi8(100001)
 2210 092e 9207      		cpc r25,r18
 2211 0930 21E0      		ldi r18,hlo8(100001)
 2212 0932 A207      		cpc r26,r18
 2213 0934 20E0      		ldi r18,hhi8(100001)
 2214 0936 B207      		cpc r27,r18
 2215 0938 01F0      		breq .L353
 2216 093a 0196      		adiw r24,1
 2217 093c A11D      		adc r26,__zero_reg__
 2218 093e B11D      		adc r27,__zero_reg__
 2219               	.L351:
 2220               	.LM418:
 2221 0940 B69B      		sbis 54-0x20,6
 2222 0942 00C0      		rjmp .L352
 2223               	.L353:
 2224               	.LM419:
 2225 0944 C49A      		sbi 56-0x20,4
 2226               	.LBE199:
 2227               	.LBE198:
 2228               	.LBB200:
 2229               	.LBB201:
 2230               	.LM420:
 2231 0946 C498      		cbi 56-0x20,4
 2232               	.LM421:
 2233 0948 88EB      		ldi r24,lo8(-72)
 2234               	.LVL168:
 2235 094a 8FB9      		out 47-0x20,r24
 2236               	.L355:
 2237               	.LM422:
 2238 094c 779B      		sbis 46-0x20,7
 2239 094e 00C0      		rjmp .L355
 2240               	.LM423:
 2241 0950 8FB1      		in r24,47-0x20
 2242               	.LM424:
 2243 0952 8DE2      		ldi r24,lo8(45)
 2244 0954 8FB9      		out 47-0x20,r24
 2245               	.L357:
 2246               	.LM425:
 2247 0956 779B      		sbis 46-0x20,7
 2248 0958 00C0      		rjmp .L357
 2249               	.LM426:
 2250 095a 8FB1      		in r24,47-0x20
 2251               	.LM427:
 2252 095c C49A      		sbi 56-0x20,4
 2253               	.LBE201:
 2254               	.LBE200:
 2255               	.LBB202:
 2256               	.LBB203:
 2257               	.LM428:
 2258 095e C498      		cbi 56-0x20,4
 2259               	.LM429:
 2260               	/* #APP */
 2261 0960 0000      		nop
 2262               	.LM430:
 2263 0962 0000      		nop
 2264               	.LM431:
 2265 0964 0000      		nop
 2266               	/* #NOAPP */
 2267 0966 80E0      		ldi r24,lo8(0)
 2268 0968 90E0      		ldi r25,hi8(0)
 2269 096a A0E0      		ldi r26,hlo8(0)
 2270 096c B0E0      		ldi r27,hhi8(0)
 2271               	.LVL169:
 2272 096e 00C0      		rjmp .L359
 2273               	.L360:
 2274               	.LM432:
 2275 0970 813A      		cpi r24,lo8(100001)
 2276 0972 26E8      		ldi r18,hi8(100001)
 2277 0974 9207      		cpc r25,r18
 2278 0976 21E0      		ldi r18,hlo8(100001)
 2279 0978 A207      		cpc r26,r18
 2280 097a 20E0      		ldi r18,hhi8(100001)
 2281 097c B207      		cpc r27,r18
 2282 097e 01F0      		breq .L361
 2283 0980 0196      		adiw r24,1
 2284 0982 A11D      		adc r26,__zero_reg__
 2285 0984 B11D      		adc r27,__zero_reg__
 2286               	.L359:
 2287               	.LM433:
 2288 0986 B69B      		sbis 54-0x20,6
 2289 0988 00C0      		rjmp .L360
 2290               	.L361:
 2291               	.LM434:
 2292 098a C49A      		sbi 56-0x20,4
 2293               	.LBE203:
 2294               	.LBE202:
 2295               	.LBB204:
 2296               	.LBB205:
 2297               	.LM435:
 2298 098c C498      		cbi 56-0x20,4
 2299               	.LM436:
 2300 098e 88EB      		ldi r24,lo8(-72)
 2301               	.LVL170:
 2302 0990 8FB9      		out 47-0x20,r24
 2303               	.L363:
 2304               	.LM437:
 2305 0992 779B      		sbis 46-0x20,7
 2306 0994 00C0      		rjmp .L363
 2307               	.LM438:
 2308 0996 8FB1      		in r24,47-0x20
 2309               	.LM439:
 2310 0998 84ED      		ldi r24,lo8(-44)
 2311 099a 8FB9      		out 47-0x20,r24
 2312               	.L365:
 2313               	.LM440:
 2314 099c 779B      		sbis 46-0x20,7
 2315 099e 00C0      		rjmp .L365
 2316               	.LM441:
 2317 09a0 8FB1      		in r24,47-0x20
 2318               	.LM442:
 2319 09a2 C49A      		sbi 56-0x20,4
 2320               	.LBE205:
 2321               	.LBE204:
 2322               	.LBB206:
 2323               	.LBB207:
 2324               	.LM443:
 2325 09a4 C498      		cbi 56-0x20,4
 2326               	.LM444:
 2327               	/* #APP */
 2328 09a6 0000      		nop
 2329               	.LM445:
 2330 09a8 0000      		nop
 2331               	.LM446:
 2332 09aa 0000      		nop
 2333               	/* #NOAPP */
 2334 09ac 80E0      		ldi r24,lo8(0)
 2335 09ae 90E0      		ldi r25,hi8(0)
 2336 09b0 A0E0      		ldi r26,hlo8(0)
 2337 09b2 B0E0      		ldi r27,hhi8(0)
 2338               	.LVL171:
 2339 09b4 00C0      		rjmp .L367
 2340               	.L368:
 2341               	.LM447:
 2342 09b6 813A      		cpi r24,lo8(100001)
 2343 09b8 26E8      		ldi r18,hi8(100001)
 2344 09ba 9207      		cpc r25,r18
 2345 09bc 21E0      		ldi r18,hlo8(100001)
 2346 09be A207      		cpc r26,r18
 2347 09c0 20E0      		ldi r18,hhi8(100001)
 2348 09c2 B207      		cpc r27,r18
 2349 09c4 01F0      		breq .L369
 2350 09c6 0196      		adiw r24,1
 2351 09c8 A11D      		adc r26,__zero_reg__
 2352 09ca B11D      		adc r27,__zero_reg__
 2353               	.L367:
 2354               	.LM448:
 2355 09cc B69B      		sbis 54-0x20,6
 2356 09ce 00C0      		rjmp .L368
 2357               	.L369:
 2358               	.LM449:
 2359 09d0 C49A      		sbi 56-0x20,4
 2360               	.LBE207:
 2361               	.LBE206:
 2362               	.LM450:
 2363 09d2 262F      		mov r18,r22
 2364 09d4 30E0      		ldi r19,lo8(0)
 2365               	.LVL172:
 2366 09d6 A901      		movw r20,r18
 2367 09d8 586B      		ori r21,hi8(-18432)
 2368               	.LBB208:
 2369               	.LBB209:
 2370               	.LM451:
 2371 09da C498      		cbi 56-0x20,4
 2372               	.LM452:
 2373 09dc 852F      		mov r24,r21
 2374 09de 9927      		clr r25
 2375               	.LVL173:
 2376 09e0 8FB9      		out 47-0x20,r24
 2377               	.LVL174:
 2378               	.L371:
 2379               	.LM453:
 2380 09e2 779B      		sbis 46-0x20,7
 2381 09e4 00C0      		rjmp .L371
 2382               	.LM454:
 2383 09e6 8FB1      		in r24,47-0x20
 2384               	.LM455:
 2385 09e8 4FB9      		out 47-0x20,r20
 2386               	.L373:
 2387               	.LM456:
 2388 09ea 779B      		sbis 46-0x20,7
 2389 09ec 00C0      		rjmp .L373
 2390               	.LM457:
 2391 09ee 8FB1      		in r24,47-0x20
 2392               	.LM458:
 2393 09f0 C49A      		sbi 56-0x20,4
 2394               	.LBE209:
 2395               	.LBE208:
 2396               	.LBB210:
 2397               	.LBB211:
 2398               	.LM459:
 2399 09f2 922F      		mov r25,r18
 2400 09f4 8827      		clr r24
 2401               	.LVL175:
 2402 09f6 27FD      		sbrc r18,7
 2403 09f8 00C0      		rjmp .L528
 2404 09fa 20E0      		ldi r18,lo8(0)
 2405 09fc 30E0      		ldi r19,hi8(0)
 2406               	.LVL176:
 2407               	.LM460:
 2408 09fe AC01      		movw r20,r24
 2409 0a00 440F      		lsl r20
 2410 0a02 551F      		rol r21
 2411               	.LVL177:
 2412               	.LM461:
 2413 0a04 C901      		movw r24,r18
 2414 0a06 8427      		eor r24,r20
 2415 0a08 9527      		eor r25,r21
 2416 0a0a 97FD      		sbrc r25,7
 2417 0a0c 00C0      		rjmp .L378
 2418               	.L532:
 2419               	.LM462:
 2420 0a0e 220F      		lsl r18
 2421 0a10 331F      		rol r19
 2422               	.LVL178:
 2423               	.LM463:
 2424 0a12 440F      		lsl r20
 2425 0a14 551F      		rol r21
 2426               	.LVL179:
 2427               	.LM464:
 2428 0a16 C901      		movw r24,r18
 2429 0a18 8427      		eor r24,r20
 2430 0a1a 9527      		eor r25,r21
 2431 0a1c 97FD      		sbrc r25,7
 2432 0a1e 00C0      		rjmp .L381
 2433               	.L533:
 2434               	.LM465:
 2435 0a20 220F      		lsl r18
 2436 0a22 331F      		rol r19
 2437               	.LVL180:
 2438               	.LM466:
 2439 0a24 440F      		lsl r20
 2440 0a26 551F      		rol r21
 2441               	.LVL181:
 2442               	.LM467:
 2443 0a28 C901      		movw r24,r18
 2444 0a2a 8427      		eor r24,r20
 2445 0a2c 9527      		eor r25,r21
 2446 0a2e 97FD      		sbrc r25,7
 2447 0a30 00C0      		rjmp .L384
 2448               	.L534:
 2449               	.LM468:
 2450 0a32 220F      		lsl r18
 2451 0a34 331F      		rol r19
 2452               	.LVL182:
 2453               	.LM469:
 2454 0a36 440F      		lsl r20
 2455 0a38 551F      		rol r21
 2456               	.LVL183:
 2457               	.LM470:
 2458 0a3a C901      		movw r24,r18
 2459 0a3c 8427      		eor r24,r20
 2460 0a3e 9527      		eor r25,r21
 2461 0a40 97FD      		sbrc r25,7
 2462 0a42 00C0      		rjmp .L387
 2463               	.L535:
 2464               	.LM471:
 2465 0a44 220F      		lsl r18
 2466 0a46 331F      		rol r19
 2467               	.LVL184:
 2468               	.LM472:
 2469 0a48 FA01      		movw r30,r20
 2470 0a4a EE0F      		lsl r30
 2471 0a4c FF1F      		rol r31
 2472               	.LVL185:
 2473               	.LM473:
 2474 0a4e C901      		movw r24,r18
 2475 0a50 8E27      		eor r24,r30
 2476 0a52 9F27      		eor r25,r31
 2477 0a54 97FD      		sbrc r25,7
 2478 0a56 00C0      		rjmp .L390
 2479               	.L536:
 2480               	.LM474:
 2481 0a58 A901      		movw r20,r18
 2482 0a5a 440F      		lsl r20
 2483 0a5c 551F      		rol r21
 2484               	.LVL186:
 2485               	.LM475:
 2486 0a5e 9F01      		movw r18,r30
 2487 0a60 220F      		lsl r18
 2488 0a62 331F      		rol r19
 2489               	.LVL187:
 2490               	.LM476:
 2491 0a64 CA01      		movw r24,r20
 2492 0a66 8227      		eor r24,r18
 2493 0a68 9327      		eor r25,r19
 2494 0a6a 97FD      		sbrc r25,7
 2495 0a6c 00C0      		rjmp .L393
 2496               	.L537:
 2497               	.LM477:
 2498 0a6e 440F      		lsl r20
 2499 0a70 551F      		rol r21
 2500               	.LVL188:
 2501               	.LM478:
 2502 0a72 220F      		lsl r18
 2503 0a74 331F      		rol r19
 2504 0a76 2427      		eor r18,r20
 2505 0a78 3527      		eor r19,r21
 2506 0a7a 37FD      		sbrc r19,7
 2507 0a7c 00C0      		rjmp .L529
 2508               	.L396:
 2509               	.LM479:
 2510 0a7e FA01      		movw r30,r20
 2511 0a80 EE0F      		lsl r30
 2512 0a82 FF1F      		rol r31
 2513               	.LVL189:
 2514               	.L398:
 2515               	.LBE211:
 2516               	.LBE210:
 2517               	.LM480:
 2518 0a84 6623      		tst r22
 2519 0a86 01F4      		brne .+2
 2520 0a88 00C0      		rjmp .L399
 2521 0a8a 70E0      		ldi r23,lo8(0)
 2522               	.LVL190:
 2523               	.L401:
 2524               	.LBB213:
 2525               	.LBB214:
 2526               	.LM481:
 2527 0a8c C498      		cbi 56-0x20,4
 2528               	.LM482:
 2529               	/* #APP */
 2530 0a8e 0000      		nop
 2531               	.LM483:
 2532 0a90 0000      		nop
 2533               	.LM484:
 2534 0a92 0000      		nop
 2535               	/* #NOAPP */
 2536 0a94 80E0      		ldi r24,lo8(0)
 2537 0a96 90E0      		ldi r25,hi8(0)
 2538 0a98 A0E0      		ldi r26,hlo8(0)
 2539 0a9a B0E0      		ldi r27,hhi8(0)
 2540               	.LVL191:
 2541 0a9c 00C0      		rjmp .L402
 2542               	.L403:
 2543               	.LM485:
 2544 0a9e 813A      		cpi r24,lo8(100001)
 2545 0aa0 26E8      		ldi r18,hi8(100001)
 2546 0aa2 9207      		cpc r25,r18
 2547 0aa4 21E0      		ldi r18,hlo8(100001)
 2548 0aa6 A207      		cpc r26,r18
 2549 0aa8 20E0      		ldi r18,hhi8(100001)
 2550 0aaa B207      		cpc r27,r18
 2551               	.LVL192:
 2552 0aac 01F0      		breq .L404
 2553 0aae 0196      		adiw r24,1
 2554 0ab0 A11D      		adc r26,__zero_reg__
 2555 0ab2 B11D      		adc r27,__zero_reg__
 2556               	.LVL193:
 2557               	.L402:
 2558               	.LM486:
 2559 0ab4 B69B      		sbis 54-0x20,6
 2560 0ab6 00C0      		rjmp .L403
 2561               	.L404:
 2562               	.LM487:
 2563 0ab8 C49A      		sbi 56-0x20,4
 2564               	.LBE214:
 2565               	.LBE213:
 2566               	.LM488:
 2567 0aba 8881      		ld r24,Y
 2568               	.LVL194:
 2569 0abc 282F      		mov r18,r24
 2570               	.LVL195:
 2571 0abe 30E0      		ldi r19,lo8(0)
 2572               	.LVL196:
 2573 0ac0 386B      		ori r19,hi8(-18432)
 2574               	.LBB215:
 2575               	.LBB216:
 2576               	.LM489:
 2577 0ac2 C498      		cbi 56-0x20,4
 2578               	.LM490:
 2579 0ac4 832F      		mov r24,r19
 2580 0ac6 9927      		clr r25
 2581 0ac8 8FB9      		out 47-0x20,r24
 2582               	.L406:
 2583               	.LM491:
 2584 0aca 779B      		sbis 46-0x20,7
 2585 0acc 00C0      		rjmp .L406
 2586               	.LM492:
 2587 0ace 8FB1      		in r24,47-0x20
 2588               	.LM493:
 2589 0ad0 2FB9      		out 47-0x20,r18
 2590               	.L408:
 2591               	.LM494:
 2592 0ad2 779B      		sbis 46-0x20,7
 2593 0ad4 00C0      		rjmp .L408
 2594               	.LM495:
 2595 0ad6 8FB1      		in r24,47-0x20
 2596               	.LM496:
 2597 0ad8 C49A      		sbi 56-0x20,4
 2598               	.LBE216:
 2599               	.LBE215:
 2600               	.LM497:
 2601 0ada 8881      		ld r24,Y
 2602               	.LVL197:
 2603               	.LBB217:
 2604               	.LBB218:
 2605               	.LM498:
 2606 0adc 90E0      		ldi r25,lo8(0)
 2607               	.LVL198:
 2608 0ade 582F      		mov r21,r24
 2609 0ae0 4427      		clr r20
 2610               	.LVL199:
 2611               	.LM499:
 2612 0ae2 CA01      		movw r24,r20
 2613               	.LVL200:
 2614 0ae4 8E27      		eor r24,r30
 2615 0ae6 9F27      		eor r25,r31
 2616 0ae8 97FD      		sbrc r25,7
 2617 0aea 00C0      		rjmp .L410
 2618               	.LM500:
 2619 0aec 9F01      		movw r18,r30
 2620 0aee 220F      		lsl r18
 2621 0af0 331F      		rol r19
 2622               	.LVL201:
 2623               	.L412:
 2624               	.LM501:
 2625 0af2 440F      		lsl r20
 2626 0af4 551F      		rol r21
 2627               	.LVL202:
 2628               	.LM502:
 2629 0af6 C901      		movw r24,r18
 2630 0af8 8427      		eor r24,r20
 2631 0afa 9527      		eor r25,r21
 2632 0afc 97FD      		sbrc r25,7
 2633 0afe 00C0      		rjmp .L413
 2634               	.LM503:
 2635 0b00 220F      		lsl r18
 2636 0b02 331F      		rol r19
 2637               	.LVL203:
 2638               	.L415:
 2639               	.LM504:
 2640 0b04 440F      		lsl r20
 2641 0b06 551F      		rol r21
 2642               	.LVL204:
 2643               	.LM505:
 2644 0b08 C901      		movw r24,r18
 2645 0b0a 8427      		eor r24,r20
 2646 0b0c 9527      		eor r25,r21
 2647 0b0e 97FD      		sbrc r25,7
 2648 0b10 00C0      		rjmp .L416
 2649               	.LM506:
 2650 0b12 220F      		lsl r18
 2651 0b14 331F      		rol r19
 2652               	.LVL205:
 2653               	.L418:
 2654               	.LM507:
 2655 0b16 440F      		lsl r20
 2656 0b18 551F      		rol r21
 2657               	.LVL206:
 2658               	.LM508:
 2659 0b1a C901      		movw r24,r18
 2660 0b1c 8427      		eor r24,r20
 2661 0b1e 9527      		eor r25,r21
 2662 0b20 97FD      		sbrc r25,7
 2663 0b22 00C0      		rjmp .L419
 2664               	.LM509:
 2665 0b24 220F      		lsl r18
 2666 0b26 331F      		rol r19
 2667               	.LVL207:
 2668               	.L421:
 2669               	.LM510:
 2670 0b28 440F      		lsl r20
 2671 0b2a 551F      		rol r21
 2672               	.LVL208:
 2673               	.LM511:
 2674 0b2c C901      		movw r24,r18
 2675 0b2e 8427      		eor r24,r20
 2676 0b30 9527      		eor r25,r21
 2677 0b32 97FD      		sbrc r25,7
 2678 0b34 00C0      		rjmp .L422
 2679               	.LM512:
 2680 0b36 220F      		lsl r18
 2681 0b38 331F      		rol r19
 2682               	.LVL209:
 2683               	.L424:
 2684               	.LM513:
 2685 0b3a FA01      		movw r30,r20
 2686 0b3c EE0F      		lsl r30
 2687 0b3e FF1F      		rol r31
 2688               	.LVL210:
 2689               	.LM514:
 2690 0b40 C901      		movw r24,r18
 2691 0b42 8E27      		eor r24,r30
 2692 0b44 9F27      		eor r25,r31
 2693 0b46 97FD      		sbrc r25,7
 2694 0b48 00C0      		rjmp .L425
 2695               	.LM515:
 2696 0b4a A901      		movw r20,r18
 2697 0b4c 440F      		lsl r20
 2698 0b4e 551F      		rol r21
 2699               	.LVL211:
 2700               	.L427:
 2701               	.LM516:
 2702 0b50 9F01      		movw r18,r30
 2703 0b52 220F      		lsl r18
 2704 0b54 331F      		rol r19
 2705               	.LVL212:
 2706               	.LM517:
 2707 0b56 CA01      		movw r24,r20
 2708 0b58 8227      		eor r24,r18
 2709 0b5a 9327      		eor r25,r19
 2710 0b5c 97FD      		sbrc r25,7
 2711 0b5e 00C0      		rjmp .L428
 2712               	.LM518:
 2713 0b60 440F      		lsl r20
 2714 0b62 551F      		rol r21
 2715               	.LVL213:
 2716               	.L430:
 2717               	.LM519:
 2718 0b64 220F      		lsl r18
 2719 0b66 331F      		rol r19
 2720 0b68 2427      		eor r18,r20
 2721 0b6a 3527      		eor r19,r21
 2722 0b6c 37FD      		sbrc r19,7
 2723 0b6e 00C0      		rjmp .L530
 2724               	.LM520:
 2725 0b70 FA01      		movw r30,r20
 2726 0b72 EE0F      		lsl r30
 2727 0b74 FF1F      		rol r31
 2728               	.LVL214:
 2729               	.L433:
 2730               	.LBE218:
 2731               	.LBE217:
 2732               	.LM521:
 2733 0b76 7F5F      		subi r23,lo8(-(1))
 2734 0b78 2196      		adiw r28,1
 2735 0b7a 7617      		cp r23,r22
 2736 0b7c 01F0      		breq .+2
 2737 0b7e 00C0      		rjmp .L401
 2738               	.LVL215:
 2739               	.L399:
 2740               	.LBB220:
 2741               	.LBB221:
 2742               	.LM522:
 2743 0b80 C498      		cbi 56-0x20,4
 2744               	.LM523:
 2745               	/* #APP */
 2746 0b82 0000      		nop
 2747               	.LM524:
 2748 0b84 0000      		nop
 2749               	.LM525:
 2750 0b86 0000      		nop
 2751               	/* #NOAPP */
 2752 0b88 80E0      		ldi r24,lo8(0)
 2753 0b8a 90E0      		ldi r25,hi8(0)
 2754 0b8c A0E0      		ldi r26,hlo8(0)
 2755 0b8e B0E0      		ldi r27,hhi8(0)
 2756               	.LVL216:
 2757 0b90 00C0      		rjmp .L434
 2758               	.L435:
 2759               	.LM526:
 2760 0b92 813A      		cpi r24,lo8(100001)
 2761 0b94 26E8      		ldi r18,hi8(100001)
 2762 0b96 9207      		cpc r25,r18
 2763 0b98 21E0      		ldi r18,hlo8(100001)
 2764 0b9a A207      		cpc r26,r18
 2765 0b9c 20E0      		ldi r18,hhi8(100001)
 2766 0b9e B207      		cpc r27,r18
 2767               	.LVL217:
 2768 0ba0 01F0      		breq .L436
 2769 0ba2 0196      		adiw r24,1
 2770 0ba4 A11D      		adc r26,__zero_reg__
 2771 0ba6 B11D      		adc r27,__zero_reg__
 2772               	.LVL218:
 2773               	.L434:
 2774               	.LM527:
 2775 0ba8 B69B      		sbis 54-0x20,6
 2776 0baa 00C0      		rjmp .L435
 2777               	.L436:
 2778               	.LM528:
 2779 0bac C49A      		sbi 56-0x20,4
 2780               	.LBE221:
 2781               	.LBE220:
 2782               	.LM529:
 2783 0bae 9F01      		movw r18,r30
 2784               	.LVL219:
 2785 0bb0 3070      		andi r19,hi8(255)
 2786 0bb2 386B      		ori r19,hi8(-18432)
 2787               	.LBB222:
 2788               	.LBB223:
 2789               	.LM530:
 2790 0bb4 C498      		cbi 56-0x20,4
 2791               	.LM531:
 2792 0bb6 832F      		mov r24,r19
 2793 0bb8 9927      		clr r25
 2794               	.LVL220:
 2795 0bba 8FB9      		out 47-0x20,r24
 2796               	.L438:
 2797               	.LM532:
 2798 0bbc 779B      		sbis 46-0x20,7
 2799 0bbe 00C0      		rjmp .L438
 2800               	.LM533:
 2801 0bc0 8FB1      		in r24,47-0x20
 2802               	.LM534:
 2803 0bc2 2FB9      		out 47-0x20,r18
 2804               	.L440:
 2805               	.LM535:
 2806 0bc4 779B      		sbis 46-0x20,7
 2807 0bc6 00C0      		rjmp .L440
 2808               	.LM536:
 2809 0bc8 8FB1      		in r24,47-0x20
 2810               	.LM537:
 2811 0bca C49A      		sbi 56-0x20,4
 2812               	.LBE223:
 2813               	.LBE222:
 2814               	.LBB224:
 2815               	.LBB225:
 2816               	.LM538:
 2817 0bcc C498      		cbi 56-0x20,4
 2818               	.LM539:
 2819               	/* #APP */
 2820 0bce 0000      		nop
 2821               	.LM540:
 2822 0bd0 0000      		nop
 2823               	.LM541:
 2824 0bd2 0000      		nop
 2825               	/* #NOAPP */
 2826 0bd4 80E0      		ldi r24,lo8(0)
 2827 0bd6 90E0      		ldi r25,hi8(0)
 2828 0bd8 A0E0      		ldi r26,hlo8(0)
 2829 0bda B0E0      		ldi r27,hhi8(0)
 2830               	.LVL221:
 2831 0bdc 00C0      		rjmp .L442
 2832               	.L443:
 2833               	.LM542:
 2834 0bde 813A      		cpi r24,lo8(100001)
 2835 0be0 26E8      		ldi r18,hi8(100001)
 2836 0be2 9207      		cpc r25,r18
 2837 0be4 21E0      		ldi r18,hlo8(100001)
 2838 0be6 A207      		cpc r26,r18
 2839 0be8 20E0      		ldi r18,hhi8(100001)
 2840 0bea B207      		cpc r27,r18
 2841 0bec 01F0      		breq .L444
 2842 0bee 0196      		adiw r24,1
 2843 0bf0 A11D      		adc r26,__zero_reg__
 2844 0bf2 B11D      		adc r27,__zero_reg__
 2845               	.L442:
 2846               	.LM543:
 2847 0bf4 B69B      		sbis 54-0x20,6
 2848 0bf6 00C0      		rjmp .L443
 2849               	.L444:
 2850               	.LM544:
 2851 0bf8 C49A      		sbi 56-0x20,4
 2852               	.LBE225:
 2853               	.LBE224:
 2854               	.LM545:
 2855 0bfa 2F2F      		mov r18,r31
 2856 0bfc 3327      		clr r19
 2857 0bfe 386B      		ori r19,hi8(-18432)
 2858               	.LBB226:
 2859               	.LBB227:
 2860               	.LM546:
 2861 0c00 C498      		cbi 56-0x20,4
 2862               	.LM547:
 2863 0c02 832F      		mov r24,r19
 2864 0c04 9927      		clr r25
 2865               	.LVL222:
 2866 0c06 8FB9      		out 47-0x20,r24
 2867               	.L446:
 2868               	.LM548:
 2869 0c08 779B      		sbis 46-0x20,7
 2870 0c0a 00C0      		rjmp .L446
 2871               	.LM549:
 2872 0c0c 8FB1      		in r24,47-0x20
 2873               	.LM550:
 2874 0c0e 2FB9      		out 47-0x20,r18
 2875               	.L448:
 2876               	.LM551:
 2877 0c10 779B      		sbis 46-0x20,7
 2878 0c12 00C0      		rjmp .L448
 2879               	.LM552:
 2880 0c14 8FB1      		in r24,47-0x20
 2881               	.LM553:
 2882 0c16 C49A      		sbi 56-0x20,4
 2883               	.LBE227:
 2884               	.LBE226:
 2885               	.LBB228:
 2886               	.LBB229:
 2887               	.LM554:
 2888 0c18 C498      		cbi 56-0x20,4
 2889               	.LM555:
 2890               	/* #APP */
 2891 0c1a 0000      		nop
 2892               	.LM556:
 2893 0c1c 0000      		nop
 2894               	.LM557:
 2895 0c1e 0000      		nop
 2896               	/* #NOAPP */
 2897 0c20 80E0      		ldi r24,lo8(0)
 2898 0c22 90E0      		ldi r25,hi8(0)
 2899 0c24 A0E0      		ldi r26,hlo8(0)
 2900 0c26 B0E0      		ldi r27,hhi8(0)
 2901               	.LVL223:
 2902 0c28 00C0      		rjmp .L450
 2903               	.L451:
 2904               	.LM558:
 2905 0c2a 813A      		cpi r24,lo8(100001)
 2906 0c2c 26E8      		ldi r18,hi8(100001)
 2907 0c2e 9207      		cpc r25,r18
 2908 0c30 21E0      		ldi r18,hlo8(100001)
 2909 0c32 A207      		cpc r26,r18
 2910 0c34 20E0      		ldi r18,hhi8(100001)
 2911 0c36 B207      		cpc r27,r18
 2912 0c38 01F0      		breq .L452
 2913 0c3a 0196      		adiw r24,1
 2914 0c3c A11D      		adc r26,__zero_reg__
 2915 0c3e B11D      		adc r27,__zero_reg__
 2916               	.L450:
 2917               	.LM559:
 2918 0c40 B69B      		sbis 54-0x20,6
 2919 0c42 00C0      		rjmp .L451
 2920               	.L452:
 2921               	.LM560:
 2922 0c44 C49A      		sbi 56-0x20,4
 2923               	.LBE229:
 2924               	.LBE228:
 2925               	.LBB230:
 2926               	.LBB231:
 2927               	.LM561:
 2928 0c46 C498      		cbi 56-0x20,4
 2929               	.LM562:
 2930 0c48 88EB      		ldi r24,lo8(-72)
 2931               	.LVL224:
 2932 0c4a 8FB9      		out 47-0x20,r24
 2933               	.L454:
 2934               	.LM563:
 2935 0c4c 779B      		sbis 46-0x20,7
 2936 0c4e 00C0      		rjmp .L454
 2937               	.LM564:
 2938 0c50 8FB1      		in r24,47-0x20
 2939               	.LM565:
 2940 0c52 8AEA      		ldi r24,lo8(-86)
 2941 0c54 8FB9      		out 47-0x20,r24
 2942               	.L456:
 2943               	.LM566:
 2944 0c56 779B      		sbis 46-0x20,7
 2945 0c58 00C0      		rjmp .L456
 2946               	.LM567:
 2947 0c5a 8FB1      		in r24,47-0x20
 2948               	.LM568:
 2949 0c5c C49A      		sbi 56-0x20,4
 2950               	.LBE231:
 2951               	.LBE230:
 2952               	.LBB232:
 2953               	.LBB233:
 2954               	.LM569:
 2955 0c5e C498      		cbi 56-0x20,4
 2956               	.LM570:
 2957               	/* #APP */
 2958 0c60 0000      		nop
 2959               	.LM571:
 2960 0c62 0000      		nop
 2961               	.LM572:
 2962 0c64 0000      		nop
 2963               	/* #NOAPP */
 2964 0c66 80E0      		ldi r24,lo8(0)
 2965 0c68 90E0      		ldi r25,hi8(0)
 2966 0c6a A0E0      		ldi r26,hlo8(0)
 2967 0c6c B0E0      		ldi r27,hhi8(0)
 2968               	.LVL225:
 2969 0c6e 00C0      		rjmp .L458
 2970               	.L459:
 2971               	.LM573:
 2972 0c70 813A      		cpi r24,lo8(100001)
 2973 0c72 26E8      		ldi r18,hi8(100001)
 2974 0c74 9207      		cpc r25,r18
 2975 0c76 21E0      		ldi r18,hlo8(100001)
 2976 0c78 A207      		cpc r26,r18
 2977 0c7a 20E0      		ldi r18,hhi8(100001)
 2978 0c7c B207      		cpc r27,r18
 2979 0c7e 01F0      		breq .L460
 2980 0c80 0196      		adiw r24,1
 2981 0c82 A11D      		adc r26,__zero_reg__
 2982 0c84 B11D      		adc r27,__zero_reg__
 2983               	.L458:
 2984               	.LM574:
 2985 0c86 B69B      		sbis 54-0x20,6
 2986 0c88 00C0      		rjmp .L459
 2987               	.L460:
 2988               	.LM575:
 2989 0c8a C49A      		sbi 56-0x20,4
 2990               	.LBE233:
 2991               	.LBE232:
 2992               	.LBB234:
 2993               	.LBB235:
 2994               	.LM576:
 2995 0c8c C498      		cbi 56-0x20,4
 2996               	.LM577:
 2997 0c8e 88EB      		ldi r24,lo8(-72)
 2998               	.LVL226:
 2999 0c90 8FB9      		out 47-0x20,r24
 3000               	.L462:
 3001               	.LM578:
 3002 0c92 779B      		sbis 46-0x20,7
 3003 0c94 00C0      		rjmp .L462
 3004               	.LM579:
 3005 0c96 8FB1      		in r24,47-0x20
 3006               	.LM580:
 3007 0c98 8AEA      		ldi r24,lo8(-86)
 3008 0c9a 8FB9      		out 47-0x20,r24
 3009               	.L464:
 3010               	.LM581:
 3011 0c9c 779B      		sbis 46-0x20,7
 3012 0c9e 00C0      		rjmp .L464
 3013               	.LM582:
 3014 0ca0 8FB1      		in r24,47-0x20
 3015               	.LM583:
 3016 0ca2 C49A      		sbi 56-0x20,4
 3017               	.LBE235:
 3018               	.LBE234:
 3019               	.LBB236:
 3020               	.LBB237:
 3021               	.LM584:
 3022 0ca4 C498      		cbi 56-0x20,4
 3023               	.LM585:
 3024               	/* #APP */
 3025 0ca6 0000      		nop
 3026               	.LM586:
 3027 0ca8 0000      		nop
 3028               	.LM587:
 3029 0caa 0000      		nop
 3030               	/* #NOAPP */
 3031 0cac 80E0      		ldi r24,lo8(0)
 3032 0cae 90E0      		ldi r25,hi8(0)
 3033 0cb0 A0E0      		ldi r26,hlo8(0)
 3034 0cb2 B0E0      		ldi r27,hhi8(0)
 3035               	.LVL227:
 3036 0cb4 00C0      		rjmp .L466
 3037               	.L467:
 3038               	.LM588:
 3039 0cb6 813A      		cpi r24,lo8(100001)
 3040 0cb8 26E8      		ldi r18,hi8(100001)
 3041 0cba 9207      		cpc r25,r18
 3042 0cbc 21E0      		ldi r18,hlo8(100001)
 3043 0cbe A207      		cpc r26,r18
 3044 0cc0 20E0      		ldi r18,hhi8(100001)
 3045 0cc2 B207      		cpc r27,r18
 3046 0cc4 01F0      		breq .L468
 3047 0cc6 0196      		adiw r24,1
 3048 0cc8 A11D      		adc r26,__zero_reg__
 3049 0cca B11D      		adc r27,__zero_reg__
 3050               	.L466:
 3051               	.LM589:
 3052 0ccc B69B      		sbis 54-0x20,6
 3053 0cce 00C0      		rjmp .L467
 3054               	.L468:
 3055               	.LM590:
 3056 0cd0 C49A      		sbi 56-0x20,4
 3057               	.LBE237:
 3058               	.LBE236:
 3059               	.LBB238:
 3060               	.LBB239:
 3061               	.LM591:
 3062 0cd2 C498      		cbi 56-0x20,4
 3063               	.LM592:
 3064 0cd4 82E8      		ldi r24,lo8(-126)
 3065               	.LVL228:
 3066 0cd6 8FB9      		out 47-0x20,r24
 3067               	.L470:
 3068               	.LM593:
 3069 0cd8 779B      		sbis 46-0x20,7
 3070 0cda 00C0      		rjmp .L470
 3071               	.LM594:
 3072 0cdc 8FB1      		in r24,47-0x20
 3073               	.LM595:
 3074 0cde 88E0      		ldi r24,lo8(8)
 3075 0ce0 8FB9      		out 47-0x20,r24
 3076               	.L472:
 3077               	.LM596:
 3078 0ce2 779B      		sbis 46-0x20,7
 3079 0ce4 00C0      		rjmp .L472
 3080 0ce6 00C0      		rjmp .L538
 3081               	.LVL229:
 3082               	.L530:
 3083               	.LBE239:
 3084               	.LBE238:
 3085               	.LBB241:
 3086               	.LBB219:
 3087               	.LM597:
 3088 0ce8 FA01      		movw r30,r20
 3089 0cea EE0F      		lsl r30
 3090 0cec FF1F      		rol r31
 3091               	.LVL230:
 3092 0cee 81E2      		ldi r24,lo8(4129)
 3093 0cf0 90E1      		ldi r25,hi8(4129)
 3094 0cf2 E827      		eor r30,r24
 3095 0cf4 F927      		eor r31,r25
 3096 0cf6 00C0      		rjmp .L433
 3097               	.LVL231:
 3098               	.L428:
 3099 0cf8 440F      		lsl r20
 3100 0cfa 551F      		rol r21
 3101               	.LVL232:
 3102 0cfc 81E2      		ldi r24,lo8(4129)
 3103 0cfe 90E1      		ldi r25,hi8(4129)
 3104 0d00 4827      		eor r20,r24
 3105 0d02 5927      		eor r21,r25
 3106 0d04 00C0      		rjmp .L430
 3107               	.LVL233:
 3108               	.L425:
 3109 0d06 A901      		movw r20,r18
 3110 0d08 440F      		lsl r20
 3111 0d0a 551F      		rol r21
 3112               	.LVL234:
 3113 0d0c 81E2      		ldi r24,lo8(4129)
 3114 0d0e 90E1      		ldi r25,hi8(4129)
 3115 0d10 4827      		eor r20,r24
 3116 0d12 5927      		eor r21,r25
 3117 0d14 00C0      		rjmp .L427
 3118               	.LVL235:
 3119               	.L422:
 3120 0d16 220F      		lsl r18
 3121 0d18 331F      		rol r19
 3122               	.LVL236:
 3123 0d1a 81E2      		ldi r24,lo8(4129)
 3124 0d1c 90E1      		ldi r25,hi8(4129)
 3125 0d1e 2827      		eor r18,r24
 3126 0d20 3927      		eor r19,r25
 3127 0d22 00C0      		rjmp .L424
 3128               	.L419:
 3129 0d24 220F      		lsl r18
 3130 0d26 331F      		rol r19
 3131               	.LVL237:
 3132 0d28 81E2      		ldi r24,lo8(4129)
 3133 0d2a 90E1      		ldi r25,hi8(4129)
 3134 0d2c 2827      		eor r18,r24
 3135 0d2e 3927      		eor r19,r25
 3136 0d30 00C0      		rjmp .L421
 3137               	.L416:
 3138 0d32 220F      		lsl r18
 3139 0d34 331F      		rol r19
 3140               	.LVL238:
 3141 0d36 81E2      		ldi r24,lo8(4129)
 3142 0d38 90E1      		ldi r25,hi8(4129)
 3143 0d3a 2827      		eor r18,r24
 3144 0d3c 3927      		eor r19,r25
 3145 0d3e 00C0      		rjmp .L418
 3146               	.L413:
 3147 0d40 220F      		lsl r18
 3148 0d42 331F      		rol r19
 3149               	.LVL239:
 3150 0d44 81E2      		ldi r24,lo8(4129)
 3151 0d46 90E1      		ldi r25,hi8(4129)
 3152 0d48 2827      		eor r18,r24
 3153 0d4a 3927      		eor r19,r25
 3154 0d4c 00C0      		rjmp .L415
 3155               	.LVL240:
 3156               	.L410:
 3157 0d4e 9F01      		movw r18,r30
 3158 0d50 220F      		lsl r18
 3159 0d52 331F      		rol r19
 3160               	.LVL241:
 3161 0d54 81E2      		ldi r24,lo8(4129)
 3162 0d56 90E1      		ldi r25,hi8(4129)
 3163 0d58 2827      		eor r18,r24
 3164 0d5a 3927      		eor r19,r25
 3165 0d5c 00C0      		rjmp .L412
 3166               	.LVL242:
 3167               	.L528:
 3168               	.LBE219:
 3169               	.LBE241:
 3170               	.LBB242:
 3171               	.LBB212:
 3172               	.LM598:
 3173 0d5e 21E2      		ldi r18,lo8(4129)
 3174 0d60 30E1      		ldi r19,hi8(4129)
 3175               	.LVL243:
 3176               	.LM599:
 3177 0d62 AC01      		movw r20,r24
 3178 0d64 440F      		lsl r20
 3179 0d66 551F      		rol r21
 3180               	.LVL244:
 3181               	.LM600:
 3182 0d68 C901      		movw r24,r18
 3183 0d6a 8427      		eor r24,r20
 3184 0d6c 9527      		eor r25,r21
 3185 0d6e 97FF      		sbrs r25,7
 3186 0d70 00C0      		rjmp .L532
 3187               	.L378:
 3188               	.LM601:
 3189 0d72 220F      		lsl r18
 3190 0d74 331F      		rol r19
 3191               	.LVL245:
 3192 0d76 2162      		ori r18,lo8(4129)
 3193 0d78 3061      		ori r19,hi8(4129)
 3194               	.LM602:
 3195 0d7a 440F      		lsl r20
 3196 0d7c 551F      		rol r21
 3197               	.LVL246:
 3198               	.LM603:
 3199 0d7e C901      		movw r24,r18
 3200 0d80 8427      		eor r24,r20
 3201 0d82 9527      		eor r25,r21
 3202 0d84 97FF      		sbrs r25,7
 3203 0d86 00C0      		rjmp .L533
 3204               	.L381:
 3205               	.LM604:
 3206 0d88 220F      		lsl r18
 3207 0d8a 331F      		rol r19
 3208               	.LVL247:
 3209 0d8c 81E2      		ldi r24,lo8(4129)
 3210 0d8e 90E1      		ldi r25,hi8(4129)
 3211 0d90 2827      		eor r18,r24
 3212 0d92 3927      		eor r19,r25
 3213               	.LM605:
 3214 0d94 440F      		lsl r20
 3215 0d96 551F      		rol r21
 3216               	.LVL248:
 3217               	.LM606:
 3218 0d98 C901      		movw r24,r18
 3219 0d9a 8427      		eor r24,r20
 3220 0d9c 9527      		eor r25,r21
 3221 0d9e 97FF      		sbrs r25,7
 3222 0da0 00C0      		rjmp .L534
 3223               	.L384:
 3224               	.LM607:
 3225 0da2 220F      		lsl r18
 3226 0da4 331F      		rol r19
 3227               	.LVL249:
 3228 0da6 81E2      		ldi r24,lo8(4129)
 3229 0da8 90E1      		ldi r25,hi8(4129)
 3230 0daa 2827      		eor r18,r24
 3231 0dac 3927      		eor r19,r25
 3232               	.LM608:
 3233 0dae 440F      		lsl r20
 3234 0db0 551F      		rol r21
 3235               	.LVL250:
 3236               	.LM609:
 3237 0db2 C901      		movw r24,r18
 3238 0db4 8427      		eor r24,r20
 3239 0db6 9527      		eor r25,r21
 3240 0db8 97FF      		sbrs r25,7
 3241 0dba 00C0      		rjmp .L535
 3242               	.L387:
 3243               	.LM610:
 3244 0dbc 220F      		lsl r18
 3245 0dbe 331F      		rol r19
 3246               	.LVL251:
 3247 0dc0 81E2      		ldi r24,lo8(4129)
 3248 0dc2 90E1      		ldi r25,hi8(4129)
 3249 0dc4 2827      		eor r18,r24
 3250 0dc6 3927      		eor r19,r25
 3251               	.LM611:
 3252 0dc8 FA01      		movw r30,r20
 3253 0dca EE0F      		lsl r30
 3254 0dcc FF1F      		rol r31
 3255               	.LVL252:
 3256               	.LM612:
 3257 0dce C901      		movw r24,r18
 3258 0dd0 8E27      		eor r24,r30
 3259 0dd2 9F27      		eor r25,r31
 3260 0dd4 97FF      		sbrs r25,7
 3261 0dd6 00C0      		rjmp .L536
 3262               	.L390:
 3263               	.LM613:
 3264 0dd8 A901      		movw r20,r18
 3265 0dda 440F      		lsl r20
 3266 0ddc 551F      		rol r21
 3267               	.LVL253:
 3268 0dde 81E2      		ldi r24,lo8(4129)
 3269 0de0 90E1      		ldi r25,hi8(4129)
 3270 0de2 4827      		eor r20,r24
 3271 0de4 5927      		eor r21,r25
 3272               	.LM614:
 3273 0de6 9F01      		movw r18,r30
 3274 0de8 220F      		lsl r18
 3275 0dea 331F      		rol r19
 3276               	.LVL254:
 3277               	.LM615:
 3278 0dec CA01      		movw r24,r20
 3279 0dee 8227      		eor r24,r18
 3280 0df0 9327      		eor r25,r19
 3281 0df2 97FF      		sbrs r25,7
 3282 0df4 00C0      		rjmp .L537
 3283               	.L393:
 3284               	.LM616:
 3285 0df6 440F      		lsl r20
 3286 0df8 551F      		rol r21
 3287               	.LVL255:
 3288 0dfa 81E2      		ldi r24,lo8(4129)
 3289 0dfc 90E1      		ldi r25,hi8(4129)
 3290 0dfe 4827      		eor r20,r24
 3291 0e00 5927      		eor r21,r25
 3292               	.LM617:
 3293 0e02 220F      		lsl r18
 3294 0e04 331F      		rol r19
 3295 0e06 2427      		eor r18,r20
 3296 0e08 3527      		eor r19,r21
 3297 0e0a 37FF      		sbrs r19,7
 3298 0e0c 00C0      		rjmp .L396
 3299               	.L529:
 3300               	.LM618:
 3301 0e0e FA01      		movw r30,r20
 3302 0e10 EE0F      		lsl r30
 3303 0e12 FF1F      		rol r31
 3304               	.LVL256:
 3305 0e14 81E2      		ldi r24,lo8(4129)
 3306 0e16 90E1      		ldi r25,hi8(4129)
 3307 0e18 E827      		eor r30,r24
 3308 0e1a F927      		eor r31,r25
 3309 0e1c 00C0      		rjmp .L398
 3310               	.LVL257:
 3311               	.L538:
 3312               	.LBE212:
 3313               	.LBE242:
 3314               	.LBB243:
 3315               	.LBB240:
 3316               	.LM619:
 3317 0e1e 8FB1      		in r24,47-0x20
 3318               	.LM620:
 3319 0e20 C49A      		sbi 56-0x20,4
 3320               	.LBE240:
 3321               	.LBE243:
 3322               	/* epilogue: frame size=0 */
 3323 0e22 DF91      		pop r29
 3324 0e24 CF91      		pop r28
 3325 0e26 0895      		ret
 3326               	/* epilogue end (size=3) */
 3327               	/* function rf12_txdata size 805 (800) */
 3328               	.LFE14:
 3426               	.Letext0:
DEFINED SYMBOLS
                            *ABS*:00000000 rf12.c
C:\DOKUME~1\Olaf\LOKALE~1\Temp/ccE8T91C.s:2      *ABS*:0000003f __SREG__
C:\DOKUME~1\Olaf\LOKALE~1\Temp/ccE8T91C.s:3      *ABS*:0000003e __SP_H__
C:\DOKUME~1\Olaf\LOKALE~1\Temp/ccE8T91C.s:4      *ABS*:0000003d __SP_L__
C:\DOKUME~1\Olaf\LOKALE~1\Temp/ccE8T91C.s:5      *ABS*:00000000 __tmp_reg__
C:\DOKUME~1\Olaf\LOKALE~1\Temp/ccE8T91C.s:6      *ABS*:00000001 __zero_reg__
C:\DOKUME~1\Olaf\LOKALE~1\Temp/ccE8T91C.s:19     .text:00000000 crcUpdate
C:\DOKUME~1\Olaf\LOKALE~1\Temp/ccE8T91C.s:296    .text:00000158 rf12_trans
C:\DOKUME~1\Olaf\LOKALE~1\Temp/ccE8T91C.s:344    .text:0000017e rf12_ready
C:\DOKUME~1\Olaf\LOKALE~1\Temp/ccE8T91C.s:393    .text:000001ae rf12_setpower
C:\DOKUME~1\Olaf\LOKALE~1\Temp/ccE8T91C.s:453    .text:000001e8 rf12_setbaud
C:\DOKUME~1\Olaf\LOKALE~1\Temp/ccE8T91C.s:566    .text:0000025e rf12_setfreq
C:\DOKUME~1\Olaf\LOKALE~1\Temp/ccE8T91C.s:644    .text:000002a2 rf12_setbandwidth
C:\DOKUME~1\Olaf\LOKALE~1\Temp/ccE8T91C.s:719    .text:000002f6 rf12_init
C:\DOKUME~1\Olaf\LOKALE~1\Temp/ccE8T91C.s:1019   .text:00000400 rf12_rxdata
C:\DOKUME~1\Olaf\LOKALE~1\Temp/ccE8T91C.s:1951   .text:00000828 rf12_txdata

UNDEFINED SYMBOLS
__do_copy_data
__do_clear_bss
__divmodsi4
__udivmodsi4
