   1               		.file	"rf12.c"
   2               		.arch atmega16
   3               	__SREG__ = 0x3f
   4               	__SP_H__ = 0x3e
   5               	__SP_L__ = 0x3d
   6               	__tmp_reg__ = 0
   7               	__zero_reg__ = 1
   8               		.global __do_copy_data
   9               		.global __do_clear_bss
  17               	.Ltext0:
  18               	.global	spi_init
  20               	spi_init:
  21               	.LFB6:
  22               	.LM1:
  23               	/* prologue: frame size=0 */
  24               	/* prologue end (size=0) */
  25               	.LM2:
  26 0000 37B3      		in r19,55-0x20
  27 0002 306B      		ori r19,lo8(-80)
  28 0004 37BB      		out 55-0x20,r19
  29               	.LM3:
  30 0006 28B3      		in r18,56-0x20
  31 0008 2F75      		andi r18,lo8(95)
  32 000a 28BB      		out 56-0x20,r18
  33               	.LM4:
  34 000c C49A      		sbi 56-0x20,4
  35               	.LM5:
  36 000e 81E5      		ldi r24,lo8(81)
  37 0010 8DB9      		out 45-0x20,r24
  38               	/* epilogue: frame size=0 */
  39 0012 0895      		ret
  40               	/* epilogue end (size=1) */
  41               	/* function spi_init size 10 (9) */
  42               	.LFE6:
  44               	.global	spi_putc
  46               	spi_putc:
  47               	.LFB7:
  48               	.LM6:
  49               	/* prologue: frame size=0 */
  50               	/* prologue end (size=0) */
  51               	.LM7:
  52 0014 8FB9      		out 47-0x20,r24
  53               	.L3:
  54               	.LM8:
  55 0016 779B      		sbis 46-0x20,7
  56 0018 FECF      		rjmp .L3
  57               	.LM9:
  58 001a 8FB1      		in r24,47-0x20
  59               	.LM10:
  60 001c 9927      		clr r25
  61               	/* epilogue: frame size=0 */
  62 001e 0895      		ret
  63               	/* epilogue end (size=1) */
  64               	/* function spi_putc size 6 (5) */
  65               	.LFE7:
  67               	.global	rf12_trans
  69               	rf12_trans:
  70               	.LFB9:
  71               	.LM11:
  72               	/* prologue: frame size=0 */
  73               	/* prologue end (size=0) */
  74 0020 AC01      		movw r20,r24
  75               	.LM12:
  76 0022 C498      		cbi 56-0x20,4
  77               	.LBB2:
  78               	.LBB3:
  79               	.LM13:
  80 0024 1FB8      		out 47-0x20,__zero_reg__
  81               	.L10:
  82               	.LM14:
  83 0026 779B      		sbis 46-0x20,7
  84 0028 FECF      		rjmp .L10
  85               	.LM15:
  86 002a 8FB1      		in r24,47-0x20
  87               	.LBE3:
  88               	.LBE2:
  89               	.LM16:
  90 002c 9927      		clr r25
  91 002e 382F      		mov r19,r24
  92 0030 2227      		clr r18
  93               	.LBB4:
  94               	.LBB5:
  95               	.LM17:
  96 0032 4FB9      		out 47-0x20,r20
  97               	.L14:
  98               	.LM18:
  99 0034 779B      		sbis 46-0x20,7
 100 0036 FECF      		rjmp .L14
 101               	.LM19:
 102 0038 8FB1      		in r24,47-0x20
 103               	.LBE5:
 104               	.LBE4:
 105               	.LM20:
 106 003a 9927      		clr r25
 107               	.LM21:
 108 003c C49A      		sbi 56-0x20,4
 109               	.LM22:
 110 003e 822B      		or r24,r18
 111 0040 932B      		or r25,r19
 112               	/* epilogue: frame size=0 */
 113 0042 0895      		ret
 114               	/* epilogue end (size=1) */
 115               	/* function rf12_trans size 18 (17) */
 116               	.LFE9:
 118               	.global	rf12_setfreq
 120               	rf12_setfreq:
 121               	.LFB11:
 122               	.LM23:
 123               	/* prologue: frame size=0 */
 124               	/* prologue end (size=0) */
 125 0044 8036      		cpi r24,96
 126 0046 9105      		cpc r25,__zero_reg__
 127 0048 68F4      		brsh .L23
 128               	.LM24:
 129 004a 80E6      		ldi r24,lo8(96)
 130 004c 90E0      		ldi r25,hi8(96)
 131               	.L24:
 132               	.LBB6:
 133               	.LM25:
 134 004e 9C01      		movw r18,r24
 135 0050 306A      		ori r19,hi8(-24576)
 136               	.LBB7:
 137               	.LM26:
 138 0052 C498      		cbi 56-0x20,4
 139               	.LBB8:
 140               	.LBB9:
 141               	.LM27:
 142 0054 1FB8      		out 47-0x20,__zero_reg__
 143               	.L26:
 144               	.LM28:
 145 0056 779B      		sbis 46-0x20,7
 146 0058 FECF      		rjmp .L26
 147               	.LM29:
 148 005a 8FB1      		in r24,47-0x20
 149               	.LBE9:
 150               	.LBE8:
 151               	.LBB10:
 152               	.LBB11:
 153               	.LM30:
 154 005c 2FB9      		out 47-0x20,r18
 155               	.L30:
 156               	.LM31:
 157 005e 779B      		sbis 46-0x20,7
 158 0060 FECF      		rjmp .L30
 159 0062 07C0      		rjmp .L39
 160               	.L23:
 161               	.LBE11:
 162               	.LBE10:
 163               	.LBE7:
 164               	.LBE6:
 165               	.LM32:
 166 0064 2FE0      		ldi r18,hi8(3904)
 167 0066 8034      		cpi r24,lo8(3904)
 168 0068 9207      		cpc r25,r18
 169 006a 88F3      		brlo .L24
 170               	.LM33:
 171 006c 8FE3      		ldi r24,lo8(3903)
 172 006e 9FE0      		ldi r25,hi8(3903)
 173 0070 EECF      		rjmp .L24
 174               	.L39:
 175               	.LBB12:
 176               	.LBB13:
 177               	.LBB14:
 178               	.LBB15:
 179               	.LM34:
 180 0072 8FB1      		in r24,47-0x20
 181               	.LBE15:
 182               	.LBE14:
 183               	.LM35:
 184 0074 C49A      		sbi 56-0x20,4
 185               	.LBE13:
 186               	.LBE12:
 187               	/* epilogue: frame size=0 */
 188 0076 0895      		ret
 189               	/* epilogue end (size=1) */
 190               	/* function rf12_setfreq size 26 (25) */
 191               	.LFE11:
 193               	.global	rf12_setbandwidth
 195               	rf12_setbandwidth:
 196               	.LFB10:
 197               	.LM36:
 198               	/* prologue: frame size=0 */
 199               	/* prologue end (size=0) */
 200 0078 962F      		mov r25,r22
 201 007a 242F      		mov r18,r20
 202               	.LBB16:
 203               	.LM37:
 204 007c 482F      		mov r20,r24
 205 007e 5527      		clr r21
 206 0080 4770      		andi r20,lo8(7)
 207 0082 5070      		andi r21,hi8(7)
 208 0084 440F      		lsl r20
 209 0086 551F      		rol r21
 210 0088 4295      		swap r20
 211 008a 5295      		swap r21
 212 008c 507F      		andi r21,0xf0
 213 008e 5427      		eor r21,r20
 214 0090 407F      		andi r20,0xf0
 215 0092 5427      		eor r21,r20
 216 0094 692F      		mov r22,r25
 217 0096 7727      		clr r23
 218 0098 6370      		andi r22,lo8(3)
 219 009a 7070      		andi r23,hi8(3)
 220 009c 660F      		lsl r22
 221 009e 771F      		rol r23
 222 00a0 660F      		lsl r22
 223 00a2 771F      		rol r23
 224 00a4 660F      		lsl r22
 225 00a6 771F      		rol r23
 226 00a8 462B      		or r20,r22
 227 00aa 572B      		or r21,r23
 228 00ac 822F      		mov r24,r18
 229 00ae 9927      		clr r25
 230 00b0 8770      		andi r24,lo8(7)
 231 00b2 9070      		andi r25,hi8(7)
 232 00b4 482B      		or r20,r24
 233 00b6 592B      		or r21,r25
 234 00b8 5469      		ori r21,hi8(-27648)
 235               	.LBB17:
 236               	.LM38:
 237 00ba C498      		cbi 56-0x20,4
 238               	.LBB18:
 239               	.LBB19:
 240               	.LM39:
 241 00bc 1FB8      		out 47-0x20,__zero_reg__
 242               	.L41:
 243               	.LM40:
 244 00be 779B      		sbis 46-0x20,7
 245 00c0 FECF      		rjmp .L41
 246               	.LM41:
 247 00c2 8FB1      		in r24,47-0x20
 248               	.LBE19:
 249               	.LBE18:
 250               	.LBB20:
 251               	.LBB21:
 252               	.LM42:
 253 00c4 4FB9      		out 47-0x20,r20
 254               	.L45:
 255               	.LM43:
 256 00c6 779B      		sbis 46-0x20,7
 257 00c8 FECF      		rjmp .L45
 258               	.LM44:
 259 00ca 8FB1      		in r24,47-0x20
 260               	.LBE21:
 261               	.LBE20:
 262               	.LM45:
 263 00cc C49A      		sbi 56-0x20,4
 264               	.LBE17:
 265               	.LBE16:
 266               	/* epilogue: frame size=0 */
 267 00ce 0895      		ret
 268               	/* epilogue end (size=1) */
 269               	/* function rf12_setbandwidth size 44 (43) */
 270               	.LFE10:
 272               	.global	rf12_setbaud
 274               	rf12_setbaud:
 275               	.LFB12:
 276               	.LM46:
 277               	/* prologue: frame size=0 */
 278               	/* prologue end (size=0) */
 279               	.LM47:
 280 00d0 22E0      		ldi r18,hi8(663)
 281 00d2 8739      		cpi r24,lo8(663)
 282 00d4 9207      		cpc r25,r18
 283 00d6 90F1      		brlo .L54
 284               	.LM48:
 285 00d8 25E1      		ldi r18,hi8(5400)
 286 00da 8831      		cpi r24,lo8(5400)
 287 00dc 9207      		cpc r25,r18
 288 00de C0F4      		brsh .L56
 289               	.LBB22:
 290               	.LM49:
 291 00e0 9C01      		movw r18,r24
 292 00e2 4427      		clr r20
 293 00e4 5527      		clr r21
 294 00e6 60E6      		ldi r22,lo8(43104)
 295 00e8 78EA      		ldi r23,hi8(43104)
 296 00ea 80E0      		ldi r24,hlo8(43104)
 297 00ec 90E0      		ldi r25,hhi8(43104)
 298 00ee 0E94 0000 		call __divmodsi4
 299 00f2 2150      		subi r18,lo8(-(-1))
 300 00f4 3040      		sbci r19,hi8(-(-1))
 301 00f6 2068      		ori r18,lo8(-14720)
 302 00f8 366C      		ori r19,hi8(-14720)
 303               	.LBB23:
 304               	.LM50:
 305 00fa C498      		cbi 56-0x20,4
 306               	.LBB24:
 307               	.LBB25:
 308               	.LM51:
 309 00fc 1FB8      		out 47-0x20,__zero_reg__
 310               	.L57:
 311               	.LM52:
 312 00fe 779B      		sbis 46-0x20,7
 313 0100 FECF      		rjmp .L57
 314               	.LM53:
 315 0102 8FB1      		in r24,47-0x20
 316               	.LBE25:
 317               	.LBE24:
 318               	.LBB26:
 319               	.LBB27:
 320               	.LM54:
 321 0104 2FB9      		out 47-0x20,r18
 322               	.L61:
 323               	.LM55:
 324 0106 779B      		sbis 46-0x20,7
 325 0108 FECF      		rjmp .L61
 326               	.LM56:
 327 010a 8FB1      		in r24,47-0x20
 328               	.LBE27:
 329               	.LBE26:
 330               	.LM57:
 331 010c C49A      		sbi 56-0x20,4
 332 010e 0895      		ret
 333               	.L56:
 334               	.LBE23:
 335               	.LBE22:
 336               	.LBB28:
 337               	.LM58:
 338 0110 9C01      		movw r18,r24
 339 0112 4427      		clr r20
 340 0114 5527      		clr r21
 341 0116 6CEF      		ldi r22,lo8(344828)
 342 0118 72E4      		ldi r23,hi8(344828)
 343 011a 85E0      		ldi r24,hlo8(344828)
 344 011c 90E0      		ldi r25,hhi8(344828)
 345 011e 0E94 0000 		call __udivmodsi4
 346 0122 2150      		subi r18,lo8(-(-1))
 347 0124 3040      		sbci r19,hi8(-(-1))
 348 0126 366C      		ori r19,hi8(-14848)
 349               	.LBB29:
 350               	.LM59:
 351 0128 C498      		cbi 56-0x20,4
 352               	.LBB30:
 353               	.LBB31:
 354               	.LM60:
 355 012a 1FB8      		out 47-0x20,__zero_reg__
 356               	.L67:
 357               	.LM61:
 358 012c 779B      		sbis 46-0x20,7
 359 012e FECF      		rjmp .L67
 360               	.LM62:
 361 0130 8FB1      		in r24,47-0x20
 362               	.LBE31:
 363               	.LBE30:
 364               	.LBB32:
 365               	.LBB33:
 366               	.LM63:
 367 0132 2FB9      		out 47-0x20,r18
 368               	.L71:
 369               	.LM64:
 370 0134 779B      		sbis 46-0x20,7
 371 0136 FECF      		rjmp .L71
 372               	.LM65:
 373 0138 8FB1      		in r24,47-0x20
 374               	.LBE33:
 375               	.LBE32:
 376               	.LM66:
 377 013a C49A      		sbi 56-0x20,4
 378               	.L54:
 379 013c 0895      		ret
 380               	.LBE29:
 381               	.LBE28:
 382               	/* epilogue: frame size=0 */
 383               	/* epilogue: noreturn */
 384               	/* epilogue end (size=0) */
 385               	/* function rf12_setbaud size 55 (55) */
 386               	.LFE12:
 388               	.global	rf12_setpower
 390               	rf12_setpower:
 391               	.LFB13:
 392               	.LM67:
 393               	/* prologue: frame size=0 */
 394               	/* prologue end (size=0) */
 395               	.LBB34:
 396               	.LM68:
 397 013e 282F      		mov r18,r24
 398 0140 3327      		clr r19
 399 0142 2770      		andi r18,lo8(7)
 400 0144 3070      		andi r19,hi8(7)
 401 0146 862F      		mov r24,r22
 402 0148 9927      		clr r25
 403 014a 8F70      		andi r24,lo8(15)
 404 014c 9070      		andi r25,hi8(15)
 405 014e 8295      		swap r24
 406 0150 9295      		swap r25
 407 0152 907F      		andi r25,0xf0
 408 0154 9827      		eor r25,r24
 409 0156 807F      		andi r24,0xf0
 410 0158 9827      		eor r25,r24
 411 015a 282B      		or r18,r24
 412 015c 392B      		or r19,r25
 413 015e 3869      		ori r19,hi8(-26624)
 414               	.LBB35:
 415               	.LM69:
 416 0160 C498      		cbi 56-0x20,4
 417               	.LBB36:
 418               	.LBB37:
 419               	.LM70:
 420 0162 1FB8      		out 47-0x20,__zero_reg__
 421               	.L85:
 422               	.LM71:
 423 0164 779B      		sbis 46-0x20,7
 424 0166 FECF      		rjmp .L85
 425               	.LM72:
 426 0168 8FB1      		in r24,47-0x20
 427               	.LBE37:
 428               	.LBE36:
 429               	.LBB38:
 430               	.LBB39:
 431               	.LM73:
 432 016a 2FB9      		out 47-0x20,r18
 433               	.L89:
 434               	.LM74:
 435 016c 779B      		sbis 46-0x20,7
 436 016e FECF      		rjmp .L89
 437               	.LM75:
 438 0170 8FB1      		in r24,47-0x20
 439               	.LBE39:
 440               	.LBE38:
 441               	.LM76:
 442 0172 C49A      		sbi 56-0x20,4
 443               	.LBE35:
 444               	.LBE34:
 445               	/* epilogue: frame size=0 */
 446 0174 0895      		ret
 447               	/* epilogue end (size=1) */
 448               	/* function rf12_setpower size 28 (27) */
 449               	.LFE13:
 451               	.global	rf12_init
 453               	rf12_init:
 454               	.LFB8:
 455               	.LM77:
 456               	/* prologue: frame size=0 */
 457 0176 CF93      		push r28
 458 0178 DF93      		push r29
 459               	/* prologue end (size=2) */
 460               	.LBB40:
 461               	.LBB41:
 462               	.LM78:
 463 017a 37B3      		in r19,55-0x20
 464 017c 306B      		ori r19,lo8(-80)
 465 017e 37BB      		out 55-0x20,r19
 466               	.LM79:
 467 0180 28B3      		in r18,56-0x20
 468 0182 2F75      		andi r18,lo8(95)
 469 0184 28BB      		out 56-0x20,r18
 470               	.LM80:
 471 0186 C49A      		sbi 56-0x20,4
 472               	.LM81:
 473 0188 81E5      		ldi r24,lo8(81)
 474 018a 8DB9      		out 45-0x20,r24
 475 018c AFEF      		ldi r26,lo8(27647)
 476 018e BBE6      		ldi r27,hi8(27647)
 477 0190 C0E0      		ldi r28,hlo8(27647)
 478 0192 D0E0      		ldi r29,hhi8(27647)
 479 0194 29E0      		ldi r18,lo8(9)
 480               	.L111:
 481               	.LBE41:
 482               	.LBE40:
 483               	.LBB42:
 484               	.LBB43:
 485               	.LBB44:
 486               	.LBB45:
 487               	.LBB46:
 488               	.LM82:
 489 0196 ED01      		movw r28,r26
 490               	/* #APP */
 491 0198 2197      		1: sbiw r28,1
 492 019a F1F7      		brne 1b
 493               	/* #NOAPP */
 494               	.LBE46:
 495               	.LBE45:
 496               	.LBE44:
 497               	.LBE43:
 498               	.LM83:
 499 019c 2150      		subi r18,lo8(-(-1))
 500 019e 27FF      		sbrs r18,7
 501 01a0 FACF      		rjmp .L111
 502               	.LBE42:
 503               	.LBB47:
 504               	.LBB48:
 505               	.LM84:
 506 01a2 C498      		cbi 56-0x20,4
 507               	.LBB49:
 508               	.LBB50:
 509               	.LM85:
 510 01a4 1FB8      		out 47-0x20,__zero_reg__
 511               	.L112:
 512               	.LM86:
 513 01a6 779B      		sbis 46-0x20,7
 514 01a8 FECF      		rjmp .L112
 515               	.LM87:
 516 01aa 8FB1      		in r24,47-0x20
 517               	.LBE50:
 518               	.LBE49:
 519               	.LBB51:
 520               	.LBB52:
 521               	.LM88:
 522 01ac 80EE      		ldi r24,lo8(-16160)
 523 01ae 90EC      		ldi r25,hi8(-16160)
 524 01b0 8FB9      		out 47-0x20,r24
 525               	.L116:
 526               	.LM89:
 527 01b2 779B      		sbis 46-0x20,7
 528 01b4 FECF      		rjmp .L116
 529               	.LM90:
 530 01b6 8FB1      		in r24,47-0x20
 531               	.LBE52:
 532               	.LBE51:
 533               	.LM91:
 534 01b8 C49A      		sbi 56-0x20,4
 535               	.LBE48:
 536               	.LBE47:
 537               	.LBB53:
 538               	.LBB54:
 539               	.LM92:
 540 01ba C498      		cbi 56-0x20,4
 541               	.LBB55:
 542               	.LBB56:
 543               	.LM93:
 544 01bc 1FB8      		out 47-0x20,__zero_reg__
 545               	.L121:
 546               	.LM94:
 547 01be 779B      		sbis 46-0x20,7
 548 01c0 FECF      		rjmp .L121
 549               	.LM95:
 550 01c2 8FB1      		in r24,47-0x20
 551               	.LBE56:
 552               	.LBE55:
 553               	.LBB57:
 554               	.LBB58:
 555               	.LM96:
 556 01c4 87ED      		ldi r24,lo8(-32553)
 557 01c6 90E8      		ldi r25,hi8(-32553)
 558 01c8 8FB9      		out 47-0x20,r24
 559               	.L125:
 560               	.LM97:
 561 01ca 779B      		sbis 46-0x20,7
 562 01cc FECF      		rjmp .L125
 563               	.LM98:
 564 01ce 8FB1      		in r24,47-0x20
 565               	.LBE58:
 566               	.LBE57:
 567               	.LM99:
 568 01d0 C49A      		sbi 56-0x20,4
 569               	.LBE54:
 570               	.LBE53:
 571               	.LBB59:
 572               	.LBB60:
 573               	.LM100:
 574 01d2 C498      		cbi 56-0x20,4
 575               	.LBB61:
 576               	.LBB62:
 577               	.LM101:
 578 01d4 1FB8      		out 47-0x20,__zero_reg__
 579               	.L130:
 580               	.LM102:
 581 01d6 779B      		sbis 46-0x20,7
 582 01d8 FECF      		rjmp .L130
 583               	.LM103:
 584 01da 8FB1      		in r24,47-0x20
 585               	.LBE62:
 586               	.LBE61:
 587               	.LBB63:
 588               	.LBB64:
 589               	.LM104:
 590 01dc 8BEA      		ldi r24,lo8(-15701)
 591 01de 92EC      		ldi r25,hi8(-15701)
 592 01e0 8FB9      		out 47-0x20,r24
 593               	.L134:
 594               	.LM105:
 595 01e2 779B      		sbis 46-0x20,7
 596 01e4 FECF      		rjmp .L134
 597               	.LM106:
 598 01e6 8FB1      		in r24,47-0x20
 599               	.LBE64:
 600               	.LBE63:
 601               	.LM107:
 602 01e8 C49A      		sbi 56-0x20,4
 603               	.LBE60:
 604               	.LBE59:
 605               	.LBB65:
 606               	.LBB66:
 607               	.LM108:
 608 01ea C498      		cbi 56-0x20,4
 609               	.LBB67:
 610               	.LBB68:
 611               	.LM109:
 612 01ec 1FB8      		out 47-0x20,__zero_reg__
 613               	.L139:
 614               	.LM110:
 615 01ee 779B      		sbis 46-0x20,7
 616 01f0 FECF      		rjmp .L139
 617               	.LM111:
 618 01f2 8FB1      		in r24,47-0x20
 619               	.LBE68:
 620               	.LBE67:
 621               	.LBB69:
 622               	.LBB70:
 623               	.LM112:
 624 01f4 81E8      		ldi r24,lo8(-13695)
 625 01f6 9AEC      		ldi r25,hi8(-13695)
 626 01f8 8FB9      		out 47-0x20,r24
 627               	.L143:
 628               	.LM113:
 629 01fa 779B      		sbis 46-0x20,7
 630 01fc FECF      		rjmp .L143
 631               	.LM114:
 632 01fe 8FB1      		in r24,47-0x20
 633               	.LBE70:
 634               	.LBE69:
 635               	.LM115:
 636 0200 C49A      		sbi 56-0x20,4
 637               	.LBE66:
 638               	.LBE65:
 639               	.LBB71:
 640               	.LBB72:
 641               	.LM116:
 642 0202 C498      		cbi 56-0x20,4
 643               	.LBB73:
 644               	.LBB74:
 645               	.LM117:
 646 0204 1FB8      		out 47-0x20,__zero_reg__
 647               	.L148:
 648               	.LM118:
 649 0206 779B      		sbis 46-0x20,7
 650 0208 FECF      		rjmp .L148
 651               	.LM119:
 652 020a 8FB1      		in r24,47-0x20
 653               	.LBE74:
 654               	.LBE73:
 655               	.LBB75:
 656               	.LBB76:
 657               	.LM120:
 658 020c 1FB8      		out 47-0x20,__zero_reg__
 659               	.L152:
 660               	.LM121:
 661 020e 779B      		sbis 46-0x20,7
 662 0210 FECF      		rjmp .L152
 663               	.LM122:
 664 0212 8FB1      		in r24,47-0x20
 665               	.LBE76:
 666               	.LBE75:
 667               	.LM123:
 668 0214 C49A      		sbi 56-0x20,4
 669               	.LBE72:
 670               	.LBE71:
 671               	.LBB77:
 672               	.LBB78:
 673               	.LM124:
 674 0216 C498      		cbi 56-0x20,4
 675               	.LBB79:
 676               	.LBB80:
 677               	.LM125:
 678 0218 1FB8      		out 47-0x20,__zero_reg__
 679               	.L157:
 680               	.LM126:
 681 021a 779B      		sbis 46-0x20,7
 682 021c FECF      		rjmp .L157
 683               	.LM127:
 684 021e 8FB1      		in r24,47-0x20
 685               	.LBE80:
 686               	.LBE79:
 687               	.LBB81:
 688               	.LBB82:
 689               	.LM128:
 690 0220 1FB8      		out 47-0x20,__zero_reg__
 691               	.L161:
 692               	.LM129:
 693 0222 779B      		sbis 46-0x20,7
 694 0224 FECF      		rjmp .L161
 695               	.LM130:
 696 0226 8FB1      		in r24,47-0x20
 697               	.LBE82:
 698               	.LBE81:
 699               	.LM131:
 700 0228 C49A      		sbi 56-0x20,4
 701               	.LBE78:
 702               	.LBE77:
 703               	.LBB83:
 704               	.LBB84:
 705               	.LM132:
 706 022a C498      		cbi 56-0x20,4
 707               	.LBB85:
 708               	.LBB86:
 709               	.LM133:
 710 022c 1FB8      		out 47-0x20,__zero_reg__
 711               	.L166:
 712               	.LM134:
 713 022e 779B      		sbis 46-0x20,7
 714 0230 FECF      		rjmp .L166
 715               	.LM135:
 716 0232 8FB1      		in r24,47-0x20
 717               	.LBE86:
 718               	.LBE85:
 719               	.LBB87:
 720               	.LBB88:
 721               	.LM136:
 722 0234 87EF      		ldi r24,lo8(-15113)
 723 0236 94EC      		ldi r25,hi8(-15113)
 724 0238 8FB9      		out 47-0x20,r24
 725               	.L170:
 726               	.LM137:
 727 023a 779B      		sbis 46-0x20,7
 728 023c FECF      		rjmp .L170
 729               	.LM138:
 730 023e 8FB1      		in r24,47-0x20
 731               	.LBE88:
 732               	.LBE87:
 733               	.LM139:
 734 0240 C49A      		sbi 56-0x20,4
 735               	.LBE84:
 736               	.LBE83:
 737               	.LBB89:
 738               	.LBB90:
 739               	.LBB91:
 740               	.LBB92:
 741               	.LM140:
 742 0242 C498      		cbi 56-0x20,4
 743               	.LBB93:
 744               	.LBB94:
 745               	.LM141:
 746 0244 1FB8      		out 47-0x20,__zero_reg__
 747               	.L178:
 748               	.LM142:
 749 0246 779B      		sbis 46-0x20,7
 750 0248 FECF      		rjmp .L178
 751               	.LM143:
 752 024a 8FB1      		in r24,47-0x20
 753               	.LBE94:
 754               	.LBE93:
 755               	.LBB95:
 756               	.LBB96:
 757               	.LM144:
 758 024c 80E2      		ldi r24,lo8(-23008)
 759 024e 96EA      		ldi r25,hi8(-23008)
 760 0250 8FB9      		out 47-0x20,r24
 761               	.L182:
 762               	.LM145:
 763 0252 779B      		sbis 46-0x20,7
 764 0254 FECF      		rjmp .L182
 765               	.LM146:
 766 0256 8FB1      		in r24,47-0x20
 767               	.LBE96:
 768               	.LBE95:
 769               	.LM147:
 770 0258 C49A      		sbi 56-0x20,4
 771               	.LBE92:
 772               	.LBE91:
 773               	.LBE90:
 774               	.LBE89:
 775               	.LBB97:
 776               	.LBB98:
 777               	.LBB99:
 778               	.LBB100:
 779               	.LM148:
 780 025a C498      		cbi 56-0x20,4
 781               	.LBB101:
 782               	.LBB102:
 783               	.LM149:
 784 025c 1FB8      		out 47-0x20,__zero_reg__
 785               	.L188:
 786               	.LM150:
 787 025e 779B      		sbis 46-0x20,7
 788 0260 FECF      		rjmp .L188
 789               	.LM151:
 790 0262 8FB1      		in r24,47-0x20
 791               	.LBE102:
 792               	.LBE101:
 793               	.LBB103:
 794               	.LBB104:
 795               	.LM152:
 796 0264 8CE8      		ldi r24,lo8(-27508)
 797 0266 94E9      		ldi r25,hi8(-27508)
 798 0268 8FB9      		out 47-0x20,r24
 799               	.L192:
 800               	.LM153:
 801 026a 779B      		sbis 46-0x20,7
 802 026c FECF      		rjmp .L192
 803               	.LM154:
 804 026e 8FB1      		in r24,47-0x20
 805               	.LBE104:
 806               	.LBE103:
 807               	.LM155:
 808 0270 C49A      		sbi 56-0x20,4
 809               	.LBE100:
 810               	.LBE99:
 811               	.LBE98:
 812               	.LBE97:
 813               	.LBB105:
 814               	.LBB106:
 815               	.LBB107:
 816               	.LM156:
 817 0272 6CEF      		ldi r22,lo8(344828)
 818 0274 72E4      		ldi r23,hi8(344828)
 819 0276 85E0      		ldi r24,hlo8(344828)
 820 0278 90E0      		ldi r25,hhi8(344828)
 821 027a 20E0      		ldi r18,lo8(19200)
 822 027c 3BE4      		ldi r19,hi8(19200)
 823 027e 40E0      		ldi r20,hlo8(19200)
 824 0280 50E0      		ldi r21,hhi8(19200)
 825 0282 0E94 0000 		call __udivmodsi4
 826 0286 2150      		subi r18,lo8(-(-1))
 827 0288 3040      		sbci r19,hi8(-(-1))
 828 028a 366C      		ori r19,hi8(-14848)
 829               	.LBB108:
 830               	.LM157:
 831 028c C498      		cbi 56-0x20,4
 832               	.LBB109:
 833               	.LBB110:
 834               	.LM158:
 835 028e 1FB8      		out 47-0x20,__zero_reg__
 836               	.L211:
 837               	.LM159:
 838 0290 779B      		sbis 46-0x20,7
 839 0292 FECF      		rjmp .L211
 840               	.LM160:
 841 0294 8FB1      		in r24,47-0x20
 842               	.LBE110:
 843               	.LBE109:
 844               	.LBB111:
 845               	.LBB112:
 846               	.LM161:
 847 0296 2FB9      		out 47-0x20,r18
 848               	.L215:
 849               	.LM162:
 850 0298 779B      		sbis 46-0x20,7
 851 029a FECF      		rjmp .L215
 852               	.LM163:
 853 029c 8FB1      		in r24,47-0x20
 854               	.LBE112:
 855               	.LBE111:
 856               	.LM164:
 857 029e C49A      		sbi 56-0x20,4
 858               	.LBE108:
 859               	.LBE107:
 860               	.LBE106:
 861               	.LBE105:
 862               	.LBB113:
 863               	.LBB114:
 864               	.LBB115:
 865               	.LBB116:
 866               	.LM165:
 867 02a0 C498      		cbi 56-0x20,4
 868               	.LBB117:
 869               	.LBB118:
 870               	.LM166:
 871 02a2 1FB8      		out 47-0x20,__zero_reg__
 872               	.L220:
 873               	.LM167:
 874 02a4 779B      		sbis 46-0x20,7
 875 02a6 FECF      		rjmp .L220
 876               	.LM168:
 877 02a8 8FB1      		in r24,47-0x20
 878               	.LBE118:
 879               	.LBE117:
 880               	.LBB119:
 881               	.LBB120:
 882               	.LM169:
 883 02aa 80E6      		ldi r24,lo8(-26528)
 884 02ac 98E9      		ldi r25,hi8(-26528)
 885 02ae 8FB9      		out 47-0x20,r24
 886               	.L224:
 887               	.LM170:
 888 02b0 779B      		sbis 46-0x20,7
 889 02b2 FECF      		rjmp .L224
 890               	.LM171:
 891 02b4 8FB1      		in r24,47-0x20
 892               	.LBE120:
 893               	.LBE119:
 894               	.LM172:
 895 02b6 C49A      		sbi 56-0x20,4
 896               	.LBE116:
 897               	.LBE115:
 898               	.LBE114:
 899               	.LBE113:
 900               	/* epilogue: frame size=0 */
 901 02b8 DF91      		pop r29
 902 02ba CF91      		pop r28
 903 02bc 0895      		ret
 904               	/* epilogue end (size=3) */
 905               	/* function rf12_init size 166 (161) */
 906               	.LFE8:
 908               	.global	rf12_ready
 910               	rf12_ready:
 911               	.LFB14:
 912               	.LM173:
 913               	/* prologue: frame size=0 */
 914               	/* prologue end (size=0) */
 915               	.LM174:
 916 02be C498      		cbi 56-0x20,4
 917               	.L279:
 918               	.LM175:
 919 02c0 B39B      		sbis 54-0x20,3
 920 02c2 FECF      		rjmp .L279
 921               	/* epilogue: frame size=0 */
 922 02c4 0895      		ret
 923               	/* epilogue end (size=1) */
 924               	/* function rf12_ready size 4 (3) */
 925               	.LFE14:
 927               	.global	rf12_txdata
 929               	rf12_txdata:
 930               	.LFB15:
 931               	.LM176:
 932               	/* prologue: frame size=0 */
 933               	/* prologue end (size=0) */
 934 02c6 FC01      		movw r30,r24
 935               	.LBB121:
 936               	.LBB122:
 937               	.LM177:
 938 02c8 C498      		cbi 56-0x20,4
 939               	.LBB123:
 940               	.LBB124:
 941               	.LM178:
 942 02ca 1FB8      		out 47-0x20,__zero_reg__
 943               	.L285:
 944               	.LM179:
 945 02cc 779B      		sbis 46-0x20,7
 946 02ce FECF      		rjmp .L285
 947               	.LM180:
 948 02d0 8FB1      		in r24,47-0x20
 949               	.LBE124:
 950               	.LBE123:
 951               	.LBB125:
 952               	.LBB126:
 953               	.LM181:
 954 02d2 88E3      		ldi r24,lo8(-32200)
 955 02d4 92E8      		ldi r25,hi8(-32200)
 956 02d6 8FB9      		out 47-0x20,r24
 957               	.L289:
 958               	.LM182:
 959 02d8 779B      		sbis 46-0x20,7
 960 02da FECF      		rjmp .L289
 961               	.LM183:
 962 02dc 8FB1      		in r24,47-0x20
 963               	.LBE126:
 964               	.LBE125:
 965               	.LM184:
 966 02de C49A      		sbi 56-0x20,4
 967               	.LBE122:
 968               	.LBE121:
 969               	.LBB127:
 970               	.LBB128:
 971               	.LM185:
 972 02e0 C498      		cbi 56-0x20,4
 973               	.L294:
 974               	.LM186:
 975 02e2 B39B      		sbis 54-0x20,3
 976 02e4 FECF      		rjmp .L294
 977               	.LBE128:
 978               	.LBE127:
 979               	.LBB129:
 980               	.LBB130:
 981               	.LM187:
 982 02e6 C498      		cbi 56-0x20,4
 983               	.LBB131:
 984               	.LBB132:
 985               	.LM188:
 986 02e8 1FB8      		out 47-0x20,__zero_reg__
 987               	.L298:
 988               	.LM189:
 989 02ea 779B      		sbis 46-0x20,7
 990 02ec FECF      		rjmp .L298
 991               	.LM190:
 992 02ee 8FB1      		in r24,47-0x20
 993               	.LBE132:
 994               	.LBE131:
 995               	.LBB133:
 996               	.LBB134:
 997               	.LM191:
 998 02f0 8AEA      		ldi r24,lo8(-18262)
 999 02f2 98EB      		ldi r25,hi8(-18262)
 1000 02f4 8FB9      		out 47-0x20,r24
 1001               	.L302:
 1002               	.LM192:
 1003 02f6 779B      		sbis 46-0x20,7
 1004 02f8 FECF      		rjmp .L302
 1005               	.LM193:
 1006 02fa 8FB1      		in r24,47-0x20
 1007               	.LBE134:
 1008               	.LBE133:
 1009               	.LM194:
 1010 02fc C49A      		sbi 56-0x20,4
 1011               	.LBE130:
 1012               	.LBE129:
 1013               	.LBB135:
 1014               	.LBB136:
 1015               	.LM195:
 1016 02fe C498      		cbi 56-0x20,4
 1017               	.L307:
 1018               	.LM196:
 1019 0300 B39B      		sbis 54-0x20,3
 1020 0302 FECF      		rjmp .L307
 1021               	.LBE136:
 1022               	.LBE135:
 1023               	.LBB137:
 1024               	.LBB138:
 1025               	.LM197:
 1026 0304 C498      		cbi 56-0x20,4
 1027               	.LBB139:
 1028               	.LBB140:
 1029               	.LM198:
 1030 0306 1FB8      		out 47-0x20,__zero_reg__
 1031               	.L311:
 1032               	.LM199:
 1033 0308 779B      		sbis 46-0x20,7
 1034 030a FECF      		rjmp .L311
 1035               	.LM200:
 1036 030c 8FB1      		in r24,47-0x20
 1037               	.LBE140:
 1038               	.LBE139:
 1039               	.LBB141:
 1040               	.LBB142:
 1041               	.LM201:
 1042 030e 8AEA      		ldi r24,lo8(-18262)
 1043 0310 98EB      		ldi r25,hi8(-18262)
 1044 0312 8FB9      		out 47-0x20,r24
 1045               	.L315:
 1046               	.LM202:
 1047 0314 779B      		sbis 46-0x20,7
 1048 0316 FECF      		rjmp .L315
 1049               	.LM203:
 1050 0318 8FB1      		in r24,47-0x20
 1051               	.LBE142:
 1052               	.LBE141:
 1053               	.LM204:
 1054 031a C49A      		sbi 56-0x20,4
 1055               	.LBE138:
 1056               	.LBE137:
 1057               	.LBB143:
 1058               	.LBB144:
 1059               	.LM205:
 1060 031c C498      		cbi 56-0x20,4
 1061               	.L320:
 1062               	.LM206:
 1063 031e B39B      		sbis 54-0x20,3
 1064 0320 FECF      		rjmp .L320
 1065               	.LBE144:
 1066               	.LBE143:
 1067               	.LBB145:
 1068               	.LBB146:
 1069               	.LM207:
 1070 0322 C498      		cbi 56-0x20,4
 1071               	.LBB147:
 1072               	.LBB148:
 1073               	.LM208:
 1074 0324 1FB8      		out 47-0x20,__zero_reg__
 1075               	.L324:
 1076               	.LM209:
 1077 0326 779B      		sbis 46-0x20,7
 1078 0328 FECF      		rjmp .L324
 1079               	.LM210:
 1080 032a 8FB1      		in r24,47-0x20
 1081               	.LBE148:
 1082               	.LBE147:
 1083               	.LBB149:
 1084               	.LBB150:
 1085               	.LM211:
 1086 032c 8AEA      		ldi r24,lo8(-18262)
 1087 032e 98EB      		ldi r25,hi8(-18262)
 1088 0330 8FB9      		out 47-0x20,r24
 1089               	.L328:
 1090               	.LM212:
 1091 0332 779B      		sbis 46-0x20,7
 1092 0334 FECF      		rjmp .L328
 1093               	.LM213:
 1094 0336 8FB1      		in r24,47-0x20
 1095               	.LBE150:
 1096               	.LBE149:
 1097               	.LM214:
 1098 0338 C49A      		sbi 56-0x20,4
 1099               	.LBE146:
 1100               	.LBE145:
 1101               	.LBB151:
 1102               	.LBB152:
 1103               	.LM215:
 1104 033a C498      		cbi 56-0x20,4
 1105               	.L333:
 1106               	.LM216:
 1107 033c B39B      		sbis 54-0x20,3
 1108 033e FECF      		rjmp .L333
 1109               	.LBE152:
 1110               	.LBE151:
 1111               	.LBB153:
 1112               	.LBB154:
 1113               	.LM217:
 1114 0340 C498      		cbi 56-0x20,4
 1115               	.LBB155:
 1116               	.LBB156:
 1117               	.LM218:
 1118 0342 1FB8      		out 47-0x20,__zero_reg__
 1119               	.L337:
 1120               	.LM219:
 1121 0344 779B      		sbis 46-0x20,7
 1122 0346 FECF      		rjmp .L337
 1123               	.LM220:
 1124 0348 8FB1      		in r24,47-0x20
 1125               	.LBE156:
 1126               	.LBE155:
 1127               	.LBB157:
 1128               	.LBB158:
 1129               	.LM221:
 1130 034a 8DE2      		ldi r24,lo8(-18387)
 1131 034c 98EB      		ldi r25,hi8(-18387)
 1132 034e 8FB9      		out 47-0x20,r24
 1133               	.L341:
 1134               	.LM222:
 1135 0350 779B      		sbis 46-0x20,7
 1136 0352 FECF      		rjmp .L341
 1137               	.LM223:
 1138 0354 8FB1      		in r24,47-0x20
 1139               	.LBE158:
 1140               	.LBE157:
 1141               	.LM224:
 1142 0356 C49A      		sbi 56-0x20,4
 1143               	.LBE154:
 1144               	.LBE153:
 1145               	.LBB159:
 1146               	.LBB160:
 1147               	.LM225:
 1148 0358 C498      		cbi 56-0x20,4
 1149               	.L346:
 1150               	.LM226:
 1151 035a B39B      		sbis 54-0x20,3
 1152 035c FECF      		rjmp .L346
 1153               	.LBE160:
 1154               	.LBE159:
 1155               	.LBB161:
 1156               	.LBB162:
 1157               	.LM227:
 1158 035e C498      		cbi 56-0x20,4
 1159               	.LBB163:
 1160               	.LBB164:
 1161               	.LM228:
 1162 0360 1FB8      		out 47-0x20,__zero_reg__
 1163               	.L350:
 1164               	.LM229:
 1165 0362 779B      		sbis 46-0x20,7
 1166 0364 FECF      		rjmp .L350
 1167               	.LM230:
 1168 0366 8FB1      		in r24,47-0x20
 1169               	.LBE164:
 1170               	.LBE163:
 1171               	.LBB165:
 1172               	.LBB166:
 1173               	.LM231:
 1174 0368 84ED      		ldi r24,lo8(-18220)
 1175 036a 98EB      		ldi r25,hi8(-18220)
 1176 036c 8FB9      		out 47-0x20,r24
 1177               	.L354:
 1178               	.LM232:
 1179 036e 779B      		sbis 46-0x20,7
 1180 0370 FECF      		rjmp .L354
 1181               	.LM233:
 1182 0372 8FB1      		in r24,47-0x20
 1183               	.LBE166:
 1184               	.LBE165:
 1185               	.LM234:
 1186 0374 C49A      		sbi 56-0x20,4
 1187               	.LBE162:
 1188               	.LBE161:
 1189               	.LM235:
 1190 0376 90E0      		ldi r25,lo8(0)
 1191 0378 9617      		cp r25,r22
 1192 037a A0F4      		brsh .L390
 1193               	.L440:
 1194               	.LBB167:
 1195               	.LBB168:
 1196               	.LM236:
 1197 037c C498      		cbi 56-0x20,4
 1198               	.L362:
 1199               	.LM237:
 1200 037e B39B      		sbis 54-0x20,3
 1201 0380 FECF      		rjmp .L362
 1202               	.LBE168:
 1203               	.LBE167:
 1204               	.LBB169:
 1205               	.LM238:
 1206 0382 8191      		ld r24,Z+
 1207 0384 282F      		mov r18,r24
 1208 0386 3327      		clr r19
 1209 0388 386B      		ori r19,hi8(-18432)
 1210               	.LBB170:
 1211               	.LM239:
 1212 038a C498      		cbi 56-0x20,4
 1213               	.LBB171:
 1214               	.LBB172:
 1215               	.LM240:
 1216 038c 1FB8      		out 47-0x20,__zero_reg__
 1217               	.L366:
 1218               	.LM241:
 1219 038e 779B      		sbis 46-0x20,7
 1220 0390 FECF      		rjmp .L366
 1221               	.LM242:
 1222 0392 8FB1      		in r24,47-0x20
 1223               	.LBE172:
 1224               	.LBE171:
 1225               	.LBB173:
 1226               	.LBB174:
 1227               	.LM243:
 1228 0394 2FB9      		out 47-0x20,r18
 1229               	.L370:
 1230               	.LM244:
 1231 0396 779B      		sbis 46-0x20,7
 1232 0398 FECF      		rjmp .L370
 1233               	.LM245:
 1234 039a 8FB1      		in r24,47-0x20
 1235               	.LBE174:
 1236               	.LBE173:
 1237               	.LM246:
 1238 039c C49A      		sbi 56-0x20,4
 1239               	.LBE170:
 1240               	.LBE169:
 1241               	.LM247:
 1242 039e 9F5F      		subi r25,lo8(-(1))
 1243 03a0 9617      		cp r25,r22
 1244 03a2 60F3      		brlo .L440
 1245               	.L390:
 1246               	.LBB175:
 1247               	.LBB176:
 1248               	.LM248:
 1249 03a4 C498      		cbi 56-0x20,4
 1250               	.L376:
 1251               	.LM249:
 1252 03a6 B39B      		sbis 54-0x20,3
 1253 03a8 FECF      		rjmp .L376
 1254               	.LBE176:
 1255               	.LBE175:
 1256               	.LBB177:
 1257               	.LBB178:
 1258               	.LM250:
 1259 03aa C498      		cbi 56-0x20,4
 1260               	.LBB179:
 1261               	.LBB180:
 1262               	.LM251:
 1263 03ac 1FB8      		out 47-0x20,__zero_reg__
 1264               	.L380:
 1265               	.LM252:
 1266 03ae 779B      		sbis 46-0x20,7
 1267 03b0 FECF      		rjmp .L380
 1268               	.LM253:
 1269 03b2 8FB1      		in r24,47-0x20
 1270               	.LBE180:
 1271               	.LBE179:
 1272               	.LBB181:
 1273               	.LBB182:
 1274               	.LM254:
 1275 03b4 88E0      		ldi r24,lo8(-32248)
 1276 03b6 92E8      		ldi r25,hi8(-32248)
 1277 03b8 8FB9      		out 47-0x20,r24
 1278               	.L384:
 1279               	.LM255:
 1280 03ba 779B      		sbis 46-0x20,7
 1281 03bc FECF      		rjmp .L384
 1282               	.LM256:
 1283 03be 8FB1      		in r24,47-0x20
 1284               	.LBE182:
 1285               	.LBE181:
 1286               	.LM257:
 1287 03c0 C49A      		sbi 56-0x20,4
 1288               	.LBE178:
 1289               	.LBE177:
 1290               	/* epilogue: frame size=0 */
 1291 03c2 0895      		ret
 1292               	/* epilogue end (size=1) */
 1293               	/* function rf12_txdata size 127 (126) */
 1294               	.LFE15:
 1296               	.global	rf12_rxdata
 1298               	rf12_rxdata:
 1299               	.LFB16:
 1300               	.LM258:
 1301               	/* prologue: frame size=0 */
 1302               	/* prologue end (size=0) */
 1303 03c4 AC01      		movw r20,r24
 1304               	.LBB183:
 1305               	.LBB184:
 1306               	.LM259:
 1307 03c6 C498      		cbi 56-0x20,4
 1308               	.LBB185:
 1309               	.LBB186:
 1310               	.LM260:
 1311 03c8 1FB8      		out 47-0x20,__zero_reg__
 1312               	.L442:
 1313               	.LM261:
 1314 03ca 779B      		sbis 46-0x20,7
 1315 03cc FECF      		rjmp .L442
 1316               	.LM262:
 1317 03ce 8FB1      		in r24,47-0x20
 1318               	.LBE186:
 1319               	.LBE185:
 1320               	.LBB187:
 1321               	.LBB188:
 1322               	.LM263:
 1323 03d0 88EC      		ldi r24,lo8(-32056)
 1324 03d2 92E8      		ldi r25,hi8(-32056)
 1325 03d4 8FB9      		out 47-0x20,r24
 1326               	.L446:
 1327               	.LM264:
 1328 03d6 779B      		sbis 46-0x20,7
 1329 03d8 FECF      		rjmp .L446
 1330               	.LM265:
 1331 03da 8FB1      		in r24,47-0x20
 1332               	.LBE188:
 1333               	.LBE187:
 1334               	.LM266:
 1335 03dc C49A      		sbi 56-0x20,4
 1336               	.LBE184:
 1337               	.LBE183:
 1338               	.LBB189:
 1339               	.LBB190:
 1340               	.LM267:
 1341 03de C498      		cbi 56-0x20,4
 1342               	.LBB191:
 1343               	.LBB192:
 1344               	.LM268:
 1345 03e0 1FB8      		out 47-0x20,__zero_reg__
 1346               	.L451:
 1347               	.LM269:
 1348 03e2 779B      		sbis 46-0x20,7
 1349 03e4 FECF      		rjmp .L451
 1350               	.LM270:
 1351 03e6 8FB1      		in r24,47-0x20
 1352               	.LBE192:
 1353               	.LBE191:
 1354               	.LBB193:
 1355               	.LBB194:
 1356               	.LM271:
 1357 03e8 81E8      		ldi r24,lo8(-13695)
 1358 03ea 9AEC      		ldi r25,hi8(-13695)
 1359 03ec 8FB9      		out 47-0x20,r24
 1360               	.L455:
 1361               	.LM272:
 1362 03ee 779B      		sbis 46-0x20,7
 1363 03f0 FECF      		rjmp .L455
 1364               	.LM273:
 1365 03f2 8FB1      		in r24,47-0x20
 1366               	.LBE194:
 1367               	.LBE193:
 1368               	.LM274:
 1369 03f4 C49A      		sbi 56-0x20,4
 1370               	.LBE190:
 1371               	.LBE189:
 1372               	.LBB195:
 1373               	.LBB196:
 1374               	.LM275:
 1375 03f6 C498      		cbi 56-0x20,4
 1376               	.LBB197:
 1377               	.LBB198:
 1378               	.LM276:
 1379 03f8 1FB8      		out 47-0x20,__zero_reg__
 1380               	.L460:
 1381               	.LM277:
 1382 03fa 779B      		sbis 46-0x20,7
 1383 03fc FECF      		rjmp .L460
 1384               	.LM278:
 1385 03fe 8FB1      		in r24,47-0x20
 1386               	.LBE198:
 1387               	.LBE197:
 1388               	.LBB199:
 1389               	.LBB200:
 1390               	.LM279:
 1391 0400 83E8      		ldi r24,lo8(-13693)
 1392 0402 9AEC      		ldi r25,hi8(-13693)
 1393 0404 8FB9      		out 47-0x20,r24
 1394               	.L464:
 1395               	.LM280:
 1396 0406 779B      		sbis 46-0x20,7
 1397 0408 FECF      		rjmp .L464
 1398               	.LM281:
 1399 040a 8FB1      		in r24,47-0x20
 1400               	.LBE200:
 1401               	.LBE199:
 1402               	.LM282:
 1403 040c C49A      		sbi 56-0x20,4
 1404               	.LBE196:
 1405               	.LBE195:
 1406               	.LM283:
 1407 040e 20E0      		ldi r18,lo8(0)
 1408 0410 2617      		cp r18,r22
 1409 0412 B0F4      		brsh .L496
 1410 0414 A0E0      		ldi r26,lo8(-20480)
 1411 0416 B0EB      		ldi r27,hi8(-20480)
 1412               	.L485:
 1413               	.LBB201:
 1414               	.LBB202:
 1415               	.LM284:
 1416 0418 C498      		cbi 56-0x20,4
 1417               	.L472:
 1418               	.LM285:
 1419 041a B39B      		sbis 54-0x20,3
 1420 041c FECF      		rjmp .L472
 1421               	.LBE202:
 1422               	.LBE201:
 1423               	.LBB203:
 1424               	.LM286:
 1425 041e FA01      		movw r30,r20
 1426 0420 4F5F      		subi r20,lo8(-(1))
 1427 0422 5F4F      		sbci r21,hi8(-(1))
 1428               	.LBB204:
 1429               	.LM287:
 1430 0424 C498      		cbi 56-0x20,4
 1431               	.LBB205:
 1432               	.LBB206:
 1433               	.LM288:
 1434 0426 AFB9      		out 47-0x20,r26
 1435               	.L476:
 1436               	.LM289:
 1437 0428 779B      		sbis 46-0x20,7
 1438 042a FECF      		rjmp .L476
 1439               	.LM290:
 1440 042c 8FB1      		in r24,47-0x20
 1441               	.LBE206:
 1442               	.LBE205:
 1443               	.LBB207:
 1444               	.LBB208:
 1445               	.LM291:
 1446 042e 1FB8      		out 47-0x20,__zero_reg__
 1447               	.L480:
 1448               	.LM292:
 1449 0430 779B      		sbis 46-0x20,7
 1450 0432 FECF      		rjmp .L480
 1451               	.LM293:
 1452 0434 8FB1      		in r24,47-0x20
 1453               	.LBE208:
 1454               	.LBE207:
 1455               	.LM294:
 1456 0436 C49A      		sbi 56-0x20,4
 1457               	.LBE204:
 1458               	.LBE203:
 1459               	.LM295:
 1460 0438 8083      		st Z,r24
 1461               	.LM296:
 1462 043a 2F5F      		subi r18,lo8(-(1))
 1463 043c 2617      		cp r18,r22
 1464 043e 60F3      		brlo .L485
 1465               	.L496:
 1466               	.LBB209:
 1467               	.LBB210:
 1468               	.LM297:
 1469 0440 C498      		cbi 56-0x20,4
 1470               	.LBB211:
 1471               	.LBB212:
 1472               	.LM298:
 1473 0442 1FB8      		out 47-0x20,__zero_reg__
 1474               	.L486:
 1475               	.LM299:
 1476 0444 779B      		sbis 46-0x20,7
 1477 0446 FECF      		rjmp .L486
 1478               	.LM300:
 1479 0448 8FB1      		in r24,47-0x20
 1480               	.LBE212:
 1481               	.LBE211:
 1482               	.LBB213:
 1483               	.LBB214:
 1484               	.LM301:
 1485 044a 88E0      		ldi r24,lo8(-32248)
 1486 044c 92E8      		ldi r25,hi8(-32248)
 1487 044e 8FB9      		out 47-0x20,r24
 1488               	.L490:
 1489               	.LM302:
 1490 0450 779B      		sbis 46-0x20,7
 1491 0452 FECF      		rjmp .L490
 1492               	.LM303:
 1493 0454 8FB1      		in r24,47-0x20
 1494               	.LBE214:
 1495               	.LBE213:
 1496               	.LM304:
 1497 0456 C49A      		sbi 56-0x20,4
 1498               	.LBE210:
 1499               	.LBE209:
 1500               	/* epilogue: frame size=0 */
 1501 0458 0895      		ret
 1502               	/* epilogue end (size=1) */
 1503               	/* function rf12_rxdata size 75 (74) */
 1504               	.LFE16:
 1506               	.Letext0:
DEFINED SYMBOLS
                            *ABS*:00000000 rf12.c
C:\DOKUME~1\Olaf\LOKALE~1\Temp/cc8caaaa.s:3      *ABS*:0000003f __SREG__
C:\DOKUME~1\Olaf\LOKALE~1\Temp/cc8caaaa.s:4      *ABS*:0000003e __SP_H__
C:\DOKUME~1\Olaf\LOKALE~1\Temp/cc8caaaa.s:5      *ABS*:0000003d __SP_L__
C:\DOKUME~1\Olaf\LOKALE~1\Temp/cc8caaaa.s:6      *ABS*:00000000 __tmp_reg__
C:\DOKUME~1\Olaf\LOKALE~1\Temp/cc8caaaa.s:7      *ABS*:00000001 __zero_reg__
C:\DOKUME~1\Olaf\LOKALE~1\Temp/cc8caaaa.s:20     .text:00000000 spi_init
C:\DOKUME~1\Olaf\LOKALE~1\Temp/cc8caaaa.s:46     .text:00000014 spi_putc
C:\DOKUME~1\Olaf\LOKALE~1\Temp/cc8caaaa.s:69     .text:00000020 rf12_trans
C:\DOKUME~1\Olaf\LOKALE~1\Temp/cc8caaaa.s:120    .text:00000044 rf12_setfreq
C:\DOKUME~1\Olaf\LOKALE~1\Temp/cc8caaaa.s:195    .text:00000078 rf12_setbandwidth
C:\DOKUME~1\Olaf\LOKALE~1\Temp/cc8caaaa.s:274    .text:000000d0 rf12_setbaud
C:\DOKUME~1\Olaf\LOKALE~1\Temp/cc8caaaa.s:390    .text:0000013e rf12_setpower
C:\DOKUME~1\Olaf\LOKALE~1\Temp/cc8caaaa.s:453    .text:00000176 rf12_init
C:\DOKUME~1\Olaf\LOKALE~1\Temp/cc8caaaa.s:910    .text:000002be rf12_ready
C:\DOKUME~1\Olaf\LOKALE~1\Temp/cc8caaaa.s:929    .text:000002c6 rf12_txdata
C:\DOKUME~1\Olaf\LOKALE~1\Temp/cc8caaaa.s:1298   .text:000003c4 rf12_rxdata

UNDEFINED SYMBOLS
__do_copy_data
__do_clear_bss
__divmodsi4
__udivmodsi4
