   1               		.file	"main.c"
   2               		.arch atmega16
   3               	__SREG__ = 0x3f
   4               	__SP_H__ = 0x3e
   5               	__SP_L__ = 0x3d
   6               	__tmp_reg__ = 0
   7               	__zero_reg__ = 1
   8               		.global __do_copy_data
   9               		.global __do_clear_bss
  17               	.Ltext0:
  18               	.global	stellwert
  19               	.global	stellwert
  20               		.section .bss
  23               	stellwert:
  24 0000 0000 0000 		.skip 4,0
  25               	.global	differenzierer
  26               	.global	differenzierer
  29               	differenzierer:
  30 0004 0000 0000 		.skip 4,0
  31               	.global	integrator
  32               	.global	integrator
  35               	integrator:
  36 0008 0000 0000 		.skip 4,0
  37               	.global	fehler_alt
  38               	.global	fehler_alt
  41               	fehler_alt:
  42 000c 0000 0000 		.skip 4,0
  43               	.global	fehler
  44               	.global	fehler
  47               	fehler:
  48 0010 0000 0000 		.skip 4,0
  49               	.global	istwert
  50               	.global	istwert
  53               	istwert:
  54 0014 0000 0000 		.skip 4,0
  55               	.global	sollwert
  56               	.global	sollwert
  59               	sollwert:
  60 0018 0000 0000 		.skip 4,0
  61               	.global	startzeit
  62               	.global	startzeit
  65               	startzeit:
  66 001c 0000 0000 		.skip 4,0
  67               	.global	zeit
  68               	.global	zeit
  71               	zeit:
  72 0020 0000 0000 		.skip 4,0
  73               		.text
  74               	.global	regelung
  76               	regelung:
  77               	.LFB5:
  78               	.LM1:
  79               	/* prologue: frame size=0 */
  80 0000 8F92      		push r8
  81 0002 9F92      		push r9
  82 0004 AF92      		push r10
  83 0006 BF92      		push r11
  84 0008 CF92      		push r12
  85 000a DF92      		push r13
  86 000c EF92      		push r14
  87 000e FF92      		push r15
  88 0010 0F93      		push r16
  89 0012 1F93      		push r17
  90 0014 CF93      		push r28
  91 0016 DF93      		push r29
  92               	/* prologue end (size=12) */
  93               	.LM2:
  94 0018 882E      		mov r8,r24
  95 001a 9924      		clr r9
  96 001c E401      		movw r28,r8
  97 001e C80D      		add r28,r8
  98 0020 D91D      		adc r29,r9
  99 0022 60E0      		ldi r22,lo8(sollwert)
 100 0024 A62E      		mov r10,r22
 101 0026 60E0      		ldi r22,hi8(sollwert)
 102 0028 B62E      		mov r11,r22
 103 002a AC0E      		add r10,r28
 104 002c BD1E      		adc r11,r29
 105 002e F501      		movw r30,r10
 106 0030 2081      		ld r18,Z
 107 0032 3181      		ldd r19,Z+1
 108 0034 50E0      		ldi r21,lo8(fehler)
 109 0036 C52E      		mov r12,r21
 110 0038 50E0      		ldi r21,hi8(fehler)
 111 003a D52E      		mov r13,r21
 112 003c CC0E      		add r12,r28
 113 003e DD1E      		adc r13,r29
 114 0040 40E0      		ldi r20,lo8(integrator)
 115 0042 E42E      		mov r14,r20
 116 0044 40E0      		ldi r20,hi8(integrator)
 117 0046 F42E      		mov r15,r20
 118 0048 EC0E      		add r14,r28
 119 004a FD1E      		adc r15,r29
 120 004c 2115      		cp r18,__zero_reg__
 121 004e 3105      		cpc r19,__zero_reg__
 122 0050 B9F4      		brne .L2
 123               	.LM3:
 124 0052 F601      		movw r30,r12
 125 0054 3183      		std Z+1,r19
 126 0056 2083      		st Z,r18
 127               	.LM4:
 128 0058 FE01      		movw r30,r28
 129 005a E050      		subi r30,lo8(-(fehler_alt))
 130 005c F040      		sbci r31,hi8(-(fehler_alt))
 131 005e 3183      		std Z+1,r19
 132 0060 2083      		st Z,r18
 133               	.LM5:
 134 0062 F701      		movw r30,r14
 135 0064 3183      		std Z+1,r19
 136 0066 2083      		st Z,r18
 137               	.LM6:
 138 0068 FE01      		movw r30,r28
 139 006a E050      		subi r30,lo8(-(differenzierer))
 140 006c F040      		sbci r31,hi8(-(differenzierer))
 141 006e 3183      		std Z+1,r19
 142 0070 2083      		st Z,r18
 143               	.LM7:
 144 0072 C050      		subi r28,lo8(-(stellwert))
 145 0074 D040      		sbci r29,hi8(-(stellwert))
 146 0076 3983      		std Y+1,r19
 147 0078 2883      		st Y,r18
 148               	.LM8:
 149 007a 60E0      		ldi r22,lo8(0)
 150 007c 862F      		mov r24,r22
 151 007e 96C0      		rjmp .L16
 152               	.L2:
 153               	.LM9:
 154 0080 8E01      		movw r16,r28
 155 0082 0050      		subi r16,lo8(-(istwert))
 156 0084 1040      		sbci r17,hi8(-(istwert))
 157 0086 0E94 0000 		call encoderGet
 158 008a F801      		movw r30,r16
 159 008c 9183      		std Z+1,r25
 160 008e 8083      		st Z,r24
 161               	.LM10:
 162 0090 F501      		movw r30,r10
 163 0092 2081      		ld r18,Z
 164 0094 3181      		ldd r19,Z+1
 165 0096 281B      		sub r18,r24
 166 0098 390B      		sbc r19,r25
 167 009a F601      		movw r30,r12
 168 009c 3183      		std Z+1,r19
 169 009e 2083      		st Z,r18
 170               	.LM11:
 171 00a0 F701      		movw r30,r14
 172 00a2 8081      		ld r24,Z
 173 00a4 9181      		ldd r25,Z+1
 174 00a6 820F      		add r24,r18
 175 00a8 931F      		adc r25,r19
 176 00aa 9183      		std Z+1,r25
 177 00ac 8083      		st Z,r24
 178               	.LM12:
 179 00ae 8050      		subi r24,lo8(1024)
 180 00b0 9440      		sbci r25,hi8(1024)
 181 00b2 2CF0      		brlt .L3
 182               	.LM13:
 183 00b4 8FEF      		ldi r24,lo8(1023)
 184 00b6 93E0      		ldi r25,hi8(1023)
 185 00b8 F701      		movw r30,r14
 186 00ba 9183      		std Z+1,r25
 187 00bc 8083      		st Z,r24
 188               	.L3:
 189               	.LM14:
 190 00be F701      		movw r30,r14
 191 00c0 8081      		ld r24,Z
 192 00c2 9181      		ldd r25,Z+1
 193 00c4 8150      		subi r24,lo8(-1023)
 194 00c6 9C4F      		sbci r25,hi8(-1023)
 195 00c8 2CF4      		brge .L4
 196               	.LM15:
 197 00ca 81E0      		ldi r24,lo8(-1023)
 198 00cc 9CEF      		ldi r25,hi8(-1023)
 199 00ce F701      		movw r30,r14
 200 00d0 9183      		std Z+1,r25
 201 00d2 8083      		st Z,r24
 202               	.L4:
 203               	.LM16:
 204 00d4 BE01      		movw r22,r28
 205 00d6 6050      		subi r22,lo8(-(differenzierer))
 206 00d8 7040      		sbci r23,hi8(-(differenzierer))
 207 00da DE01      		movw r26,r28
 208 00dc A050      		subi r26,lo8(-(fehler_alt))
 209 00de B040      		sbci r27,hi8(-(fehler_alt))
 210 00e0 F601      		movw r30,r12
 211 00e2 4081      		ld r20,Z
 212 00e4 5181      		ldd r21,Z+1
 213 00e6 8D91      		ld r24,X+
 214 00e8 9C91      		ld r25,X
 215 00ea 1197      		sbiw r26,1
 216 00ec 9A01      		movw r18,r20
 217 00ee 281B      		sub r18,r24
 218 00f0 390B      		sbc r19,r25
 219 00f2 FB01      		movw r30,r22
 220 00f4 3183      		std Z+1,r19
 221 00f6 2083      		st Z,r18
 222               	.LM17:
 223 00f8 C050      		subi r28,lo8(-(stellwert))
 224 00fa D040      		sbci r29,hi8(-(stellwert))
 225 00fc F701      		movw r30,r14
 226 00fe 8081      		ld r24,Z
 227 0100 9181      		ldd r25,Z+1
 228 0102 97FD      		sbrc r25,7
 229 0104 0196      		adiw r24,1
 230               	.L5:
 231 0106 9595      		asr r25
 232 0108 8795      		ror r24
 233               	.LM18:
 234 010a 9A01      		movw r18,r20
 235 010c 240F      		add r18,r20
 236 010e 351F      		adc r19,r21
 237 0110 820F      		add r24,r18
 238 0112 931F      		adc r25,r19
 239 0114 9983      		std Y+1,r25
 240 0116 8883      		st Y,r24
 241               	.LM19:
 242 0118 8F3F      		cpi r24,255
 243 011a 9105      		cpc r25,__zero_reg__
 244 011c 29F0      		breq .L6
 245 011e 24F0      		brlt .L6
 246               	.LM20:
 247 0120 8FEF      		ldi r24,lo8(255)
 248 0122 90E0      		ldi r25,hi8(255)
 249 0124 9983      		std Y+1,r25
 250 0126 8883      		st Y,r24
 251               	.L6:
 252               	.LM21:
 253 0128 8881      		ld r24,Y
 254 012a 9981      		ldd r25,Y+1
 255 012c 8150      		subi r24,lo8(-255)
 256 012e 9F4F      		sbci r25,hi8(-255)
 257 0130 24F4      		brge .L7
 258               	.LM22:
 259 0132 81E0      		ldi r24,lo8(-255)
 260 0134 9FEF      		ldi r25,hi8(-255)
 261 0136 9983      		std Y+1,r25
 262 0138 8883      		st Y,r24
 263               	.L7:
 264               	.LM23:
 265 013a 4D93      		st X+,r20
 266 013c 5C93      		st X,r21
 267               	.LM24:
 268 013e 8114      		cp r8,__zero_reg__
 269 0140 9104      		cpc r9,__zero_reg__
 270 0142 29F0      		breq .L9
 271 0144 21E0      		ldi r18,lo8(1)
 272 0146 8216      		cp r8,r18
 273 0148 9104      		cpc r9,__zero_reg__
 274 014a B1F0      		breq .L12
 275 014c 2BC0      		rjmp .L8
 276               	.L9:
 277               	.LM25:
 278 014e 8881      		ld r24,Y
 279 0150 9981      		ldd r25,Y+1
 280 0152 1816      		cp __zero_reg__,r24
 281 0154 1906      		cpc __zero_reg__,r25
 282 0156 24F4      		brge .L10
 283               	.LM26:
 284 0158 63E0      		ldi r22,lo8(3)
 285 015a 80E0      		ldi r24,lo8(0)
 286 015c 0E94 0000 		call motor_dir
 287               	.L10:
 288               	.LM27:
 289 0160 8881      		ld r24,Y
 290 0162 9981      		ldd r25,Y+1
 291 0164 97FF      		sbrs r25,7
 292 0166 1EC0      		rjmp .L8
 293               	.LM28:
 294 0168 9095      		com r25
 295 016a 8195      		neg r24
 296 016c 9F4F      		sbci r25,lo8(-1)
 297 016e 9983      		std Y+1,r25
 298 0170 8883      		st Y,r24
 299               	.LM29:
 300 0172 63E0      		ldi r22,lo8(3)
 301 0174 81E0      		ldi r24,lo8(1)
 302 0176 14C0      		rjmp .L15
 303               	.L12:
 304               	.LM30:
 305 0178 8881      		ld r24,Y
 306 017a 9981      		ldd r25,Y+1
 307 017c 1816      		cp __zero_reg__,r24
 308 017e 1906      		cpc __zero_reg__,r25
 309 0180 24F4      		brge .L13
 310               	.LM31:
 311 0182 60E0      		ldi r22,lo8(0)
 312 0184 83E0      		ldi r24,lo8(3)
 313 0186 0E94 0000 		call motor_dir
 314               	.L13:
 315               	.LM32:
 316 018a 8881      		ld r24,Y
 317 018c 9981      		ldd r25,Y+1
 318 018e 97FF      		sbrs r25,7
 319 0190 09C0      		rjmp .L8
 320               	.LM33:
 321 0192 9095      		com r25
 322 0194 8195      		neg r24
 323 0196 9F4F      		sbci r25,lo8(-1)
 324 0198 9983      		std Y+1,r25
 325 019a 8883      		st Y,r24
 326               	.LM34:
 327 019c 61E0      		ldi r22,lo8(1)
 328 019e 83E0      		ldi r24,lo8(3)
 329               	.L15:
 330 01a0 0E94 0000 		call motor_dir
 331               	.L8:
 332               	.LM35:
 333 01a4 6091 0000 		lds r22,stellwert+2
 334 01a8 8091 0000 		lds r24,stellwert
 335               	.L16:
 336 01ac 0E94 0000 		call motor_speed
 337               	/* epilogue: frame size=0 */
 338 01b0 DF91      		pop r29
 339 01b2 CF91      		pop r28
 340 01b4 1F91      		pop r17
 341 01b6 0F91      		pop r16
 342 01b8 FF90      		pop r15
 343 01ba EF90      		pop r14
 344 01bc DF90      		pop r13
 345 01be CF90      		pop r12
 346 01c0 BF90      		pop r11
 347 01c2 AF90      		pop r10
 348 01c4 9F90      		pop r9
 349 01c6 8F90      		pop r8
 350 01c8 0895      		ret
 351               	/* epilogue end (size=13) */
 352               	/* function regelung size 233 (208) */
 353               	.LFE5:
 355               		.data
 356               	.LC0:
 357 0000 0C20 2A2A 		.string	"\f *** DEBUG Regler **"
 357      2A20 4445 
 357      4255 4720 
 357      5265 676C 
 357      6572 202A 
 358               	.LC1:
 359 0016 736F 6C6C 		.string	"soll:\t"
 359      3A09 00
 360               	.LC2:
 361 001d 0A0D 00   		.string	"\n\r"
 362               	.LC3:
 363 0020 653A 0900 		.string	"e:\t"
 364               	.LC4:
 365 0024 696E 743A 		.string	"int:\t"
 365      0900 
 366               	.LC5:
 367 002a 6469 663A 		.string	"dif:\t"
 367      0900 
 368               	.LC6:
 369 0030 7374 656C 		.string	"stell:\t"
 369      6C3A 0900 
 370               	.LC7:
 371 0038 0D0A 00   		.string	"\r\n"
 372               		.text
 373               	.global	reglerwerte_ausgeben
 375               	reglerwerte_ausgeben:
 376               	.LFB6:
 377               	.LM36:
 378               	/* prologue: frame size=0 */
 379 01ca 0F93      		push r16
 380 01cc 1F93      		push r17
 381               	/* prologue end (size=2) */
 382 01ce 182F      		mov r17,r24
 383               	.LM37:
 384 01d0 80E0      		ldi r24,lo8(.LC0)
 385 01d2 90E0      		ldi r25,hi8(.LC0)
 386 01d4 0E94 0000 		call uart_puts
 387               	.LM38:
 388 01d8 80E0      		ldi r24,lo8(.LC1)
 389 01da 90E0      		ldi r25,hi8(.LC1)
 390 01dc 0E94 0000 		call uart_puts
 391               	.LM39:
 392 01e0 012F      		mov r16,r17
 393 01e2 1127      		clr r17
 394 01e4 000F      		add r16,r16
 395 01e6 111F      		adc r17,r17
 396 01e8 F801      		movw r30,r16
 397 01ea E050      		subi r30,lo8(-(sollwert))
 398 01ec F040      		sbci r31,hi8(-(sollwert))
 399 01ee 8081      		ld r24,Z
 400 01f0 9181      		ldd r25,Z+1
 401 01f2 0E94 0000 		call uart_puti
 402               	.LM40:
 403 01f6 80E0      		ldi r24,lo8(.LC2)
 404 01f8 90E0      		ldi r25,hi8(.LC2)
 405 01fa 0E94 0000 		call uart_puts
 406               	.LM41:
 407 01fe 80E0      		ldi r24,lo8(.LC3)
 408 0200 90E0      		ldi r25,hi8(.LC3)
 409 0202 0E94 0000 		call uart_puts
 410               	.LM42:
 411 0206 F801      		movw r30,r16
 412 0208 E050      		subi r30,lo8(-(fehler))
 413 020a F040      		sbci r31,hi8(-(fehler))
 414 020c 8081      		ld r24,Z
 415 020e 9181      		ldd r25,Z+1
 416 0210 0E94 0000 		call uart_puti
 417               	.LM43:
 418 0214 80E0      		ldi r24,lo8(.LC2)
 419 0216 90E0      		ldi r25,hi8(.LC2)
 420 0218 0E94 0000 		call uart_puts
 421               	.LM44:
 422 021c 80E0      		ldi r24,lo8(.LC4)
 423 021e 90E0      		ldi r25,hi8(.LC4)
 424 0220 0E94 0000 		call uart_puts
 425               	.LM45:
 426 0224 F801      		movw r30,r16
 427 0226 E050      		subi r30,lo8(-(integrator))
 428 0228 F040      		sbci r31,hi8(-(integrator))
 429 022a 8081      		ld r24,Z
 430 022c 9181      		ldd r25,Z+1
 431 022e 0E94 0000 		call uart_puti
 432               	.LM46:
 433 0232 80E0      		ldi r24,lo8(.LC2)
 434 0234 90E0      		ldi r25,hi8(.LC2)
 435 0236 0E94 0000 		call uart_puts
 436               	.LM47:
 437 023a 80E0      		ldi r24,lo8(.LC5)
 438 023c 90E0      		ldi r25,hi8(.LC5)
 439 023e 0E94 0000 		call uart_puts
 440               	.LM48:
 441 0242 F801      		movw r30,r16
 442 0244 E050      		subi r30,lo8(-(differenzierer))
 443 0246 F040      		sbci r31,hi8(-(differenzierer))
 444 0248 8081      		ld r24,Z
 445 024a 9181      		ldd r25,Z+1
 446 024c 0E94 0000 		call uart_puti
 447               	.LM49:
 448 0250 80E0      		ldi r24,lo8(.LC2)
 449 0252 90E0      		ldi r25,hi8(.LC2)
 450 0254 0E94 0000 		call uart_puts
 451               	.LM50:
 452 0258 80E0      		ldi r24,lo8(.LC6)
 453 025a 90E0      		ldi r25,hi8(.LC6)
 454 025c 0E94 0000 		call uart_puts
 455               	.LM51:
 456 0260 0050      		subi r16,lo8(-(stellwert))
 457 0262 1040      		sbci r17,hi8(-(stellwert))
 458 0264 F801      		movw r30,r16
 459 0266 8081      		ld r24,Z
 460 0268 9181      		ldd r25,Z+1
 461 026a 0E94 0000 		call uart_puti
 462               	.LM52:
 463 026e 80E0      		ldi r24,lo8(.LC2)
 464 0270 90E0      		ldi r25,hi8(.LC2)
 465 0272 0E94 0000 		call uart_puts
 466               	.LM53:
 467 0276 80E0      		ldi r24,lo8(.LC7)
 468 0278 90E0      		ldi r25,hi8(.LC7)
 469 027a 0E94 0000 		call uart_puts
 470               	/* epilogue: frame size=0 */
 471 027e 1F91      		pop r17
 472 0280 0F91      		pop r16
 473 0282 0895      		ret
 474               	/* epilogue end (size=3) */
 475               	/* function reglerwerte_ausgeben size 93 (88) */
 476               	.LFE6:
 478               		.data
 479               	.LC8:
 480 003b 0C20 2A2A 		.string	"\f ** DEBUG Encoder **"
 480      2044 4542 
 480      5547 2045 
 480      6E63 6F64 
 480      6572 202A 
 481               	.LC9:
 482 0051 5A65 6974 		.string	"Zeit       Flanken\tPWM\r\n"
 482      2020 2020 
 482      2020 2046 
 482      6C61 6E6B 
 482      656E 0950 
 483               	.LC10:
 484 006a 2020 2020 		.string	"    "
 484      00
 485               	.LC11:
 486 006f 2020 2020 		.string	"    \t"
 486      0900 
 487               	.LC12:
 488 0075 2520 2020 		.string	"%    \r\n"
 488      200D 0A00 
 489               	.LC13:
 490 007d 0920 2020 		.string	"\t   "
 490      00
 491               	.LC14:
 492 0082 2520 2020 		.string	"%   \r\n"
 492      0D0A 00
 493               		.text
 494               	.global	encoder_ausgeben
 496               	encoder_ausgeben:
 497               	.LFB7:
 498               	.LM54:
 499               	/* prologue: frame size=0 */
 500 0284 EF92      		push r14
 501 0286 FF92      		push r15
 502 0288 0F93      		push r16
 503 028a 1F93      		push r17
 504               	/* prologue end (size=4) */
 505               	.LM55:
 506 028c 80E0      		ldi r24,lo8(.LC8)
 507 028e 90E0      		ldi r25,hi8(.LC8)
 508 0290 0E94 0000 		call uart_puts
 509               	.LM56:
 510 0294 80E0      		ldi r24,lo8(.LC9)
 511 0296 90E0      		ldi r25,hi8(.LC9)
 512 0298 0E94 0000 		call uart_puts
 513               	.LM57:
 514 029c 0E94 0000 		call uart_printtime
 515               	.LM58:
 516 02a0 80E0      		ldi r24,lo8(.LC10)
 517 02a2 90E0      		ldi r25,hi8(.LC10)
 518 02a4 0E94 0000 		call uart_puts
 519               	.LM59:
 520 02a8 8091 0000 		lds r24,istwert
 521 02ac 9091 0000 		lds r25,(istwert)+1
 522 02b0 0E94 0000 		call uart_puti
 523               	.LM60:
 524 02b4 80E0      		ldi r24,lo8(.LC11)
 525 02b6 90E0      		ldi r25,hi8(.LC11)
 526 02b8 0E94 0000 		call uart_puts
 527               	.LM61:
 528 02bc 8091 0000 		lds r24,stellwert
 529 02c0 9091 0000 		lds r25,(stellwert)+1
 530 02c4 04E6      		ldi r16,lo8(100)
 531 02c6 10E0      		ldi r17,hi8(100)
 532 02c8 7FEF      		ldi r23,lo8(255)
 533 02ca E72E      		mov r14,r23
 534 02cc F12C      		mov r15,__zero_reg__
 535 02ce 809F      		mul r24,r16
 536 02d0 9001      		movw r18,r0
 537 02d2 819F      		mul r24,r17
 538 02d4 300D      		add r19,r0
 539 02d6 909F      		mul r25,r16
 540 02d8 300D      		add r19,r0
 541 02da 1124      		clr r1
 542 02dc C901      		movw r24,r18
 543 02de B701      		movw r22,r14
 544 02e0 0E94 0000 		call __divmodhi4
 545 02e4 CB01      		movw r24,r22
 546 02e6 0E94 0000 		call uart_puti
 547               	.LM62:
 548 02ea 80E0      		ldi r24,lo8(.LC12)
 549 02ec 90E0      		ldi r25,hi8(.LC12)
 550 02ee 0E94 0000 		call uart_puts
 551               	.LM63:
 552 02f2 80E0      		ldi r24,lo8(.LC13)
 553 02f4 90E0      		ldi r25,hi8(.LC13)
 554 02f6 0E94 0000 		call uart_puts
 555               	.LM64:
 556 02fa 8091 0000 		lds r24,istwert+2
 557 02fe 9091 0000 		lds r25,(istwert+2)+1
 558 0302 0E94 0000 		call uart_puti
 559               	.LM65:
 560 0306 80E0      		ldi r24,lo8(.LC11)
 561 0308 90E0      		ldi r25,hi8(.LC11)
 562 030a 0E94 0000 		call uart_puts
 563               	.LM66:
 564 030e 8091 0000 		lds r24,stellwert+2
 565 0312 9091 0000 		lds r25,(stellwert+2)+1
 566 0316 809F      		mul r24,r16
 567 0318 9001      		movw r18,r0
 568 031a 819F      		mul r24,r17
 569 031c 300D      		add r19,r0
 570 031e 909F      		mul r25,r16
 571 0320 300D      		add r19,r0
 572 0322 1124      		clr r1
 573 0324 C901      		movw r24,r18
 574 0326 B701      		movw r22,r14
 575 0328 0E94 0000 		call __divmodhi4
 576 032c CB01      		movw r24,r22
 577 032e 0E94 0000 		call uart_puti
 578               	.LM67:
 579 0332 80E0      		ldi r24,lo8(.LC14)
 580 0334 90E0      		ldi r25,hi8(.LC14)
 581 0336 0E94 0000 		call uart_puts
 582               	/* epilogue: frame size=0 */
 583 033a 1F91      		pop r17
 584 033c 0F91      		pop r16
 585 033e FF90      		pop r15
 586 0340 EF90      		pop r14
 587 0342 0895      		ret
 588               	/* epilogue end (size=5) */
 589               	/* function encoder_ausgeben size 96 (87) */
 590               	.LFE7:
 592               		.section	.progmem.data,"a",@progbits
 595               	__c.0:
 596 0000 0C20 2A2A 		.string	"\f *** Hallo! ***\r\n"
 596      2A20 4861 
 596      6C6C 6F21 
 596      202A 2A2A 
 596      0D0A 00
 599               	__c.1:
 600 0013 2049 6368 		.string	" Ich bin ein kleiner Roboter.\r\n"
 600      2062 696E 
 600      2065 696E 
 600      206B 6C65 
 600      696E 6572 
 603               	__c.2:
 604 0033 424F 543A 		.string	"BOT:\\>"
 604      5C3E 00
 605               		.text
 606               	.global	main
 608               	main:
 609               	.LFB4:
 610               	.LM68:
 611               	/* prologue: frame size=0 */
 612 0344 C0E0      		ldi r28,lo8(__stack - 0)
 613 0346 D0E0      		ldi r29,hi8(__stack - 0)
 614 0348 DEBF      		out __SP_H__,r29
 615 034a CDBF      		out __SP_L__,r28
 616               	/* prologue end (size=4) */
 617               	.LM69:
 618 034c 0E94 0000 		call uart_init
 619               	.LM70:
 620 0350 0E94 0000 		call timer2_init
 621               	.LM71:
 622 0354 0E94 0000 		call motor_init
 623               	.LM72:
 624 0358 0E94 0000 		call encoder_init
 625               	.LM73:
 626 035c 8A9A      		sbi 49-0x20,2
 627               	.LM74:
 628 035e 9298      		cbi 50-0x20,2
 629               	.LM75:
 630 0360 80E0      		ldi r24,lo8(__c.0)
 631 0362 90E0      		ldi r25,hi8(__c.0)
 632 0364 0E94 0000 		call uart_puts_p
 633               	.LM76:
 634 0368 80E0      		ldi r24,lo8(__c.1)
 635 036a 90E0      		ldi r25,hi8(__c.1)
 636 036c 0E94 0000 		call uart_puts_p
 637               	.LM77:
 638 0370 80E0      		ldi r24,lo8(__c.2)
 639 0372 90E0      		ldi r25,hi8(__c.2)
 640 0374 0E94 0000 		call uart_puts_p
 641               	.LM78:
 642 0378 C0E0      		ldi r28,lo8(0)
 643               	.LM79:
 644               	/* #APP */
 645 037a 7894      		sei
 646               	/* #NOAPP */
 647               	.L77:
 648               	.LM80:
 649 037c 0E94 0000 		call Gettime
 650 0380 9B01      		movw r18,r22
 651 0382 AC01      		movw r20,r24
 652 0384 8091 0000 		lds r24,zeit
 653 0388 9091 0000 		lds r25,(zeit)+1
 654 038c A091 0000 		lds r26,(zeit)+2
 655 0390 B091 0000 		lds r27,(zeit)+3
 656 0394 8C59      		subi r24,lo8(-(100))
 657 0396 9F4F      		sbci r25,hi8(-(100))
 658 0398 AF4F      		sbci r26,hlo8(-(100))
 659 039a BF4F      		sbci r27,hhi8(-(100))
 660 039c 2817      		cp r18,r24
 661 039e 3907      		cpc r19,r25
 662 03a0 4A07      		cpc r20,r26
 663 03a2 5B07      		cpc r21,r27
 664 03a4 58F3      		brlo .L77
 665               	.LM81:
 666 03a6 0E94 0000 		call Gettime
 667 03aa DC01      		movw r26,r24
 668 03ac CB01      		movw r24,r22
 669 03ae 8093 0000 		sts zeit,r24
 670 03b2 9093 0000 		sts (zeit)+1,r25
 671 03b6 A093 0000 		sts (zeit)+2,r26
 672 03ba B093 0000 		sts (zeit)+3,r27
 673               	.LM82:
 674 03be 80E0      		ldi r24,lo8(0)
 675 03c0 0E94 0000 		call regelung
 676               	.LM83:
 677 03c4 81E0      		ldi r24,lo8(1)
 678 03c6 0E94 0000 		call regelung
 679               	.LM84:
 680 03ca 0E94 0000 		call uart_getc
 681               	.LM85:
 682 03ce 0E94 0000 		call command_put
 683               	.LM86:
 684 03d2 0E94 0000 		call command_get
 685 03d6 182F      		mov r17,r24
 686               	.LM87:
 687 03d8 0E94 0000 		call command_prompt
 688               	.LM88:
 689 03dc 812F      		mov r24,r17
 690 03de 9927      		clr r25
 691 03e0 8B31      		cpi r24,27
 692 03e2 9105      		cpc r25,__zero_reg__
 693 03e4 09F4      		brne .+2
 694 03e6 71C0      		rjmp .L40
 695 03e8 8C31      		cpi r24,28
 696 03ea 9105      		cpc r25,__zero_reg__
 697 03ec 7CF4      		brge .L42
 698 03ee 8630      		cpi r24,6
 699 03f0 9105      		cpc r25,__zero_reg__
 700 03f2 09F1      		breq .L25
 701 03f4 8730      		cpi r24,7
 702 03f6 9105      		cpc r25,__zero_reg__
 703 03f8 1CF4      		brge .L43
 704 03fa 0597      		sbiw r24,5
 705 03fc D1F0      		breq .L24
 706 03fe 6EC0      		rjmp .L23
 707               	.L43:
 708 0400 8C30      		cpi r24,12
 709 0402 9105      		cpc r25,__zero_reg__
 710 0404 51F1      		breq .L26
 711 0406 0D97      		sbiw r24,13
 712 0408 51F1      		breq .L27
 713 040a 68C0      		rjmp .L23
 714               	.L42:
 715 040c 8234      		cpi r24,66
 716 040e 9105      		cpc r25,__zero_reg__
 717 0410 C9F1      		breq .L31
 718 0412 8334      		cpi r24,67
 719 0414 9105      		cpc r25,__zero_reg__
 720 0416 24F4      		brge .L44
 721 0418 8134      		cpi r24,65
 722 041a 9105      		cpc r25,__zero_reg__
 723 041c 11F1      		breq .L28
 724 041e 5EC0      		rjmp .L23
 725               	.L44:
 726 0420 8434      		cpi r24,68
 727 0422 9105      		cpc r25,__zero_reg__
 728 0424 09F4      		brne .+2
 729 0426 43C0      		rjmp .L34
 730 0428 8534      		cpi r24,69
 731 042a 9105      		cpc r25,__zero_reg__
 732 042c 09F4      		brne .+2
 733 042e 46C0      		rjmp .L37
 734 0430 55C0      		rjmp .L23
 735               	.L24:
 736               	.LM89:
 737 0432 C1E0      		ldi r28,lo8(1)
 738               	.LM90:
 739 0434 53C0      		rjmp .L23
 740               	.L25:
 741               	.LM91:
 742 0436 8091 0000 		lds r24,zeit
 743 043a 9091 0000 		lds r25,(zeit)+1
 744 043e A091 0000 		lds r26,(zeit)+2
 745 0442 B091 0000 		lds r27,(zeit)+3
 746 0446 8093 0000 		sts startzeit,r24
 747 044a 9093 0000 		sts (startzeit)+1,r25
 748 044e A093 0000 		sts (startzeit)+2,r26
 749 0452 B093 0000 		sts (startzeit)+3,r27
 750               	.LM92:
 751 0456 C2E0      		ldi r28,lo8(2)
 752               	.LM93:
 753 0458 41C0      		rjmp .L23
 754               	.L26:
 755               	.LM94:
 756 045a CBE0      		ldi r28,lo8(11)
 757               	.LM95:
 758 045c 3FC0      		rjmp .L23
 759               	.L27:
 760               	.LM96:
 761 045e CDE0      		ldi r28,lo8(13)
 762               	.LM97:
 763 0460 3DC0      		rjmp .L23
 764               	.L28:
 765               	.LM98:
 766 0462 C130      		cpi r28,lo8(1)
 767 0464 D9F5      		brne .L23
 768               	.LM99:
 769 0466 8091 0000 		lds r24,sollwert
 770 046a 9091 0000 		lds r25,(sollwert)+1
 771 046e 4496      		adiw r24,20
 772 0470 9093 0000 		sts (sollwert)+1,r25
 773 0474 8093 0000 		sts sollwert,r24
 774               	.LM100:
 775 0478 8091 0000 		lds r24,sollwert+2
 776 047c 9091 0000 		lds r25,(sollwert+2)+1
 777 0480 4496      		adiw r24,20
 778 0482 10C0      		rjmp .L75
 779               	.L31:
 780               	.LM101:
 781 0484 C130      		cpi r28,lo8(1)
 782 0486 51F5      		brne .L23
 783               	.LM102:
 784 0488 8091 0000 		lds r24,sollwert
 785 048c 9091 0000 		lds r25,(sollwert)+1
 786 0490 4497      		sbiw r24,20
 787 0492 9093 0000 		sts (sollwert)+1,r25
 788 0496 8093 0000 		sts sollwert,r24
 789               	.LM103:
 790 049a 8091 0000 		lds r24,sollwert+2
 791 049e 9091 0000 		lds r25,(sollwert+2)+1
 792 04a2 4497      		sbiw r24,20
 793               	.L75:
 794 04a4 9093 0000 		sts (sollwert+2)+1,r25
 795 04a8 8093 0000 		sts sollwert+2,r24
 796               	.LM104:
 797 04ac 17C0      		rjmp .L23
 798               	.L34:
 799               	.LM105:
 800 04ae C130      		cpi r28,lo8(1)
 801 04b0 A9F4      		brne .L23
 802               	.LM106:
 803 04b2 1092 0000 		sts (sollwert)+1,__zero_reg__
 804 04b6 1092 0000 		sts sollwert,__zero_reg__
 805               	.LM107:
 806 04ba 10C0      		rjmp .L23
 807               	.L37:
 808               	.LM108:
 809 04bc C130      		cpi r28,lo8(1)
 810 04be 71F4      		brne .L23
 811               	.LM109:
 812 04c0 1092 0000 		sts (sollwert+2)+1,__zero_reg__
 813 04c4 1092 0000 		sts sollwert+2,__zero_reg__
 814               	.LM110:
 815 04c8 09C0      		rjmp .L23
 816               	.L40:
 817               	.LM111:
 818 04ca 1092 0000 		sts (sollwert)+1,__zero_reg__
 819 04ce 1092 0000 		sts sollwert,__zero_reg__
 820               	.LM112:
 821 04d2 1092 0000 		sts (sollwert+2)+1,__zero_reg__
 822 04d6 1092 0000 		sts sollwert+2,__zero_reg__
 823               	.LM113:
 824 04da C0E0      		ldi r28,lo8(0)
 825               	.L23:
 826               	.LM114:
 827 04dc 8C2F      		mov r24,r28
 828 04de 9927      		clr r25
 829 04e0 8B30      		cpi r24,11
 830 04e2 9105      		cpc r25,__zero_reg__
 831 04e4 49F0      		breq .L48
 832 04e6 8C30      		cpi r24,12
 833 04e8 9105      		cpc r25,__zero_reg__
 834 04ea 1CF4      		brge .L69
 835 04ec 0297      		sbiw r24,2
 836 04ee 71F0      		breq .L50
 837 04f0 45CF      		rjmp .L77
 838               	.L69:
 839 04f2 0D97      		sbiw r24,13
 840 04f4 21F0      		breq .L49
 841 04f6 42CF      		rjmp .L77
 842               	.L48:
 843               	.LM115:
 844 04f8 0E94 0000 		call encoder_ausgeben
 845               	.LM116:
 846 04fc 3FCF      		rjmp .L77
 847               	.L49:
 848               	.LM117:
 849 04fe 80E0      		ldi r24,lo8(0)
 850 0500 0E94 0000 		call reglerwerte_ausgeben
 851               	.LM118:
 852 0504 81E0      		ldi r24,lo8(1)
 853 0506 0E94 0000 		call reglerwerte_ausgeben
 854               	.LM119:
 855 050a 38CF      		rjmp .L77
 856               	.L50:
 857               	.LM120:
 858 050c 2091 0000 		lds r18,zeit
 859 0510 3091 0000 		lds r19,(zeit)+1
 860 0514 4091 0000 		lds r20,(zeit)+2
 861 0518 5091 0000 		lds r21,(zeit)+3
 862 051c 8091 0000 		lds r24,startzeit
 863 0520 9091 0000 		lds r25,(startzeit)+1
 864 0524 A091 0000 		lds r26,(startzeit)+2
 865 0528 B091 0000 		lds r27,(startzeit)+3
 866 052c 281B      		sub r18,r24
 867 052e 390B      		sbc r19,r25
 868 0530 4A0B      		sbc r20,r26
 869 0532 5B0B      		sbc r21,r27
 870 0534 2032      		cpi r18,lo8(20000)
 871 0536 8EE4      		ldi r24,hi8(20000)
 872 0538 3807      		cpc r19,r24
 873 053a 80E0      		ldi r24,hlo8(20000)
 874 053c 4807      		cpc r20,r24
 875 053e 80E0      		ldi r24,hhi8(20000)
 876 0540 5807      		cpc r21,r24
 877 0542 09F4      		brne .+2
 878 0544 80C0      		rjmp .L59
 879 0546 2132      		cpi r18,lo8(20001)
 880 0548 8EE4      		ldi r24,hi8(20001)
 881 054a 3807      		cpc r19,r24
 882 054c 80E0      		ldi r24,hlo8(20001)
 883 054e 4807      		cpc r20,r24
 884 0550 80E0      		ldi r24,hhi8(20001)
 885 0552 5807      		cpc r21,r24
 886 0554 88F5      		brsh .L64
 887 0556 2034      		cpi r18,lo8(8000)
 888 0558 8FE1      		ldi r24,hi8(8000)
 889 055a 3807      		cpc r19,r24
 890 055c 80E0      		ldi r24,hlo8(8000)
 891 055e 4807      		cpc r20,r24
 892 0560 80E0      		ldi r24,hhi8(8000)
 893 0562 5807      		cpc r21,r24
 894 0564 09F4      		brne .+2
 895 0566 66C0      		rjmp .L54
 896 0568 2134      		cpi r18,lo8(8001)
 897 056a 8FE1      		ldi r24,hi8(8001)
 898 056c 3807      		cpc r19,r24
 899 056e 80E0      		ldi r24,hlo8(8001)
 900 0570 4807      		cpc r20,r24
 901 0572 80E0      		ldi r24,hhi8(8001)
 902 0574 5807      		cpc r21,r24
 903 0576 80F4      		brsh .L65
 904 0578 283B      		cpi r18,lo8(3000)
 905 057a 8BE0      		ldi r24,hi8(3000)
 906 057c 3807      		cpc r19,r24
 907 057e 80E0      		ldi r24,hlo8(3000)
 908 0580 4807      		cpc r20,r24
 909 0582 80E0      		ldi r24,hhi8(3000)
 910 0584 5807      		cpc r21,r24
 911 0586 09F4      		brne .+2
 912 0588 52C0      		rjmp .L52
 913 058a 2C57      		subi r18,lo8(5500)
 914 058c 3541      		sbci r19,hi8(5500)
 915 058e 4040      		sbci r20,hlo8(5500)
 916 0590 5040      		sbci r21,hhi8(5500)
 917 0592 09F4      		brne .+2
 918 0594 62C0      		rjmp .L61
 919 0596 F2CE      		rjmp .L77
 920               	.L65:
 921 0598 2839      		cpi r18,lo8(15000)
 922 059a 8AE3      		ldi r24,hi8(15000)
 923 059c 3807      		cpc r19,r24
 924 059e 80E0      		ldi r24,hlo8(15000)
 925 05a0 4807      		cpc r20,r24
 926 05a2 80E0      		ldi r24,hhi8(15000)
 927 05a4 5807      		cpc r21,r24
 928 05a6 09F4      		brne .+2
 929 05a8 58C0      		rjmp .L61
 930 05aa 2C55      		subi r18,lo8(17500)
 931 05ac 3444      		sbci r19,hi8(17500)
 932 05ae 4040      		sbci r20,hlo8(17500)
 933 05b0 5040      		sbci r21,hhi8(17500)
 934 05b2 09F4      		brne .+2
 935 05b4 42C0      		rjmp .L56
 936 05b6 E2CE      		rjmp .L77
 937               	.L64:
 938 05b8 2C36      		cpi r18,lo8(27500)
 939 05ba 8BE6      		ldi r24,hi8(27500)
 940 05bc 3807      		cpc r19,r24
 941 05be 80E0      		ldi r24,hlo8(27500)
 942 05c0 4807      		cpc r20,r24
 943 05c2 80E0      		ldi r24,hhi8(27500)
 944 05c4 5807      		cpc r21,r24
 945 05c6 09F4      		brne .+2
 946 05c8 45C0      		rjmp .L60
 947 05ca 2D36      		cpi r18,lo8(27501)
 948 05cc 8BE6      		ldi r24,hi8(27501)
 949 05ce 3807      		cpc r19,r24
 950 05d0 80E0      		ldi r24,hlo8(27501)
 951 05d2 4807      		cpc r20,r24
 952 05d4 80E0      		ldi r24,hhi8(27501)
 953 05d6 5807      		cpc r21,r24
 954 05d8 70F4      		brsh .L66
 955 05da 243E      		cpi r18,lo8(22500)
 956 05dc 87E5      		ldi r24,hi8(22500)
 957 05de 3807      		cpc r19,r24
 958 05e0 80E0      		ldi r24,hlo8(22500)
 959 05e2 4807      		cpc r20,r24
 960 05e4 80E0      		ldi r24,hhi8(22500)
 961 05e6 5807      		cpc r21,r24
 962 05e8 59F1      		breq .L58
 963 05ea 285A      		subi r18,lo8(25000)
 964 05ec 3146      		sbci r19,hi8(25000)
 965 05ee 4040      		sbci r20,hlo8(25000)
 966 05f0 5040      		sbci r21,hhi8(25000)
 967 05f2 49F1      		breq .L59
 968 05f4 C3CE      		rjmp .L77
 969               	.L66:
 970 05f6 243F      		cpi r18,lo8(32500)
 971 05f8 8EE7      		ldi r24,hi8(32500)
 972 05fa 3807      		cpc r19,r24
 973 05fc 80E0      		ldi r24,hlo8(32500)
 974 05fe 4807      		cpc r20,r24
 975 0600 80E0      		ldi r24,hhi8(32500)
 976 0602 5807      		cpc r21,r24
 977 0604 89F1      		breq .L62
 978 0606 253F      		cpi r18,lo8(32501)
 979 0608 8EE7      		ldi r24,hi8(32501)
 980 060a 3807      		cpc r19,r24
 981 060c 80E0      		ldi r24,hlo8(32501)
 982 060e 4807      		cpc r20,r24
 983 0610 80E0      		ldi r24,hhi8(32501)
 984 0612 5807      		cpc r21,r24
 985 0614 30F4      		brsh .L67
 986 0616 2053      		subi r18,lo8(30000)
 987 0618 3547      		sbci r19,hi8(30000)
 988 061a 4040      		sbci r20,hlo8(30000)
 989 061c 5040      		sbci r21,hhi8(30000)
 990 061e E9F0      		breq .L61
 991 0620 ADCE      		rjmp .L77
 992               	.L67:
 993 0622 285B      		subi r18,lo8(35000)
 994 0624 3848      		sbci r19,hi8(35000)
 995 0626 4040      		sbci r20,hlo8(35000)
 996 0628 5040      		sbci r21,hhi8(35000)
 997 062a 49F1      		breq .L63
 998 062c A7CE      		rjmp .L77
 999               	.L52:
 1000               	.LM121:
 1001 062e 82E3      		ldi r24,lo8(50)
 1002 0630 90E0      		ldi r25,hi8(50)
 1003 0632 1CC0      		rjmp .L76
 1004               	.L54:
 1005               	.LM122:
 1006 0634 8EE1      		ldi r24,lo8(30)
 1007 0636 90E0      		ldi r25,hi8(30)
 1008 0638 19C0      		rjmp .L76
 1009               	.L56:
 1010               	.LM123:
 1011 063a 8CE3      		ldi r24,lo8(60)
 1012 063c 90E0      		ldi r25,hi8(60)
 1013 063e 16C0      		rjmp .L76
 1014               	.L58:
 1015               	.LM124:
 1016 0640 80E5      		ldi r24,lo8(80)
 1017 0642 90E0      		ldi r25,hi8(80)
 1018 0644 13C0      		rjmp .L76
 1019               	.L59:
 1020               	.LM125:
 1021 0646 82E3      		ldi r24,lo8(50)
 1022 0648 90E0      		ldi r25,hi8(50)
 1023 064a 9093 0000 		sts (sollwert)+1,r25
 1024 064e 8093 0000 		sts sollwert,r24
 1025 0652 19C0      		rjmp .L74
 1026               	.L60:
 1027               	.LM126:
 1028 0654 84E6      		ldi r24,lo8(100)
 1029 0656 90E0      		ldi r25,hi8(100)
 1030 0658 09C0      		rjmp .L76
 1031               	.L61:
 1032               	.LM127:
 1033 065a 1092 0000 		sts (sollwert)+1,__zero_reg__
 1034 065e 1092 0000 		sts sollwert,__zero_reg__
 1035               	.LM128:
 1036 0662 82E3      		ldi r24,lo8(50)
 1037 0664 90E0      		ldi r25,hi8(50)
 1038 0666 06C0      		rjmp .L73
 1039               	.L62:
 1040               	.LM129:
 1041 0668 86E9      		ldi r24,lo8(150)
 1042 066a 90E0      		ldi r25,hi8(150)
 1043               	.L76:
 1044 066c 9093 0000 		sts (sollwert)+1,r25
 1045 0670 8093 0000 		sts sollwert,r24
 1046               	.L73:
 1047               	.LM130:
 1048 0674 9093 0000 		sts (sollwert+2)+1,r25
 1049 0678 8093 0000 		sts sollwert+2,r24
 1050               	.LM131:
 1051 067c 7FCE      		rjmp .L77
 1052               	.L63:
 1053               	.LM132:
 1054 067e 1092 0000 		sts (sollwert)+1,__zero_reg__
 1055 0682 1092 0000 		sts sollwert,__zero_reg__
 1056               	.L74:
 1057               	.LM133:
 1058 0686 1092 0000 		sts (sollwert+2)+1,__zero_reg__
 1059 068a 1092 0000 		sts sollwert+2,__zero_reg__
 1060               	.LM134:
 1061 068e 76CE      		rjmp .L77
 1062               	/* epilogue: frame size=0 */
 1063               	/* epilogue: noreturn */
 1064               	/* epilogue end (size=0) */
 1065               	/* function main size 442 (438) */
 1066               	.LFE4:
 1068               		.comm count36kHz,1,1
 1069               		.comm timebase,4,1
 1070               	.Letext0:
DEFINED SYMBOLS
                            *ABS*:00000000 main.c
C:\DOKUME~1\Olaf\LOKALE~1\Temp/ccW2aaaa.s:3      *ABS*:0000003f __SREG__
C:\DOKUME~1\Olaf\LOKALE~1\Temp/ccW2aaaa.s:4      *ABS*:0000003e __SP_H__
C:\DOKUME~1\Olaf\LOKALE~1\Temp/ccW2aaaa.s:5      *ABS*:0000003d __SP_L__
C:\DOKUME~1\Olaf\LOKALE~1\Temp/ccW2aaaa.s:6      *ABS*:00000000 __tmp_reg__
C:\DOKUME~1\Olaf\LOKALE~1\Temp/ccW2aaaa.s:7      *ABS*:00000001 __zero_reg__
C:\DOKUME~1\Olaf\LOKALE~1\Temp/ccW2aaaa.s:23     .bss:00000000 stellwert
C:\DOKUME~1\Olaf\LOKALE~1\Temp/ccW2aaaa.s:29     .bss:00000004 differenzierer
C:\DOKUME~1\Olaf\LOKALE~1\Temp/ccW2aaaa.s:35     .bss:00000008 integrator
C:\DOKUME~1\Olaf\LOKALE~1\Temp/ccW2aaaa.s:41     .bss:0000000c fehler_alt
C:\DOKUME~1\Olaf\LOKALE~1\Temp/ccW2aaaa.s:47     .bss:00000010 fehler
C:\DOKUME~1\Olaf\LOKALE~1\Temp/ccW2aaaa.s:53     .bss:00000014 istwert
C:\DOKUME~1\Olaf\LOKALE~1\Temp/ccW2aaaa.s:59     .bss:00000018 sollwert
C:\DOKUME~1\Olaf\LOKALE~1\Temp/ccW2aaaa.s:65     .bss:0000001c startzeit
C:\DOKUME~1\Olaf\LOKALE~1\Temp/ccW2aaaa.s:71     .bss:00000020 zeit
C:\DOKUME~1\Olaf\LOKALE~1\Temp/ccW2aaaa.s:76     .text:00000000 regelung
C:\DOKUME~1\Olaf\LOKALE~1\Temp/ccW2aaaa.s:375    .text:000001ca reglerwerte_ausgeben
C:\DOKUME~1\Olaf\LOKALE~1\Temp/ccW2aaaa.s:496    .text:00000284 encoder_ausgeben
C:\DOKUME~1\Olaf\LOKALE~1\Temp/ccW2aaaa.s:595    .progmem.data:00000000 __c.0
C:\DOKUME~1\Olaf\LOKALE~1\Temp/ccW2aaaa.s:599    .progmem.data:00000013 __c.1
C:\DOKUME~1\Olaf\LOKALE~1\Temp/ccW2aaaa.s:603    .progmem.data:00000033 __c.2
C:\DOKUME~1\Olaf\LOKALE~1\Temp/ccW2aaaa.s:608    .text:00000344 main
                            *COM*:00000001 count36kHz
                            *COM*:00000004 timebase

UNDEFINED SYMBOLS
__do_copy_data
__do_clear_bss
encoderGet
motor_dir
motor_speed
uart_puts
uart_puti
uart_printtime
__divmodhi4
__stack
uart_init
timer2_init
motor_init
encoder_init
uart_puts_p
Gettime
uart_getc
command_put
command_get
command_prompt
